; generated by Component: ARM Compiler 5.06 update 5 (build 528) Tool: ArmCC [4d3621]
; commandline ArmCC [--list --split_sections --debug -c --asm --interleave -o.\stm3210e_eval_lcd.o --asm_dir=.\ --list_dir=.\ --depend=.\stm3210e_eval_lcd.d --cpu=Cortex-M3 --apcs=interwork -O3 --diag_suppress=9931 -I..\ -I..\..\..\Libraries\CMSIS\CM3\CoreSupport -I..\..\..\Libraries\CMSIS\CM3\DeviceSupport\ST\STM32F10x -I..\..\..\Libraries\STM32F10x_StdPeriph_Driver\inc -I..\..\..\Utilities\STM32_EVAL -I..\..\..\Utilities\STM32_EVAL\Common -I..\..\..\Utilities\STM32_EVAL\STM3210E_EVAL -I.\RTE\_MainBoardForRTD -I"D:\software install\Keil\ARM\CMSIS\5.1.0\CMSIS\Include" -I"D:\software install\Keil\Keil\STM32F1xx_DFP\2.2.0\Device\Include" -D__MICROLIB -D__UVISION_VERSION=524 -D_RTE_ -DSTM32F10X_HD -DUSE_STDPERIPH_DRIVER -DSTM32F10X_HD -DUSE_STM3210E_EVAL --omf_browse=.\stm3210e_eval_lcd.crf ..\..\..\Utilities\STM32_EVAL\STM3210E_EVAL\stm3210e_eval_lcd.c]
                          THUMB

                          AREA ||i.LCD_Clear||, CODE, READONLY, ALIGN=1

                  LCD_Clear PROC
;;;404      */
;;;405    void LCD_Clear(uint16_t Color)
000000  b530              PUSH     {r4,r5,lr}
;;;406    {
000002  4605              MOV      r5,r0
;;;407      uint32_t index = 0;
000004  2400              MOVS     r4,#0
;;;408      
;;;409      LCD_SetCursor(0x00, 0x013F); 
000006  f240113f          MOV      r1,#0x13f
00000a  4620              MOV      r0,r4
00000c  f7fffffe          BL       LCD_SetCursor
000010  f04f41d8          MOV      r1,#0x6c000000
000014  2022              MOVS     r0,#0x22
000016  8008              STRH     r0,[r1,#0]
;;;410      LCD_WriteRAM_Prepare(); /* Prepare to write GRAM */
;;;411      for(index = 0; index < 76800; index++)
000018  f44f3096          MOV      r0,#0x12c00
                  |L1.28|
;;;412      {
;;;413        LCD->LCD_RAM = Color;
00001c  804d              STRH     r5,[r1,#2]
00001e  1c64              ADDS     r4,r4,#1
000020  4284              CMP      r4,r0                 ;411
000022  d3fb              BCC      |L1.28|
;;;414      }  
;;;415    }
000024  bd30              POP      {r4,r5,pc}
;;;416    
                          ENDP


                          AREA ||i.LCD_ClearLine||, CODE, READONLY, ALIGN=2

                  LCD_ClearLine PROC
;;;385      */
;;;386    void LCD_ClearLine(uint8_t Line)
000000  b570              PUSH     {r4-r6,lr}
;;;387    {
000002  4606              MOV      r6,r0
;;;388      uint16_t refcolumn = LCD_PIXEL_WIDTH - 1;
000004  f240143f          MOV      r4,#0x13f
;;;389      /* Send the string character by character on lCD */
;;;390      while (((refcolumn + 1)&0xFFFF) >= LCD_Currentfonts->Width)
;;;391      {
;;;392        /* Display one character on LCD */
;;;393        LCD_DisplayChar(Line, refcolumn, ' ');
;;;394        /* Decrement the column position by 16 */
;;;395        refcolumn -= LCD_Currentfonts->Width;
000008  4d08              LDR      r5,|L2.44|
00000a  e008              B        |L2.30|
                  |L2.12|
00000c  2220              MOVS     r2,#0x20              ;393
00000e  4621              MOV      r1,r4                 ;393
000010  4630              MOV      r0,r6                 ;393
000012  f7fffffe          BL       LCD_DisplayChar
000016  6868              LDR      r0,[r5,#4]  ; LCD_Currentfonts
000018  8880              LDRH     r0,[r0,#4]
00001a  1a20              SUBS     r0,r4,r0
00001c  b284              UXTH     r4,r0
                  |L2.30|
00001e  6869              LDR      r1,[r5,#4]            ;390  ; LCD_Currentfonts
000020  1c60              ADDS     r0,r4,#1              ;390
000022  b280              UXTH     r0,r0                 ;390
000024  8889              LDRH     r1,[r1,#4]            ;390
000026  4288              CMP      r0,r1                 ;390
000028  d2f0              BCS      |L2.12|
;;;396      }
;;;397    }
00002a  bd70              POP      {r4-r6,pc}
;;;398    
                          ENDP

                  |L2.44|
                          DCD      ||.data||

                          AREA ||i.LCD_ClosedPolyLine||, CODE, READONLY, ALIGN=1

                  LCD_ClosedPolyLine PROC
;;;948      */
;;;949    void LCD_ClosedPolyLine(pPoint Points, uint16_t PointCount)
000000  b570              PUSH     {r4-r6,lr}
;;;950    {
000002  460d              MOV      r5,r1
000004  4604              MOV      r4,r0
;;;951      LCD_PolyLine(Points, PointCount);
000006  f7fffffe          BL       LCD_PolyLine
;;;952      LCD_DrawUniLine(Points->X, Points->Y, (Points+PointCount-1)->X, (Points+PointCount-1)->Y);
00000a  eb040085          ADD      r0,r4,r5,LSL #2
00000e  8861              LDRH     r1,[r4,#2]
000010  f8303c02          LDRH     r3,[r0,#-2]
000014  f8302c04          LDRH     r2,[r0,#-4]
000018  8820              LDRH     r0,[r4,#0]
00001a  e8bd4070          POP      {r4-r6,lr}
00001e  f7ffbffe          B.W      LCD_DrawUniLine
;;;953    }
;;;954    
                          ENDP


                          AREA ||i.LCD_ClosedPolyLineRelative||, CODE, READONLY, ALIGN=1

                  LCD_ClosedPolyLineRelative PROC
;;;971      */
;;;972    void LCD_ClosedPolyLineRelative(pPoint Points, uint16_t PointCount)
000000  2201              MOVS     r2,#1
;;;973    {
;;;974      LCD_PolyLineRelativeClosed(Points, PointCount, 1);
000002  f7ffbffe          B.W      LCD_PolyLineRelativeClosed
;;;975    }
;;;976    
                          ENDP


                          AREA ||i.LCD_CtrlLinesConfig||, CODE, READONLY, ALIGN=2

                  LCD_CtrlLinesConfig PROC
;;;1205     #if 1
;;;1206   void LCD_CtrlLinesConfig(void)
000000  b508              PUSH     {r3,lr}
;;;1207   {
;;;1208     GPIO_InitTypeDef GPIO_InitStructure;
;;;1209     /* Enable FSMC, GPIOD, GPIOE, GPIOF, GPIOG and AFIO clocks */
;;;1210     RCC_AHBPeriphClockCmd(RCC_AHBPeriph_FSMC, ENABLE);
000002  2101              MOVS     r1,#1
000004  0208              LSLS     r0,r1,#8
000006  f7fffffe          BL       RCC_AHBPeriphClockCmd
;;;1211     RCC_APB2PeriphClockCmd(RCC_APB2Periph_GPIOD | RCC_APB2Periph_GPIOE |
00000a  2101              MOVS     r1,#1
00000c  f24010e1          MOV      r0,#0x1e1
000010  f7fffffe          BL       RCC_APB2PeriphClockCmd
;;;1212                            RCC_APB2Periph_GPIOF | RCC_APB2Periph_GPIOG |
;;;1213                            RCC_APB2Periph_AFIO, ENABLE);
;;;1214     /* Set PD.00(D2), PD.01(D3), PD.04(NOE), PD.05(NWE), PD.08(D13), PD.09(D14),
;;;1215        PD.10(D15), PD.14(D0), PD.15(D1) as alternate function push pull */
;;;1216     GPIO_InitStructure.GPIO_Pin = GPIO_Pin_0 | GPIO_Pin_1 | GPIO_Pin_4 | GPIO_Pin_5 |
000014  f24c7033          MOV      r0,#0xc733
000018  f8ad0000          STRH     r0,[sp,#0]
;;;1217                                   GPIO_Pin_8 | GPIO_Pin_9 | GPIO_Pin_10 | GPIO_Pin_14 | 
;;;1218                                   GPIO_Pin_15;
;;;1219     GPIO_InitStructure.GPIO_Speed = GPIO_Speed_50MHz;
00001c  2003              MOVS     r0,#3
00001e  f88d0002          STRB     r0,[sp,#2]
;;;1220     GPIO_InitStructure.GPIO_Mode = GPIO_Mode_AF_PP;
000022  2018              MOVS     r0,#0x18
000024  f88d0003          STRB     r0,[sp,#3]
;;;1221     GPIO_Init(GPIOD, &GPIO_InitStructure);
000028  4669              MOV      r1,sp
00002a  480d              LDR      r0,|L5.96|
00002c  f7fffffe          BL       GPIO_Init
;;;1222     /* Set PE.07(D4), PE.08(D5), PE.09(D6), PE.10(D7), PE.11(D8), PE.12(D9), PE.13(D10),
;;;1223        PE.14(D11), PE.15(D12) as alternate function push pull */
;;;1224     GPIO_InitStructure.GPIO_Pin = GPIO_Pin_7 | GPIO_Pin_8 | GPIO_Pin_9 | GPIO_Pin_10 | 
000030  f64f7080          MOV      r0,#0xff80
000034  f8ad0000          STRH     r0,[sp,#0]
;;;1225                                   GPIO_Pin_11 | GPIO_Pin_12 | GPIO_Pin_13 | GPIO_Pin_14 | 
;;;1226                                   GPIO_Pin_15;
;;;1227     GPIO_Init(GPIOE, &GPIO_InitStructure);
000038  4669              MOV      r1,sp
00003a  480a              LDR      r0,|L5.100|
00003c  f7fffffe          BL       GPIO_Init
;;;1228     /* Set PF.00(A0 (RS)) as alternate function push pull */
;;;1229     GPIO_InitStructure.GPIO_Pin = GPIO_Pin_0;
000040  2001              MOVS     r0,#1
000042  f8ad0000          STRH     r0,[sp,#0]
;;;1230     GPIO_Init(GPIOF, &GPIO_InitStructure);
000046  4669              MOV      r1,sp
000048  4807              LDR      r0,|L5.104|
00004a  f7fffffe          BL       GPIO_Init
;;;1231     /* Set PG.12(NE4 (LCD/CS)) as alternate function push pull - CE3(LCD /CS) */
;;;1232     GPIO_InitStructure.GPIO_Pin = GPIO_Pin_12;
00004e  f44f5080          MOV      r0,#0x1000
000052  f8ad0000          STRH     r0,[sp,#0]
;;;1233     GPIO_Init(GPIOG, &GPIO_InitStructure);
000056  4669              MOV      r1,sp
000058  4804              LDR      r0,|L5.108|
00005a  f7fffffe          BL       GPIO_Init
;;;1234   }
00005e  bd08              POP      {r3,pc}
;;;1235   
                          ENDP

                  |L5.96|
                          DCD      0x40011400
                  |L5.100|
                          DCD      0x40011800
                  |L5.104|
                          DCD      0x40011c00
                  |L5.108|
                          DCD      0x40012000

                          AREA ||i.LCD_DeInit||, CODE, READONLY, ALIGN=2

                  LCD_DeInit PROC
;;;116      */
;;;117    void LCD_DeInit(void)
000000  b508              PUSH     {r3,lr}
;;;118    { 
;;;119      GPIO_InitTypeDef GPIO_InitStructure;
;;;120    
;;;121      /*!< LCD Display Off */
;;;122      LCD_DisplayOff();
000002  f7fffffe          BL       LCD_DisplayOff
;;;123    
;;;124      /* BANK 4 (of NOR/SRAM Bank 1~4) is disabled */
;;;125      FSMC_NORSRAMCmd(FSMC_Bank1_NORSRAM4, ENABLE);
000006  2101              MOVS     r1,#1
000008  2006              MOVS     r0,#6
00000a  f7fffffe          BL       FSMC_NORSRAMCmd
;;;126      
;;;127      /*!< LCD_SPI DeInit */
;;;128      FSMC_NORSRAMDeInit(FSMC_Bank1_NORSRAM4);
00000e  2006              MOVS     r0,#6
000010  f7fffffe          BL       FSMC_NORSRAMDeInit
;;;129       
;;;130      /* Set PD.00(D2), PD.01(D3), PD.04(NOE), PD.05(NWE), PD.08(D13), PD.09(D14),
;;;131         PD.10(D15), PD.14(D0), PD.15(D1) as input floating */
;;;132      GPIO_InitStructure.GPIO_Pin = GPIO_Pin_0 | GPIO_Pin_1 | GPIO_Pin_4 | GPIO_Pin_5 |
000014  f24c7033          MOV      r0,#0xc733
000018  f8ad0000          STRH     r0,[sp,#0]
;;;133                                    GPIO_Pin_8 | GPIO_Pin_9 | GPIO_Pin_10 | GPIO_Pin_14 | 
;;;134                                    GPIO_Pin_15;
;;;135      GPIO_InitStructure.GPIO_Mode = GPIO_Mode_IN_FLOATING;
00001c  2004              MOVS     r0,#4
00001e  f88d0003          STRB     r0,[sp,#3]
;;;136      GPIO_Init(GPIOD, &GPIO_InitStructure);
000022  4669              MOV      r1,sp
000024  480d              LDR      r0,|L6.92|
000026  f7fffffe          BL       GPIO_Init
;;;137      /* Set PE.07(D4), PE.08(D5), PE.09(D6), PE.10(D7), PE.11(D8), PE.12(D9), PE.13(D10),
;;;138         PE.14(D11), PE.15(D12) as alternate function push pull */
;;;139      GPIO_InitStructure.GPIO_Pin = GPIO_Pin_7 | GPIO_Pin_8 | GPIO_Pin_9 | GPIO_Pin_10 | 
00002a  f64f7080          MOV      r0,#0xff80
00002e  f8ad0000          STRH     r0,[sp,#0]
;;;140                                    GPIO_Pin_11 | GPIO_Pin_12 | GPIO_Pin_13 | GPIO_Pin_14 | 
;;;141                                    GPIO_Pin_15;
;;;142      GPIO_Init(GPIOE, &GPIO_InitStructure);
000032  4669              MOV      r1,sp
000034  480a              LDR      r0,|L6.96|
000036  f7fffffe          BL       GPIO_Init
;;;143      /* Set PF.00(A0 (RS)) as alternate function push pull */
;;;144      GPIO_InitStructure.GPIO_Pin = GPIO_Pin_0;
00003a  2001              MOVS     r0,#1
00003c  f8ad0000          STRH     r0,[sp,#0]
;;;145      GPIO_Init(GPIOF, &GPIO_InitStructure);
000040  4669              MOV      r1,sp
000042  4808              LDR      r0,|L6.100|
000044  f7fffffe          BL       GPIO_Init
;;;146      /* Set PG.12(NE4 (LCD/CS)) as alternate function push pull - CE3(LCD /CS) */
;;;147      GPIO_InitStructure.GPIO_Pin = GPIO_Pin_12;
000048  f44f5080          MOV      r0,#0x1000
00004c  f8ad0000          STRH     r0,[sp,#0]
;;;148      GPIO_Init(GPIOG, &GPIO_InitStructure); 
000050  4669              MOV      r1,sp
000052  4805              LDR      r0,|L6.104|
000054  f7fffffe          BL       GPIO_Init
;;;149    }
000058  bd08              POP      {r3,pc}
;;;150    
                          ENDP

00005a  0000              DCW      0x0000
                  |L6.92|
                          DCD      0x40011400
                  |L6.96|
                          DCD      0x40011800
                  |L6.100|
                          DCD      0x40011c00
                  |L6.104|
                          DCD      0x40012000

                          AREA ||i.LCD_DisplayChar||, CODE, READONLY, ALIGN=2

                  LCD_DisplayChar PROC
;;;478      */
;;;479    void LCD_DisplayChar(uint8_t Line, uint16_t Column, uint8_t Ascii)
000000  4b06              LDR      r3,|L7.28|
;;;480    {
000002  b410              PUSH     {r4}
;;;481      Ascii -= 32;
;;;482      LCD_DrawChar(Line, Column, &LCD_Currentfonts->table[Ascii * LCD_Currentfonts->Height]);
000004  685b              LDR      r3,[r3,#4]  ; LCD_Currentfonts
000006  3a20              SUBS     r2,r2,#0x20           ;480
000008  b2d2              UXTB     r2,r2                 ;481
00000a  681c              LDR      r4,[r3,#0]
00000c  88db              LDRH     r3,[r3,#6]
00000e  4353              MULS     r3,r2,r3
000010  eb040243          ADD      r2,r4,r3,LSL #1
000014  bc10              POP      {r4}
000016  f7ffbffe          B.W      LCD_DrawChar
;;;483    }
;;;484    
                          ENDP

00001a  0000              DCW      0x0000
                  |L7.28|
                          DCD      ||.data||

                          AREA ||i.LCD_DisplayOff||, CODE, READONLY, ALIGN=1

                  LCD_DisplayOff PROC
;;;1192     */
;;;1193   void LCD_DisplayOff(void)
000000  2100              MOVS     r1,#0
;;;1194   {
;;;1195     /* Display Off */
;;;1196     LCD_WriteReg(LCD_REG_7, 0x0); 
000002  2007              MOVS     r0,#7
000004  f7ffbffe          B.W      LCD_WriteReg
;;;1197   }
;;;1198   
                          ENDP


                          AREA ||i.LCD_DisplayOn||, CODE, READONLY, ALIGN=1

                  LCD_DisplayOn PROC
;;;1180     */
;;;1181   void LCD_DisplayOn(void)
000000  f2401173          MOV      r1,#0x173
;;;1182   {
;;;1183     /* Display On */
;;;1184     LCD_WriteReg(LCD_REG_7, 0x0173); /* 262K color and display ON */
000004  2007              MOVS     r0,#7
000006  f7ffbffe          B.W      LCD_WriteReg
;;;1185   }
;;;1186   
                          ENDP


                          AREA ||i.LCD_DisplayStringLine||, CODE, READONLY, ALIGN=2

                  LCD_DisplayStringLine PROC
;;;493      */
;;;494    void LCD_DisplayStringLine(uint8_t Line, uint8_t *ptr)
000000  b5f0              PUSH     {r4-r7,lr}
;;;495    {
000002  460d              MOV      r5,r1
000004  4607              MOV      r7,r0
;;;496      uint16_t refcolumn = LCD_PIXEL_WIDTH - 1;
000006  f240143f          MOV      r4,#0x13f
;;;497    
;;;498      /* Send the string character by character on lCD */
;;;499      while ((*ptr != 0) & (((refcolumn + 1) & 0xFFFF) >= LCD_Currentfonts->Width))
;;;500      {
;;;501        /* Display one character on LCD */
;;;502        LCD_DisplayChar(Line, refcolumn, *ptr);
;;;503        /* Decrement the column position by 16 */
;;;504        refcolumn -= LCD_Currentfonts->Width;
00000a  4e0a              LDR      r6,|L10.52|
00000c  e008              B        |L10.32|
                  |L10.14|
00000e  4621              MOV      r1,r4                 ;502
000010  4638              MOV      r0,r7                 ;502
000012  f7fffffe          BL       LCD_DisplayChar
000016  6870              LDR      r0,[r6,#4]  ; LCD_Currentfonts
000018  8880              LDRH     r0,[r0,#4]
00001a  1a20              SUBS     r0,r4,r0
00001c  b284              UXTH     r4,r0
00001e  1c6d              ADDS     r5,r5,#1
                  |L10.32|
000020  782a              LDRB     r2,[r5,#0]            ;499
000022  2a00              CMP      r2,#0                 ;499
000024  d005              BEQ      |L10.50|
000026  6871              LDR      r1,[r6,#4]            ;499  ; LCD_Currentfonts
000028  1c60              ADDS     r0,r4,#1              ;499
00002a  b280              UXTH     r0,r0                 ;499
00002c  8889              LDRH     r1,[r1,#4]            ;499
00002e  4288              CMP      r0,r1                 ;499
000030  d2ed              BCS      |L10.14|
                  |L10.50|
;;;505        /* Point on the next character */
;;;506        ptr++;
;;;507      }
;;;508    }
000032  bdf0              POP      {r4-r7,pc}
;;;509    
                          ENDP

                  |L10.52|
                          DCD      ||.data||

                          AREA ||i.LCD_DrawChar||, CODE, READONLY, ALIGN=2

                  LCD_DrawChar PROC
;;;438      */
;;;439    void LCD_DrawChar(uint8_t Xpos, uint16_t Ypos, const uint16_t *c)
000000  e92d43f0          PUSH     {r4-r9,lr}
;;;440    {
000004  4690              MOV      r8,r2
000006  4689              MOV      r9,r1
;;;441      uint32_t index = 0, i = 0;
000008  2600              MOVS     r6,#0
;;;442      uint8_t Xaddress = 0;
;;;443       
;;;444      Xaddress = Xpos;
00000a  4605              MOV      r5,r0
;;;445      
;;;446      LCD_SetCursor(Xaddress, Ypos);
00000c  f7fffffe          BL       LCD_SetCursor
000010  f04f47d8          MOV      r7,#0x6c000000
;;;447      
;;;448      for(index = 0; index < LCD_Currentfonts->Height; index++)
;;;449      {
;;;450        LCD_WriteRAM_Prepare(); /* Prepare to write GRAM */
;;;451        for(i = 0; i < LCD_Currentfonts->Width; i++)
;;;452        {
;;;453          if((((c[index] & ((0x80 << ((LCD_Currentfonts->Width / 12 ) * 8 ) ) >> i)) == 0x00) &&(LCD_Currentfonts->Width <= 12))||
;;;454            (((c[index] & (0x1 << i)) == 0x00)&&(LCD_Currentfonts->Width > 12 )))
000014  4c18              LDR      r4,|L11.120|
000016  e029              B        |L11.108|
                  |L11.24|
000018  2022              MOVS     r0,#0x22              ;448
00001a  8038              STRH     r0,[r7,#0]            ;448
00001c  2000              MOVS     r0,#0                 ;451
00001e  e01b              B        |L11.88|
                  |L11.32|
000020  230c              MOVS     r3,#0xc               ;453
000022  fbb1f3f3          UDIV     r3,r1,r3              ;453
000026  ea4f0cc3          LSL      r12,r3,#3             ;453
00002a  2380              MOVS     r3,#0x80              ;453
00002c  fa03f30c          LSL      r3,r3,r12             ;453
000030  f838c016          LDRH     r12,[r8,r6,LSL #1]    ;453
000034  4103              ASRS     r3,r3,r0              ;453
000036  ea130f0c          TST      r3,r12                ;453
00003a  d101              BNE      |L11.64|
00003c  290c              CMP      r1,#0xc               ;453
00003e  d906              BLS      |L11.78|
                  |L11.64|
000040  2301              MOVS     r3,#1
000042  4083              LSLS     r3,r3,r0
000044  ea1c0f03          TST      r12,r3
000048  d103              BNE      |L11.82|
00004a  290c              CMP      r1,#0xc
00004c  d901              BLS      |L11.82|
                  |L11.78|
;;;455    
;;;456          {
;;;457            LCD_WriteRAM(BackColor);
00004e  8861              LDRH     r1,[r4,#2]  ; BackColor
000050  e000              B        |L11.84|
                  |L11.82|
;;;458          }
;;;459          else
;;;460          {
;;;461            LCD_WriteRAM(TextColor);
000052  8821              LDRH     r1,[r4,#0]  ; TextColor
                  |L11.84|
000054  8079              STRH     r1,[r7,#2]
000056  1c40              ADDS     r0,r0,#1
                  |L11.88|
000058  8891              LDRH     r1,[r2,#4]            ;451
00005a  4281              CMP      r1,r0                 ;451
00005c  d8e0              BHI      |L11.32|
00005e  1c6d              ADDS     r5,r5,#1              ;451
;;;462          }
;;;463        }
;;;464        Xaddress++;
000060  b2ed              UXTB     r5,r5
;;;465        LCD_SetCursor(Xaddress, Ypos);
000062  4649              MOV      r1,r9
000064  4628              MOV      r0,r5
000066  f7fffffe          BL       LCD_SetCursor
00006a  1c76              ADDS     r6,r6,#1
                  |L11.108|
00006c  6862              LDR      r2,[r4,#4]            ;448  ; LCD_Currentfonts
00006e  88d0              LDRH     r0,[r2,#6]            ;448
000070  42b0              CMP      r0,r6                 ;448
000072  d8d1              BHI      |L11.24|
;;;466      }
;;;467    }
000074  e8bd83f0          POP      {r4-r9,pc}
;;;468    
                          ENDP

                  |L11.120|
                          DCD      ||.data||

                          AREA ||i.LCD_DrawCircle||, CODE, READONLY, ALIGN=2

                  LCD_DrawCircle PROC
;;;618      */
;;;619    void LCD_DrawCircle(uint8_t Xpos, uint16_t Ypos, uint16_t Radius)
000000  e92d4ffe          PUSH     {r1-r11,lr}
;;;620    {
000004  4683              MOV      r11,r0
;;;621      int32_t  D;/* Decision Variable */ 
;;;622      uint32_t  CurX;/* Current X Value */
;;;623      uint32_t  CurY;/* Current Y Value */ 
;;;624      
;;;625      D = 3 - (Radius << 1);
000006  2003              MOVS     r0,#3
000008  468a              MOV      r10,r1                ;620
00000a  eba00942          SUB      r9,r0,r2,LSL #1
;;;626      CurX = 0;
00000e  2600              MOVS     r6,#0
;;;627      CurY = Radius;
000010  4615              MOV      r5,r2
000012  e073              B        |L12.252|
                  |L12.20|
;;;628      
;;;629      while (CurX <= CurY)
;;;630      {
;;;631        LCD_SetCursor(Xpos + CurX, Ypos + CurY);
000014  eb0a0005          ADD      r0,r10,r5
000018  b281              UXTH     r1,r0
00001a  9002              STR      r0,[sp,#8]
00001c  eb0b0006          ADD      r0,r11,r6
000020  9001              STR      r0,[sp,#4]
000022  b2c0              UXTB     r0,r0
000024  f7fffffe          BL       LCD_SetCursor
000028  f04f44d8          MOV      r4,#0x6c000000
00002c  2722              MOVS     r7,#0x22
00002e  8027              STRH     r7,[r4,#0]
;;;632        LCD_WriteRAM_Prepare(); /* Prepare to write GRAM */
;;;633        LCD_WriteRAM(TextColor);
000030  f8df80d0          LDR      r8,|L12.260|
000034  f8b80000          LDRH     r0,[r8,#0]  ; TextColor
000038  8060              STRH     r0,[r4,#2]
;;;634        LCD_SetCursor(Xpos + CurX, Ypos - CurY);
00003a  ebaa0005          SUB      r0,r10,r5
00003e  b281              UXTH     r1,r0
000040  9000              STR      r0,[sp,#0]
000042  9801              LDR      r0,[sp,#4]
000044  b2c0              UXTB     r0,r0
000046  f7fffffe          BL       LCD_SetCursor
00004a  8027              STRH     r7,[r4,#0]
;;;635        LCD_WriteRAM_Prepare(); /* Prepare to write GRAM */
;;;636        LCD_WriteRAM(TextColor);
00004c  f8b80000          LDRH     r0,[r8,#0]  ; TextColor
000050  8060              STRH     r0,[r4,#2]
;;;637        LCD_SetCursor(Xpos - CurX, Ypos + CurY);
000052  9802              LDR      r0,[sp,#8]
000054  b281              UXTH     r1,r0
000056  ebab0006          SUB      r0,r11,r6
00005a  9001              STR      r0,[sp,#4]
00005c  b2c0              UXTB     r0,r0
00005e  f7fffffe          BL       LCD_SetCursor
000062  8027              STRH     r7,[r4,#0]
;;;638        LCD_WriteRAM_Prepare(); /* Prepare to write GRAM */
;;;639        LCD_WriteRAM(TextColor);
000064  f8b80000          LDRH     r0,[r8,#0]  ; TextColor
000068  8060              STRH     r0,[r4,#2]
;;;640        LCD_SetCursor(Xpos - CurX, Ypos - CurY);
00006a  9800              LDR      r0,[sp,#0]
00006c  b281              UXTH     r1,r0
00006e  9801              LDR      r0,[sp,#4]
000070  b2c0              UXTB     r0,r0
000072  f7fffffe          BL       LCD_SetCursor
000076  8027              STRH     r7,[r4,#0]
;;;641        LCD_WriteRAM_Prepare(); /* Prepare to write GRAM */
;;;642        LCD_WriteRAM(TextColor);
000078  f8b80000          LDRH     r0,[r8,#0]  ; TextColor
00007c  8060              STRH     r0,[r4,#2]
;;;643        LCD_SetCursor(Xpos + CurY, Ypos + CurX);
00007e  eb0a0006          ADD      r0,r10,r6
000082  b281              UXTH     r1,r0
000084  9002              STR      r0,[sp,#8]
000086  eb0b0005          ADD      r0,r11,r5
00008a  9001              STR      r0,[sp,#4]
00008c  b2c0              UXTB     r0,r0
00008e  f7fffffe          BL       LCD_SetCursor
000092  8027              STRH     r7,[r4,#0]
;;;644        LCD_WriteRAM_Prepare(); /* Prepare to write GRAM */
;;;645        LCD_WriteRAM(TextColor);
000094  f8b80000          LDRH     r0,[r8,#0]  ; TextColor
000098  8060              STRH     r0,[r4,#2]
;;;646        LCD_SetCursor(Xpos + CurY, Ypos - CurX);
00009a  ebaa0006          SUB      r0,r10,r6
00009e  b281              UXTH     r1,r0
0000a0  9000              STR      r0,[sp,#0]
0000a2  9801              LDR      r0,[sp,#4]
0000a4  b2c0              UXTB     r0,r0
0000a6  f7fffffe          BL       LCD_SetCursor
0000aa  8027              STRH     r7,[r4,#0]
;;;647        LCD_WriteRAM_Prepare(); /* Prepare to write GRAM */
;;;648        LCD_WriteRAM(TextColor);
0000ac  f8b80000          LDRH     r0,[r8,#0]  ; TextColor
0000b0  8060              STRH     r0,[r4,#2]
;;;649        LCD_SetCursor(Xpos - CurY, Ypos + CurX);
0000b2  9802              LDR      r0,[sp,#8]
0000b4  b281              UXTH     r1,r0
0000b6  ebab0005          SUB      r0,r11,r5
0000ba  9001              STR      r0,[sp,#4]
0000bc  b2c0              UXTB     r0,r0
0000be  f7fffffe          BL       LCD_SetCursor
0000c2  8027              STRH     r7,[r4,#0]
;;;650        LCD_WriteRAM_Prepare(); /* Prepare to write GRAM */
;;;651        LCD_WriteRAM(TextColor);
0000c4  f8b80000          LDRH     r0,[r8,#0]  ; TextColor
0000c8  8060              STRH     r0,[r4,#2]
;;;652        LCD_SetCursor(Xpos - CurY, Ypos - CurX);
0000ca  9800              LDR      r0,[sp,#0]
0000cc  b281              UXTH     r1,r0
0000ce  9801              LDR      r0,[sp,#4]
0000d0  b2c0              UXTB     r0,r0
0000d2  f7fffffe          BL       LCD_SetCursor
0000d6  8027              STRH     r7,[r4,#0]
;;;653        LCD_WriteRAM_Prepare(); /* Prepare to write GRAM */
;;;654        LCD_WriteRAM(TextColor);
0000d8  f8b80000          LDRH     r0,[r8,#0]  ; TextColor
0000dc  8060              STRH     r0,[r4,#2]
;;;655        if (D < 0)
0000de  f1b90f00          CMP      r9,#0
0000e2  da04              BGE      |L12.238|
;;;656        { 
;;;657          D += (CurX << 2) + 6;
0000e4  eb090086          ADD      r0,r9,r6,LSL #2
0000e8  f1000906          ADD      r9,r0,#6
0000ec  e005              B        |L12.250|
                  |L12.238|
;;;658        }
;;;659        else
;;;660        {
;;;661          D += ((CurX - CurY) << 2) + 10;
0000ee  1b71              SUBS     r1,r6,r5
0000f0  eb090081          ADD      r0,r9,r1,LSL #2
0000f4  f100090a          ADD      r9,r0,#0xa
0000f8  1e6d              SUBS     r5,r5,#1
                  |L12.250|
0000fa  1c76              ADDS     r6,r6,#1
                  |L12.252|
0000fc  42ae              CMP      r6,r5                 ;629
0000fe  d989              BLS      |L12.20|
;;;662          CurY--;
;;;663        }
;;;664        CurX++;
;;;665      }
;;;666    }
000100  e8bd8ffe          POP      {r1-r11,pc}
;;;667    
                          ENDP

                  |L12.260|
                          DCD      ||.data||

                          AREA ||i.LCD_DrawFullCircle||, CODE, READONLY, ALIGN=2

                  LCD_DrawFullCircle PROC
;;;769      */
;;;770    void LCD_DrawFullCircle(uint16_t Xpos, uint16_t Ypos, uint16_t Radius)
000000  e92d4ff7          PUSH     {r0-r2,r4-r11,lr}
;;;771    {
;;;772      int32_t  D;    /* Decision Variable */ 
;;;773      uint32_t  CurX;/* Current X Value */
;;;774      uint32_t  CurY;/* Current Y Value */ 
;;;775      
;;;776      D = 3 - (Radius << 1);
;;;777    
;;;778      CurX = 0;
;;;779      CurY = Radius;
;;;780      
;;;781      LCD_SetTextColor(BackColor);
000004  f8df90b8          LDR      r9,|L13.192|
000008  4690              MOV      r8,r2                 ;771
00000a  2103              MOVS     r1,#3                 ;776
00000c  eba10648          SUB      r6,r1,r8,LSL #1       ;776
000010  f8b91002          LDRH     r1,[r9,#2]  ; BackColor
000014  b081              SUB      sp,sp,#4              ;771
000016  4607              MOV      r7,r0                 ;771
000018  2400              MOVS     r4,#0                 ;778
00001a  4615              MOV      r5,r2                 ;779
00001c  f8ad1000          STRH     r1,[sp,#0]
000020  f8bd1000          LDRH     r1,[sp,#0]
000024  f8a91000          STRH     r1,[r9,#0]
;;;782    
;;;783      while (CurX <= CurY)
;;;784      {
;;;785        if(CurY > 0) 
;;;786        {
;;;787          LCD_DrawLine(Xpos - CurX, Ypos + CurY, 2*CurY, LCD_DIR_HORIZONTAL);
000028  f64f7aff          MOV      r10,#0xffff
00002c  e035              B        |L13.154|
                  |L13.46|
00002e  b19d              CBZ      r5,|L13.88|
000030  9802              LDR      r0,[sp,#8]
000032  ea0a0245          AND      r2,r10,r5,LSL #1
000036  4428              ADD      r0,r0,r5
000038  b281              UXTH     r1,r0
00003a  9000              STR      r0,[sp,#0]
00003c  1b38              SUBS     r0,r7,r4
00003e  4693              MOV      r11,r2
000040  b2c0              UXTB     r0,r0
000042  2300              MOVS     r3,#0
000044  f7fffffe          BL       LCD_DrawLine
;;;788          LCD_DrawLine(Xpos + CurX, Ypos + CurY, 2*CurY, LCD_DIR_HORIZONTAL);
000048  9800              LDR      r0,[sp,#0]
00004a  465a              MOV      r2,r11                ;787
00004c  b281              UXTH     r1,r0
00004e  1938              ADDS     r0,r7,r4
000050  b2c0              UXTB     r0,r0
000052  2300              MOVS     r3,#0
000054  f7fffffe          BL       LCD_DrawLine
                  |L13.88|
;;;789        }
;;;790    
;;;791        if(CurX > 0) 
000058  b19c              CBZ      r4,|L13.130|
;;;792        {
;;;793          LCD_DrawLine(Xpos - CurY, Ypos + CurX, 2*CurX, LCD_DIR_HORIZONTAL);
00005a  9802              LDR      r0,[sp,#8]
00005c  ea0a0244          AND      r2,r10,r4,LSL #1
000060  4420              ADD      r0,r0,r4
000062  b281              UXTH     r1,r0
000064  9000              STR      r0,[sp,#0]
000066  1b78              SUBS     r0,r7,r5
000068  4693              MOV      r11,r2
00006a  b2c0              UXTB     r0,r0
00006c  2300              MOVS     r3,#0
00006e  f7fffffe          BL       LCD_DrawLine
;;;794          LCD_DrawLine(Xpos + CurY, Ypos + CurX, 2*CurX, LCD_DIR_HORIZONTAL);
000072  9800              LDR      r0,[sp,#0]
000074  465a              MOV      r2,r11                ;793
000076  b281              UXTH     r1,r0
000078  1978              ADDS     r0,r7,r5
00007a  b2c0              UXTB     r0,r0
00007c  2300              MOVS     r3,#0
00007e  f7fffffe          BL       LCD_DrawLine
                  |L13.130|
;;;795        }
;;;796        if (D < 0)
000082  2e00              CMP      r6,#0
000084  da03              BGE      |L13.142|
;;;797        { 
;;;798          D += (CurX << 2) + 6;
000086  eb060684          ADD      r6,r6,r4,LSL #2
00008a  1db6              ADDS     r6,r6,#6
00008c  e004              B        |L13.152|
                  |L13.142|
;;;799        }
;;;800        else
;;;801        {
;;;802          D += ((CurX - CurY) << 2) + 10;
00008e  1b60              SUBS     r0,r4,r5
000090  eb060680          ADD      r6,r6,r0,LSL #2
000094  1e6d              SUBS     r5,r5,#1
000096  360a              ADDS     r6,r6,#0xa
                  |L13.152|
000098  1c64              ADDS     r4,r4,#1
                  |L13.154|
00009a  42ac              CMP      r4,r5                 ;783
00009c  d9c7              BLS      |L13.46|
;;;803          CurY--;
;;;804        }
;;;805        CurX++;
;;;806      }
;;;807    
;;;808      LCD_SetTextColor(TextColor);
00009e  f8b91000          LDRH     r1,[r9,#0]  ; TextColor
0000a2  f8ad1000          STRH     r1,[sp,#0]
0000a6  f8bd1000          LDRH     r1,[sp,#0]
0000aa  f8a91000          STRH     r1,[r9,#0]
;;;809      LCD_DrawCircle(Xpos, Ypos, Radius);
0000ae  9902              LDR      r1,[sp,#8]
0000b0  b004              ADD      sp,sp,#0x10
0000b2  b2f8              UXTB     r0,r7
0000b4  4642              MOV      r2,r8
0000b6  e8bd4ff0          POP      {r4-r11,lr}
0000ba  f7ffbffe          B.W      LCD_DrawCircle
;;;810    }
;;;811    
                          ENDP

0000be  0000              DCW      0x0000
                  |L13.192|
                          DCD      ||.data||

                          AREA ||i.LCD_DrawFullRect||, CODE, READONLY, ALIGN=2

                  LCD_DrawFullRect PROC
;;;738      */
;;;739    void LCD_DrawFullRect(uint16_t Xpos, uint16_t Ypos, uint16_t Width, uint16_t Height)
000000  e92d43f8          PUSH     {r3-r9,lr}
;;;740    {
;;;741      LCD_SetTextColor(TextColor);
000004  4d23              LDR      r5,|L14.148|
000006  4604              MOV      r4,r0                 ;740
000008  461e              MOV      r6,r3                 ;740
00000a  8828              LDRH     r0,[r5,#0]  ; TextColor
00000c  4617              MOV      r7,r2                 ;740
00000e  4688              MOV      r8,r1                 ;740
000010  f8ad0000          STRH     r0,[sp,#0]
000014  f8bd0000          LDRH     r0,[sp,#0]
000018  8028              STRH     r0,[r5,#0]
;;;742    
;;;743      LCD_DrawLine(Xpos, Ypos, Width, LCD_DIR_HORIZONTAL);
00001a  b2e0              UXTB     r0,r4
00001c  2300              MOVS     r3,#0
00001e  f7fffffe          BL       LCD_DrawLine
;;;744      LCD_DrawLine((Xpos + Height), Ypos, Width, LCD_DIR_HORIZONTAL);
000022  19a0              ADDS     r0,r4,r6
000024  b2c0              UXTB     r0,r0
000026  2300              MOVS     r3,#0
000028  463a              MOV      r2,r7
00002a  4641              MOV      r1,r8
00002c  f7fffffe          BL       LCD_DrawLine
;;;745      
;;;746      LCD_DrawLine(Xpos, Ypos, Height, LCD_DIR_VERTICAL);
000030  b2e0              UXTB     r0,r4
000032  2301              MOVS     r3,#1
000034  4632              MOV      r2,r6
000036  4641              MOV      r1,r8
000038  f7fffffe          BL       LCD_DrawLine
;;;747      LCD_DrawLine(Xpos, (Ypos - Width + 1), Height, LCD_DIR_VERTICAL);
00003c  eba80007          SUB      r0,r8,r7
000040  1c40              ADDS     r0,r0,#1
000042  b281              UXTH     r1,r0
000044  b2e0              UXTB     r0,r4
000046  2301              MOVS     r3,#1
000048  4632              MOV      r2,r6
00004a  f7fffffe          BL       LCD_DrawLine
00004e  1ebf              SUBS     r7,r7,#2
;;;748    
;;;749      Width -= 2;
000050  fa1ff987          UXTH     r9,r7
;;;750      Height--;
;;;751      Ypos--;
000054  f1a80001          SUB      r0,r8,#1
000058  b287              UXTH     r7,r0
00005a  1e76              SUBS     r6,r6,#1              ;749
;;;752    
;;;753      LCD_SetTextColor(BackColor);
00005c  8868              LDRH     r0,[r5,#2]  ; BackColor
00005e  b2b6              UXTH     r6,r6                 ;750
000060  f8ad0000          STRH     r0,[sp,#0]
000064  f8bd0000          LDRH     r0,[sp,#0]
000068  8028              STRH     r0,[r5,#0]
;;;754    
;;;755      while(Height--)
00006a  e007              B        |L14.124|
                  |L14.108|
00006c  1c64              ADDS     r4,r4,#1
;;;756      {
;;;757        LCD_DrawLine(++Xpos, Ypos, Width, LCD_DIR_HORIZONTAL);    
00006e  b2a4              UXTH     r4,r4
000070  b2e0              UXTB     r0,r4
000072  2300              MOVS     r3,#0
000074  464a              MOV      r2,r9
000076  4639              MOV      r1,r7
000078  f7fffffe          BL       LCD_DrawLine
                  |L14.124|
00007c  1e76              SUBS     r6,r6,#1              ;755
00007e  b2b6              UXTH     r6,r6                 ;755
000080  d2f4              BCS      |L14.108|
;;;758      }
;;;759    
;;;760      LCD_SetTextColor(TextColor);
000082  8828              LDRH     r0,[r5,#0]  ; TextColor
000084  f8ad0000          STRH     r0,[sp,#0]
000088  f8bd0000          LDRH     r0,[sp,#0]
00008c  8028              STRH     r0,[r5,#0]
;;;761    }
00008e  e8bd83f8          POP      {r3-r9,pc}
;;;762    
                          ENDP

000092  0000              DCW      0x0000
                  |L14.148|
                          DCD      ||.data||

                          AREA ||i.LCD_DrawLine||, CODE, READONLY, ALIGN=2

                  LCD_DrawLine PROC
;;;567      */
;;;568    void LCD_DrawLine(uint8_t Xpos, uint16_t Ypos, uint16_t Length, uint8_t Direction)
000000  e92d47f0          PUSH     {r4-r10,lr}
;;;569    {
000004  4698              MOV      r8,r3
000006  4617              MOV      r7,r2
000008  468a              MOV      r10,r1
00000a  4606              MOV      r6,r0
;;;570      uint32_t i = 0;
00000c  2400              MOVS     r4,#0
;;;571      
;;;572      LCD_SetCursor(Xpos, Ypos);
00000e  f7fffffe          BL       LCD_SetCursor
000012  2122              MOVS     r1,#0x22
;;;573      if(Direction == LCD_DIR_HORIZONTAL)
;;;574      {
;;;575        LCD_WriteRAM_Prepare(); /* Prepare to write GRAM */
;;;576        for(i = 0; i < Length; i++)
;;;577        {
;;;578          LCD_WriteRAM(TextColor);
000014  4810              LDR      r0,|L15.88|
000016  f04f45d8          MOV      r5,#0x6c000000
00001a  f1b80f00          CMP      r8,#0                 ;573
00001e  d002              BEQ      |L15.38|
000020  4689              MOV      r9,r1                 ;573
000022  4680              MOV      r8,r0
;;;579        }
;;;580      }
;;;581      else
;;;582      {
;;;583        for(i = 0; i < Length; i++)
000024  e014              B        |L15.80|
                  |L15.38|
000026  8029              STRH     r1,[r5,#0]
000028  e002              B        |L15.48|
                  |L15.42|
00002a  8801              LDRH     r1,[r0,#0]            ;578  ; TextColor
00002c  8069              STRH     r1,[r5,#2]            ;578
00002e  1c64              ADDS     r4,r4,#1              ;578
                  |L15.48|
000030  42bc              CMP      r4,r7                 ;576
000032  d3fa              BCC      |L15.42|
                  |L15.52|
;;;584        {
;;;585          LCD_WriteRAM_Prepare(); /* Prepare to write GRAM */
;;;586          LCD_WriteRAM(TextColor);
;;;587          Xpos++;
;;;588          LCD_SetCursor(Xpos, Ypos);
;;;589        }
;;;590      }
;;;591    }
000034  e8bd87f0          POP      {r4-r10,pc}
                  |L15.56|
000038  f8a59000          STRH     r9,[r5,#0]
00003c  f8b80000          LDRH     r0,[r8,#0]            ;586  ; TextColor
000040  8068              STRH     r0,[r5,#2]            ;586
000042  1c76              ADDS     r6,r6,#1              ;586
000044  b2f6              UXTB     r6,r6                 ;587
000046  4651              MOV      r1,r10                ;588
000048  4630              MOV      r0,r6                 ;588
00004a  f7fffffe          BL       LCD_SetCursor
00004e  1c64              ADDS     r4,r4,#1              ;588
                  |L15.80|
000050  42bc              CMP      r4,r7                 ;583
000052  d3f1              BCC      |L15.56|
000054  e7ee              B        |L15.52|
;;;592    
                          ENDP

000056  0000              DCW      0x0000
                  |L15.88|
                          DCD      ||.data||

                          AREA ||i.LCD_DrawMonoPict||, CODE, READONLY, ALIGN=2

                  LCD_DrawMonoPict PROC
;;;673      */
;;;674    void LCD_DrawMonoPict(const uint32_t *Pict)
000000  b5f0              PUSH     {r4-r7,lr}
;;;675    {
000002  4605              MOV      r5,r0
;;;676      uint32_t index = 0, i = 0;
000004  2400              MOVS     r4,#0
;;;677      LCD_SetCursor(0, (LCD_PIXEL_WIDTH - 1));
000006  f240113f          MOV      r1,#0x13f
00000a  4620              MOV      r0,r4
00000c  f7fffffe          BL       LCD_SetCursor
000010  f04f43d8          MOV      r3,#0x6c000000
000014  2022              MOVS     r0,#0x22
000016  8018              STRH     r0,[r3,#0]
;;;678      LCD_WriteRAM_Prepare(); /* Prepare to write GRAM */
;;;679      for(index = 0; index < 2400; index++)
;;;680      {
;;;681        for(i = 0; i < 32; i++)
;;;682        {
;;;683          if((Pict[index] & (1 << i)) == 0x00)
;;;684          {
;;;685            LCD_WriteRAM(BackColor);
000018  480b              LDR      r0,|L16.72|
00001a  2201              MOVS     r2,#1                 ;683
00001c  f44f6c16          MOV      r12,#0x960            ;679
                  |L16.32|
000020  f05f0100          MOVS.W   r1,#0                 ;681
                  |L16.36|
000024  f8557024          LDR      r7,[r5,r4,LSL #2]     ;683
000028  fa02f601          LSL      r6,r2,r1              ;683
00002c  4237              TST      r7,r6                 ;683
00002e  d101              BNE      |L16.52|
000030  8846              LDRH     r6,[r0,#2]  ; BackColor
000032  e000              B        |L16.54|
                  |L16.52|
;;;686          }
;;;687          else
;;;688          {
;;;689            LCD_WriteRAM(TextColor);
000034  8806              LDRH     r6,[r0,#0]  ; TextColor
                  |L16.54|
000036  805e              STRH     r6,[r3,#2]
000038  1c49              ADDS     r1,r1,#1
00003a  2920              CMP      r1,#0x20              ;681
00003c  d3f2              BCC      |L16.36|
00003e  1c64              ADDS     r4,r4,#1              ;681
000040  4564              CMP      r4,r12                ;679
000042  d3ed              BCC      |L16.32|
;;;690          }
;;;691        }
;;;692      }
;;;693    }
000044  bdf0              POP      {r4-r7,pc}
;;;694    
                          ENDP

000046  0000              DCW      0x0000
                  |L16.72|
                          DCD      ||.data||

                          AREA ||i.LCD_DrawRect||, CODE, READONLY, ALIGN=1

                  LCD_DrawRect PROC
;;;601      */
;;;602    void LCD_DrawRect(uint8_t Xpos, uint16_t Ypos, uint8_t Height, uint16_t Width)
000000  b5f0              PUSH     {r4-r7,lr}
;;;603    {
000002  461c              MOV      r4,r3
000004  4615              MOV      r5,r2
000006  460f              MOV      r7,r1
000008  4606              MOV      r6,r0
;;;604      LCD_DrawLine(Xpos, Ypos, Width, LCD_DIR_HORIZONTAL);
00000a  2300              MOVS     r3,#0
00000c  4622              MOV      r2,r4
00000e  f7fffffe          BL       LCD_DrawLine
;;;605      LCD_DrawLine((Xpos + Height), Ypos, Width, LCD_DIR_HORIZONTAL);
000012  1970              ADDS     r0,r6,r5
000014  b2c0              UXTB     r0,r0
000016  2300              MOVS     r3,#0
000018  4622              MOV      r2,r4
00001a  4639              MOV      r1,r7
00001c  f7fffffe          BL       LCD_DrawLine
;;;606      
;;;607      LCD_DrawLine(Xpos, Ypos, Height, LCD_DIR_VERTICAL);
000020  2301              MOVS     r3,#1
000022  462a              MOV      r2,r5
000024  4639              MOV      r1,r7
000026  4630              MOV      r0,r6
000028  f7fffffe          BL       LCD_DrawLine
;;;608      LCD_DrawLine(Xpos, (Ypos - Width + 1), Height, LCD_DIR_VERTICAL);
00002c  1b38              SUBS     r0,r7,r4
00002e  1c40              ADDS     r0,r0,#1
000030  b281              UXTH     r1,r0
000032  462a              MOV      r2,r5
000034  4630              MOV      r0,r6
000036  e8bd40f0          POP      {r4-r7,lr}
00003a  2301              MOVS     r3,#1
00003c  f7ffbffe          B.W      LCD_DrawLine
;;;609    }
;;;610    
                          ENDP


                          AREA ||i.LCD_DrawUniLine||, CODE, READONLY, ALIGN=1

                  LCD_DrawUniLine PROC
;;;819      */
;;;820    void LCD_DrawUniLine(uint16_t x1, uint16_t y1, uint16_t x2, uint16_t y2)
000000  e92d4ffe          PUSH     {r1-r11,lr}
;;;821    {
;;;822      int16_t deltax = 0, deltay = 0, x = 0, y = 0, xinc1 = 0, xinc2 = 0, 
;;;823      yinc1 = 0, yinc2 = 0, den = 0, num = 0, numadd = 0, numpixels = 0, 
;;;824      curpixel = 0;
000004  2700              MOVS     r7,#0
;;;825      
;;;826      deltax = ABS(x2 - x1);        /* The difference between the x's */
000006  1a14              SUBS     r4,r2,r0
000008  2c00              CMP      r4,#0
00000a  dc00              BGT      |L18.14|
00000c  1a84              SUBS     r4,r0,r2
                  |L18.14|
00000e  fa0ff884          SXTH     r8,r4
;;;827      deltay = ABS(y2 - y1);        /* The difference between the y's */
000012  1a5c              SUBS     r4,r3,r1
000014  2c00              CMP      r4,#0
000016  dc00              BGT      |L18.26|
000018  1acc              SUBS     r4,r1,r3
                  |L18.26|
00001a  fa0ffc84          SXTH     r12,r4
;;;828      x = x1;                       /* Start x off at the first pixel */
00001e  fa0ffb80          SXTH     r11,r0
;;;829      y = y1;                       /* Start y off at the first pixel */
000022  fa0ffa81          SXTH     r10,r1
;;;830      
;;;831      if (x2 >= x1)                 /* The x-values are increasing */
;;;832      {
;;;833        xinc1 = 1;
;;;834        xinc2 = 1;
;;;835      }
;;;836      else                          /* The x-values are decreasing */
;;;837      {
;;;838        xinc1 = -1;
000026  f04f35ff          MOV      r5,#0xffffffff
00002a  4282              CMP      r2,r0                 ;831
00002c  d303              BCC      |L18.54|
00002e  2001              MOVS     r0,#1                 ;833
000030  4681              MOV      r9,r0                 ;834
000032  9001              STR      r0,[sp,#4]            ;834
000034  e001              B        |L18.58|
                  |L18.54|
;;;839        xinc2 = -1;
000036  46a9              MOV      r9,r5
000038  9501              STR      r5,[sp,#4]
                  |L18.58|
;;;840      }
;;;841      
;;;842      if (y2 >= y1)                 /* The y-values are increasing */
00003a  428b              CMP      r3,r1
00003c  d303              BCC      |L18.70|
;;;843      {
;;;844        yinc1 = 1;
00003e  2001              MOVS     r0,#1
;;;845        yinc2 = 1;
000040  4605              MOV      r5,r0
000042  9000              STR      r0,[sp,#0]
000044  e000              B        |L18.72|
                  |L18.70|
;;;846      }
;;;847      else                          /* The y-values are decreasing */
;;;848      {
;;;849        yinc1 = -1;
000046  9500              STR      r5,[sp,#0]
                  |L18.72|
;;;850        yinc2 = -1;
;;;851      }
;;;852      
;;;853      if (deltax >= deltay)         /* There is at least one x-value for every y-value */
000048  45e0              CMP      r8,r12
;;;854      {
;;;855        xinc1 = 0;                  /* Don't change the x when numerator >= denominator */
;;;856        yinc2 = 0;                  /* Don't change the y for every iteration */
;;;857        den = deltax;
;;;858        num = deltax / 2;
;;;859        numadd = deltay;
;;;860        numpixels = deltax;         /* There are more x-values than y-values */
;;;861      }
;;;862      else                          /* There is at least one y-value for every x-value */
;;;863      {
;;;864        xinc2 = 0;                  /* Don't change the x for every iteration */
00004a  f04f0000          MOV      r0,#0
00004e  db08              BLT      |L18.98|
000050  9001              STR      r0,[sp,#4]            ;858
000052  2500              MOVS     r5,#0                 ;856
000054  eb0870d8          ADD      r0,r8,r8,LSR #31      ;858
000058  4644              MOV      r4,r8                 ;858
00005a  1046              ASRS     r6,r0,#1              ;858
00005c  f8cdc008          STR      r12,[sp,#8]           ;860
000060  e028              B        |L18.180|
                  |L18.98|
000062  4681              MOV      r9,r0
;;;865        yinc1 = 0;                  /* Don't change the y when numerator >= denominator */
000064  2000              MOVS     r0,#0
;;;866        den = deltay;
;;;867        num = deltay / 2;
000066  9000              STR      r0,[sp,#0]
000068  eb0c70dc          ADD      r0,r12,r12,LSR #31
00006c  4664              MOV      r4,r12
00006e  1046              ASRS     r6,r0,#1
;;;868        numadd = deltax;
;;;869        numpixels = deltay;         /* There are more y-values than x-values */
000070  f8cd8008          STR      r8,[sp,#8]
000074  e01e              B        |L18.180|
                  |L18.118|
;;;870      }
;;;871      
;;;872      for (curpixel = 0; curpixel <= numpixels; curpixel++)
;;;873      {
;;;874        PutPixel(x, y);             /* Draw the current pixel */
000076  4651              MOV      r1,r10
000078  4658              MOV      r0,r11
00007a  f7fffffe          BL       PutPixel
;;;875        num += numadd;              /* Increase the numerator by the top of the fraction */
00007e  9802              LDR      r0,[sp,#8]
000080  4430              ADD      r0,r0,r6
000082  b206              SXTH     r6,r0
;;;876        if (num >= den)             /* Check if numerator >= denominator */
000084  42a6              CMP      r6,r4
000086  db0b              BLT      |L18.160|
;;;877        {
;;;878          num -= den;               /* Calculate the new numerator value */
000088  1b30              SUBS     r0,r6,r4
;;;879          x += xinc1;               /* Change the x as appropriate */
00008a  9901              LDR      r1,[sp,#4]
00008c  b206              SXTH     r6,r0                 ;878
00008e  eb0b0001          ADD      r0,r11,r1
;;;880          y += yinc1;               /* Change the y as appropriate */
000092  9900              LDR      r1,[sp,#0]
000094  fa0ffb80          SXTH     r11,r0                ;879
000098  eb0a0001          ADD      r0,r10,r1
00009c  fa0ffa80          SXTH     r10,r0
                  |L18.160|
;;;881        }
;;;882        x += xinc2;                 /* Change the x as appropriate */
0000a0  eb0b0009          ADD      r0,r11,r9
0000a4  fa0ffb80          SXTH     r11,r0
;;;883        y += yinc2;                 /* Change the y as appropriate */
0000a8  eb0a0005          ADD      r0,r10,r5
0000ac  1c7f              ADDS     r7,r7,#1
0000ae  fa0ffa80          SXTH     r10,r0
0000b2  b23f              SXTH     r7,r7                 ;872
                  |L18.180|
0000b4  42a7              CMP      r7,r4                 ;872
0000b6  ddde              BLE      |L18.118|
;;;884      }
;;;885    }
0000b8  e8bd8ffe          POP      {r1-r11,pc}
;;;886    
                          ENDP


                          AREA ||i.LCD_FSMCConfig||, CODE, READONLY, ALIGN=1

                  LCD_FSMCConfig PROC
;;;1241     */
;;;1242   void LCD_FSMCConfig(void)
000000  b500              PUSH     {lr}
;;;1243   {
000002  b095              SUB      sp,sp,#0x54
;;;1244     FSMC_NORSRAMInitTypeDef  FSMC_NORSRAMInitStructure;
;;;1245     FSMC_NORSRAMTimingInitTypeDef  p;
;;;1246   /*-- FSMC Configuration ------------------------------------------------------*/
;;;1247   /*----------------------- SRAM Bank 4 ----------------------------------------*/
;;;1248     /* FSMC_Bank1_NORSRAM4 configuration */
;;;1249     p.FSMC_AddressSetupTime = 1;
000004  2001              MOVS     r0,#1
;;;1250     p.FSMC_AddressHoldTime = 0;
000006  900e              STR      r0,[sp,#0x38]
000008  2000              MOVS     r0,#0
;;;1251     p.FSMC_DataSetupTime = 2;
00000a  2102              MOVS     r1,#2
00000c  e9cd010f          STRD     r0,r1,[sp,#0x3c]
;;;1252     p.FSMC_BusTurnAroundDuration = 0;
;;;1253     p.FSMC_CLKDivision = 0;
;;;1254     p.FSMC_DataLatency = 0;
;;;1255     p.FSMC_AccessMode = FSMC_AccessMode_A;
;;;1256     /* Color LCD configuration ------------------------------------
;;;1257        LCD configured as follow:
;;;1258           - Data/Address MUX = Disable
;;;1259           - Memory Type = SRAM
;;;1260           - Data Width = 16bit
;;;1261           - Write Operation = Enable
;;;1262           - Extended Mode = Enable
;;;1263           - Asynchronous Wait = Disable */
;;;1264     FSMC_NORSRAMInitStructure.FSMC_Bank = FSMC_Bank1_NORSRAM4;
000010  2106              MOVS     r1,#6
000012  9014              STR      r0,[sp,#0x50]
000014  e9cd1000          STRD     r1,r0,[sp,#0]
000018  9011              STR      r0,[sp,#0x44]         ;1253
00001a  9012              STR      r0,[sp,#0x48]         ;1254
;;;1265     FSMC_NORSRAMInitStructure.FSMC_DataAddressMux = FSMC_DataAddressMux_Disable;
;;;1266     FSMC_NORSRAMInitStructure.FSMC_MemoryType = FSMC_MemoryType_SRAM;
;;;1267     FSMC_NORSRAMInitStructure.FSMC_MemoryDataWidth = FSMC_MemoryDataWidth_16b;
00001c  2110              MOVS     r1,#0x10
00001e  9013              STR      r0,[sp,#0x4c]         ;1255
000020  e9cd0102          STRD     r0,r1,[sp,#8]
;;;1268     FSMC_NORSRAMInitStructure.FSMC_BurstAccessMode = FSMC_BurstAccessMode_Disable;
;;;1269     FSMC_NORSRAMInitStructure.FSMC_WaitSignalPolarity = FSMC_WaitSignalPolarity_Low;
000024  9004              STR      r0,[sp,#0x10]
;;;1270     FSMC_NORSRAMInitStructure.FSMC_WrapMode = FSMC_WrapMode_Disable;
000026  9005              STR      r0,[sp,#0x14]
;;;1271     FSMC_NORSRAMInitStructure.FSMC_WaitSignalActive = FSMC_WaitSignalActive_BeforeWaitState;
;;;1272     FSMC_NORSRAMInitStructure.FSMC_WriteOperation = FSMC_WriteOperation_Enable;
000028  0209              LSLS     r1,r1,#8
00002a  9006              STR      r0,[sp,#0x18]
00002c  e9cd0107          STRD     r0,r1,[sp,#0x1c]
;;;1273     FSMC_NORSRAMInitStructure.FSMC_WaitSignal = FSMC_WaitSignal_Disable;
;;;1274     FSMC_NORSRAMInitStructure.FSMC_ExtendedMode = FSMC_ExtendedMode_Disable;
000030  9009              STR      r0,[sp,#0x24]
;;;1275     FSMC_NORSRAMInitStructure.FSMC_WriteBurst = FSMC_WriteBurst_Disable;
000032  900a              STR      r0,[sp,#0x28]
;;;1276     FSMC_NORSRAMInitStructure.FSMC_ReadWriteTimingStruct = &p;
000034  900b              STR      r0,[sp,#0x2c]
000036  a80e              ADD      r0,sp,#0x38
;;;1277     FSMC_NORSRAMInitStructure.FSMC_WriteTimingStruct = &p;
000038  900c              STR      r0,[sp,#0x30]
;;;1278     FSMC_NORSRAMInit(&FSMC_NORSRAMInitStructure);  
00003a  900d              STR      r0,[sp,#0x34]
00003c  4668              MOV      r0,sp
00003e  f7fffffe          BL       FSMC_NORSRAMInit
;;;1279     /* BANK 4 (of NOR/SRAM Bank 1~4) is enabled */
;;;1280     FSMC_NORSRAMCmd(FSMC_Bank1_NORSRAM4, ENABLE);
000042  2101              MOVS     r1,#1
000044  2006              MOVS     r0,#6
000046  f7fffffe          BL       FSMC_NORSRAMCmd
;;;1281   }
00004a  b015              ADD      sp,sp,#0x54
00004c  bd00              POP      {pc}
;;;1282    #endif
                          ENDP


                          AREA ||i.LCD_FillPolyLine||, CODE, READONLY, ALIGN=2

                  LCD_FillPolyLine PROC
;;;983      */
;;;984    void LCD_FillPolyLine(pPoint Points, uint16_t PointCount)
000000  e92d4ff0          PUSH     {r4-r11,lr}
;;;985    {
000004  b0f1              SUB      sp,sp,#0x1c4
;;;986      /*  public-domain code by Darel Rex Finley, 2007 */
;;;987      uint16_t  nodes = 0, nodeX[MAX_POLY_CORNERS], pixelX = 0, pixelY = 0, i = 0,
;;;988      j = 0, swap = 0;
;;;989      uint16_t  IMAGE_LEFT = 0, IMAGE_RIGHT = 0, IMAGE_TOP = 0, IMAGE_BOTTOM = 0;
;;;990    
;;;991      IMAGE_LEFT = IMAGE_RIGHT = Points->X;
000006  f8b0a000          LDRH     r10,[r0,#0]
00000a  4604              MOV      r4,r0                 ;985
;;;992      IMAGE_TOP= IMAGE_BOTTOM = Points->Y;
00000c  f8cda1a0          STR      r10,[sp,#0x1a0]
000010  8840              LDRH     r0,[r0,#2]
000012  460e              MOV      r6,r1                 ;985
000014  4683              MOV      r11,r0
;;;993    
;;;994      for(i = 1; i < PointCount; i++)
000016  2101              MOVS     r1,#1
000018  e014              B        |L20.68|
;;;995      {
;;;996        pixelX = POLY_X(i);
00001a  bf00              NOP      
                  |L20.28|
00001c  eb040281          ADD      r2,r4,r1,LSL #2
;;;997        if(pixelX < IMAGE_LEFT)
000020  9b68              LDR      r3,[sp,#0x1a0]
000022  8852              LDRH     r2,[r2,#2]            ;996
000024  429a              CMP      r2,r3
000026  d200              BCS      |L20.42|
;;;998        {
;;;999          IMAGE_LEFT = pixelX;
000028  9268              STR      r2,[sp,#0x1a0]
                  |L20.42|
;;;1000       }
;;;1001       if(pixelX > IMAGE_RIGHT)
00002a  4552              CMP      r2,r10
00002c  d900              BLS      |L20.48|
;;;1002       {
;;;1003         IMAGE_RIGHT = pixelX;
00002e  4692              MOV      r10,r2
                  |L20.48|
;;;1004       }
;;;1005       
;;;1006       pixelY = POLY_Y(i);
000030  f8342021          LDRH     r2,[r4,r1,LSL #2]
;;;1007       if(pixelY < IMAGE_TOP)
000034  4282              CMP      r2,r0
000036  d200              BCS      |L20.58|
;;;1008       { 
;;;1009         IMAGE_TOP = pixelY;
000038  4610              MOV      r0,r2
                  |L20.58|
;;;1010       }
;;;1011       if(pixelY > IMAGE_BOTTOM)
00003a  455a              CMP      r2,r11
00003c  d900              BLS      |L20.64|
;;;1012       {
;;;1013         IMAGE_BOTTOM = pixelY;
00003e  4693              MOV      r11,r2
                  |L20.64|
000040  1c49              ADDS     r1,r1,#1
000042  b289              UXTH     r1,r1                 ;994
                  |L20.68|
000044  42b1              CMP      r1,r6                 ;994
000046  d3e9              BCC      |L20.28|
;;;1014       }
;;;1015     }
;;;1016     
;;;1017     LCD_SetTextColor(BackColor);  
000048  4965              LDR      r1,|L20.480|
00004a  884a              LDRH     r2,[r1,#2]  ; BackColor
00004c  f8ad2190          STRH     r2,[sp,#0x190]
000050  f8bd2190          LDRH     r2,[sp,#0x190]
000054  800a              STRH     r2,[r1,#0]
;;;1018   
;;;1019     /*  Loop through the rows of the image. */
;;;1020     for (pixelY = IMAGE_TOP; pixelY < IMAGE_BOTTOM; pixelY++) 
000056  e0b4              B        |L20.450|
                  |L20.88|
;;;1021     {  
;;;1022       /* Build a list of nodes. */
;;;1023       nodes = 0; j = PointCount-1;
000058  2500              MOVS     r5,#0
00005a  1e70              SUBS     r0,r6,#1
00005c  fa1ff880          UXTH     r8,r0
;;;1024   
;;;1025       for (i = 0; i < PointCount; i++) 
000060  462f              MOV      r7,r5
000062  e051              B        |L20.264|
                  |L20.100|
;;;1026       {
;;;1027         if (POLY_Y(i)<(double) pixelY && POLY_Y(j)>=(double) pixelY || POLY_Y(j)<(double) pixelY && POLY_Y(i)>=(double) pixelY) 
000064  4648              MOV      r0,r9
000066  f7fffffe          BL       __aeabi_ui2d
00006a  e9cd016a          STRD     r0,r1,[sp,#0x1a8]
00006e  e9cd016e          STRD     r0,r1,[sp,#0x1b8]
000072  f9340027          LDRSH    r0,[r4,r7,LSL #2]
000076  f7fffffe          BL       __aeabi_i2d
00007a  e9dd236e          LDRD     r2,r3,[sp,#0x1b8]
00007e  f7fffffe          BL       __aeabi_cdcmple
000082  d20c              BCS      |L20.158|
000084  e9dd126a          LDRD     r1,r2,[sp,#0x1a8]
000088  e9cd126e          STRD     r1,r2,[sp,#0x1b8]
00008c  f9340028          LDRSH    r0,[r4,r8,LSL #2]
000090  f7fffffe          BL       __aeabi_i2d
000094  e9dd236e          LDRD     r2,r3,[sp,#0x1b8]
000098  f7fffffe          BL       __aeabi_cdrcmple
00009c  d919              BLS      |L20.210|
                  |L20.158|
00009e  e9dd016a          LDRD     r0,r1,[sp,#0x1a8]
0000a2  e9cd016e          STRD     r0,r1,[sp,#0x1b8]
0000a6  f9340028          LDRSH    r0,[r4,r8,LSL #2]
0000aa  f7fffffe          BL       __aeabi_i2d
0000ae  e9dd236e          LDRD     r2,r3,[sp,#0x1b8]
0000b2  f7fffffe          BL       __aeabi_cdcmple
0000b6  d224              BCS      |L20.258|
0000b8  e9dd016a          LDRD     r0,r1,[sp,#0x1a8]
0000bc  e9cd016c          STRD     r0,r1,[sp,#0x1b0]
0000c0  f9340027          LDRSH    r0,[r4,r7,LSL #2]
0000c4  f7fffffe          BL       __aeabi_i2d
0000c8  e9dd236c          LDRD     r2,r3,[sp,#0x1b0]
0000cc  f7fffffe          BL       __aeabi_cdrcmple
0000d0  d817              BHI      |L20.258|
                  |L20.210|
;;;1028         {
;;;1029           nodeX[nodes++]=(int) (POLY_X(i)+((pixelY-POLY_Y(i))*(POLY_X(j)-POLY_X(i)))/(POLY_Y(j)-POLY_Y(i))); 
0000d2  eb040088          ADD      r0,r4,r8,LSL #2
0000d6  f9b01002          LDRSH    r1,[r0,#2]
0000da  eb040087          ADD      r0,r4,r7,LSL #2
0000de  f9b00002          LDRSH    r0,[r0,#2]
0000e2  1a0a              SUBS     r2,r1,r0
0000e4  f9341027          LDRSH    r1,[r4,r7,LSL #2]
0000e8  eba90301          SUB      r3,r9,r1
0000ec  435a              MULS     r2,r3,r2
0000ee  f9343028          LDRSH    r3,[r4,r8,LSL #2]
0000f2  1a59              SUBS     r1,r3,r1
0000f4  fb92f1f1          SDIV     r1,r2,r1
0000f8  4408              ADD      r0,r0,r1
0000fa  f82d0015          STRH     r0,[sp,r5,LSL #1]
0000fe  1c6d              ADDS     r5,r5,#1
000100  b2ad              UXTH     r5,r5
                  |L20.258|
;;;1030         }
;;;1031         j = i; 
000102  46b8              MOV      r8,r7
000104  1c7f              ADDS     r7,r7,#1              ;1025
000106  b2bf              UXTH     r7,r7                 ;1025
                  |L20.264|
000108  42b7              CMP      r7,r6                 ;1025
00010a  d3ab              BCC      |L20.100|
;;;1032       }
;;;1033     
;;;1034       /* Sort the nodes, via a simple Bubble sort. */
;;;1035       i = 0;
00010c  2000              MOVS     r0,#0
;;;1036       while (i < nodes-1) 
00010e  1e6a              SUBS     r2,r5,#1
000110  e00f              B        |L20.306|
                  |L20.274|
;;;1037       {
;;;1038         if (nodeX[i]>nodeX[i+1]) 
000112  4669              MOV      r1,sp
000114  eb010c40          ADD      r12,r1,r0,LSL #1
000118  f83d3010          LDRH     r3,[sp,r0,LSL #1]
00011c  f8bc7002          LDRH     r7,[r12,#2]
000120  42bb              CMP      r3,r7
000122  d90a              BLS      |L20.314|
;;;1039         {
;;;1040           swap = nodeX[i]; 
;;;1041           nodeX[i] = nodeX[i+1]; 
000124  f8217010          STRH     r7,[r1,r0,LSL #1]
;;;1042           nodeX[i+1] = swap; 
000128  f8ac3002          STRH     r3,[r12,#2]
;;;1043           if(i)
00012c  b108              CBZ      r0,|L20.306|
00012e  1e40              SUBS     r0,r0,#1
                  |L20.304|
;;;1044           {
;;;1045             i--; 
;;;1046           }
;;;1047         }
;;;1048         else 
;;;1049         {
;;;1050           i++;
000130  b280              UXTH     r0,r0
                  |L20.306|
000132  4290              CMP      r0,r2                 ;1036
000134  dbed              BLT      |L20.274|
;;;1051         }
;;;1052       }
;;;1053     
;;;1054       /*  Fill the pixels between node pairs. */
;;;1055       for (i = 0; i < nodes; i+=2) 
000136  2700              MOVS     r7,#0
000138  e03e              B        |L20.440|
                  |L20.314|
00013a  1c40              ADDS     r0,r0,#1
00013c  e7f8              B        |L20.304|
                  |L20.318|
;;;1056       {
;;;1057         if(nodeX[i] >= IMAGE_RIGHT) 
00013e  f83d1017          LDRH     r1,[sp,r7,LSL #1]
000142  4668              MOV      r0,sp
000144  4551              CMP      r1,r10
000146  d239              BCS      |L20.444|
;;;1058         {
;;;1059           break;
;;;1060         }
;;;1061         if(nodeX[i+1] > IMAGE_LEFT) 
000148  eb000847          ADD      r8,r0,r7,LSL #1
00014c  9b68              LDR      r3,[sp,#0x1a0]
00014e  f8b82002          LDRH     r2,[r8,#2]
000152  429a              CMP      r2,r3
000154  d92e              BLS      |L20.436|
;;;1062         {
;;;1063           if (nodeX[i] < IMAGE_LEFT)
000156  4299              CMP      r1,r3
000158  d201              BCS      |L20.350|
;;;1064           {
;;;1065             nodeX[i]=IMAGE_LEFT;
00015a  f8203017          STRH     r3,[r0,r7,LSL #1]
                  |L20.350|
;;;1066           }
;;;1067           if(nodeX[i+1] > IMAGE_RIGHT)
00015e  4552              CMP      r2,r10
000160  d901              BLS      |L20.358|
;;;1068           {
;;;1069             nodeX[i+1] = IMAGE_RIGHT;
000162  f8a8a002          STRH     r10,[r8,#2]
                  |L20.358|
;;;1070           }
;;;1071           LCD_SetTextColor(BackColor);
000166  491e              LDR      r1,|L20.480|
000168  8849              LDRH     r1,[r1,#2]  ; BackColor
00016a  f8ad11ac          STRH     r1,[sp,#0x1ac]
00016e  f8bd21ac          LDRH     r2,[sp,#0x1ac]
000172  491b              LDR      r1,|L20.480|
000174  800a              STRH     r2,[r1,#0]
;;;1072           LCD_DrawLine(pixelY, nodeX[i+1], nodeX[i+1] - nodeX[i], LCD_DIR_HORIZONTAL);
000176  f8b81002          LDRH     r1,[r8,#2]
00017a  f83d0017          LDRH     r0,[sp,r7,LSL #1]
00017e  2300              MOVS     r3,#0
000180  1a08              SUBS     r0,r1,r0
000182  b282              UXTH     r2,r0
000184  f00900ff          AND      r0,r9,#0xff
000188  f7fffffe          BL       LCD_DrawLine
;;;1073           LCD_SetTextColor(TextColor);
00018c  4814              LDR      r0,|L20.480|
00018e  8800              LDRH     r0,[r0,#0]  ; TextColor
000190  f8ad01ac          STRH     r0,[sp,#0x1ac]
000194  f8bd11ac          LDRH     r1,[sp,#0x1ac]
000198  4811              LDR      r0,|L20.480|
00019a  8001              STRH     r1,[r0,#0]
;;;1074           PutPixel(pixelY, nodeX[i+1]);
00019c  f9b81002          LDRSH    r1,[r8,#2]
0001a0  fa0ff089          SXTH     r0,r9
0001a4  4680              MOV      r8,r0
0001a6  f7fffffe          BL       PutPixel
;;;1075           PutPixel(pixelY, nodeX[i]);
0001aa  f93d1017          LDRSH    r1,[sp,r7,LSL #1]
0001ae  4640              MOV      r0,r8
0001b0  f7fffffe          BL       PutPixel
                  |L20.436|
0001b4  1cbf              ADDS     r7,r7,#2
0001b6  b2bf              UXTH     r7,r7                 ;1055
                  |L20.440|
0001b8  42af              CMP      r7,r5                 ;1055
0001ba  d3c0              BCC      |L20.318|
                  |L20.444|
0001bc  f1090001          ADD      r0,r9,#1              ;1020
0001c0  b280              UXTH     r0,r0                 ;1020
                  |L20.450|
0001c2  4681              MOV      r9,r0                 ;1020
0001c4  4558              CMP      r0,r11                ;1020
0001c6  f4ffaf47          BCC      |L20.88|
;;;1076           /* for (j=nodeX[i]; j<nodeX[i+1]; j++) PutPixel(j,pixelY); */
;;;1077         }
;;;1078       }
;;;1079     } 
;;;1080   
;;;1081     /* draw the edges */
;;;1082     LCD_SetTextColor(TextColor);
0001ca  4805              LDR      r0,|L20.480|
0001cc  8801              LDRH     r1,[r0,#0]  ; TextColor
0001ce  f8ad1190          STRH     r1,[sp,#0x190]
0001d2  f8bd1190          LDRH     r1,[sp,#0x190]
0001d6  8001              STRH     r1,[r0,#0]
;;;1083   }
0001d8  b071              ADD      sp,sp,#0x1c4
0001da  e8bd8ff0          POP      {r4-r11,pc}
;;;1084   #if 1
                          ENDP

0001de  0000              DCW      0x0000
                  |L20.480|
                          DCD      ||.data||

                          AREA ||i.LCD_GetColors||, CODE, READONLY, ALIGN=2

                  LCD_GetColors PROC
;;;332      */
;;;333    void LCD_GetColors(__IO uint16_t *_TextColor, __IO uint16_t *_BackColor)
000000  4a02              LDR      r2,|L21.12|
;;;334    {
;;;335      *_TextColor = TextColor; *_BackColor = BackColor;
000002  8813              LDRH     r3,[r2,#0]  ; TextColor
000004  8003              STRH     r3,[r0,#0]
000006  8850              LDRH     r0,[r2,#2]  ; BackColor
000008  8008              STRH     r0,[r1,#0]
;;;336    }
00000a  4770              BX       lr
;;;337    
                          ENDP

                  |L21.12|
                          DCD      ||.data||

                          AREA ||i.LCD_GetFont||, CODE, READONLY, ALIGN=2

                  LCD_GetFont PROC
;;;373      */
;;;374    sFONT *LCD_GetFont(void)
000000  4801              LDR      r0,|L22.8|
;;;375    {
;;;376      return LCD_Currentfonts;
000002  6840              LDR      r0,[r0,#4]  ; LCD_Currentfonts
;;;377    }
000004  4770              BX       lr
;;;378    
                          ENDP

000006  0000              DCW      0x0000
                  |L22.8|
                          DCD      ||.data||

                          AREA ||i.LCD_PolyLine||, CODE, READONLY, ALIGN=1

                  LCD_PolyLine PROC
;;;892      */
;;;893    void LCD_PolyLine(pPoint Points, uint16_t PointCount)
000000  b570              PUSH     {r4-r6,lr}
;;;894    {
000002  460d              MOV      r5,r1
000004  4604              MOV      r4,r0
;;;895      int16_t X = 0, Y = 0;
;;;896    
;;;897      if(PointCount < 2)
000006  2902              CMP      r1,#2
000008  d30e              BCC      |L23.40|
00000a  e009              B        |L23.32|
                  |L23.12|
;;;898      {
;;;899        return;
;;;900      }
;;;901    
;;;902      while(--PointCount)
;;;903      {
;;;904        X = Points->X;
00000c  f8340b02          LDRH     r0,[r4],#2
;;;905        Y = Points->Y;
000010  f8341b02          LDRH     r1,[r4],#2
;;;906        Points++;
;;;907        LCD_DrawUniLine(X, Y, Points->X, Points->Y);
000014  b280              UXTH     r0,r0
000016  8863              LDRH     r3,[r4,#2]
000018  8822              LDRH     r2,[r4,#0]
00001a  b289              UXTH     r1,r1
00001c  f7fffffe          BL       LCD_DrawUniLine
                  |L23.32|
000020  1e6d              SUBS     r5,r5,#1
000022  042d              LSLS     r5,r5,#16             ;902
000024  0c2d              LSRS     r5,r5,#16             ;902
000026  d1f1              BNE      |L23.12|
                  |L23.40|
;;;908      }
;;;909    }
000028  bd70              POP      {r4-r6,pc}
;;;910    
                          ENDP


                          AREA ||i.LCD_PolyLineRelative||, CODE, READONLY, ALIGN=1

                  LCD_PolyLineRelative PROC
;;;960      */
;;;961    void LCD_PolyLineRelative(pPoint Points, uint16_t PointCount)
000000  2200              MOVS     r2,#0
;;;962    {
;;;963      LCD_PolyLineRelativeClosed(Points, PointCount, 0);
000002  f7ffbffe          B.W      LCD_PolyLineRelativeClosed
;;;964    }
;;;965    
                          ENDP


                          AREA ||i.LCD_PolyLineRelativeClosed||, CODE, READONLY, ALIGN=1

                  LCD_PolyLineRelativeClosed PROC
;;;918      */
;;;919    static void LCD_PolyLineRelativeClosed(pPoint Points, uint16_t PointCount, uint16_t Closed)
000000  e92d47f0          PUSH     {r4-r10,lr}
;;;920    {
000004  4691              MOV      r9,r2
000006  460f              MOV      r7,r1
000008  4604              MOV      r4,r0
;;;921      int16_t X = 0, Y = 0;
;;;922      pPoint First = Points;
00000a  4680              MOV      r8,r0
;;;923    
;;;924      if(PointCount < 2)
00000c  2902              CMP      r1,#2
00000e  d326              BCC      |L25.94|
;;;925      {
;;;926        return;
;;;927      }  
;;;928      X = Points->X;
000010  f9b46000          LDRSH    r6,[r4,#0]
;;;929      Y = Points->Y;
000014  f9b45002          LDRSH    r5,[r4,#2]
;;;930      while(--PointCount)
000018  e010              B        |L25.60|
                  |L25.26|
;;;931      {
;;;932        Points++;
;;;933        LCD_DrawUniLine(X, Y, X + Points->X, Y + Points->Y);
00001a  88e0              LDRH     r0,[r4,#6]
00001c  b2a9              UXTH     r1,r5
00001e  4428              ADD      r0,r0,r5
000020  b283              UXTH     r3,r0
000022  f8340f04          LDRH     r0,[r4,#4]!
000026  4430              ADD      r0,r0,r6
000028  b282              UXTH     r2,r0
00002a  b2b0              UXTH     r0,r6
00002c  f7fffffe          BL       LCD_DrawUniLine
;;;934        X = X + Points->X;
000030  8820              LDRH     r0,[r4,#0]
000032  4430              ADD      r0,r0,r6
000034  b206              SXTH     r6,r0
;;;935        Y = Y + Points->Y;
000036  8860              LDRH     r0,[r4,#2]
000038  4428              ADD      r0,r0,r5
00003a  b205              SXTH     r5,r0
                  |L25.60|
00003c  1e7f              SUBS     r7,r7,#1
00003e  043f              LSLS     r7,r7,#16             ;930
000040  0c3f              LSRS     r7,r7,#16             ;930
000042  d1ea              BNE      |L25.26|
;;;936      }
;;;937      if(Closed)
000044  f1b90f00          CMP      r9,#0
000048  d009              BEQ      |L25.94|
;;;938      {
;;;939        LCD_DrawUniLine(First->X, First->Y, X, Y);
00004a  b2ab              UXTH     r3,r5
00004c  b2b2              UXTH     r2,r6
00004e  f8b81002          LDRH     r1,[r8,#2]
000052  f8b80000          LDRH     r0,[r8,#0]
000056  e8bd47f0          POP      {r4-r10,lr}
00005a  f7ffbffe          B.W      LCD_DrawUniLine
                  |L25.94|
;;;940      }  
;;;941    }
00005e  e8bd87f0          POP      {r4-r10,pc}
;;;942    
                          ENDP


                          AREA ||i.LCD_PowerOn||, CODE, READONLY, ALIGN=1

                  LCD_PowerOn PROC
;;;1155     */
;;;1156   void LCD_PowerOn(void)
000000  b510              PUSH     {r4,lr}
;;;1157   {
;;;1158   /* Power On sequence ---------------------------------------------------------*/
;;;1159     LCD_WriteReg(LCD_REG_16, 0x0000); /* SAP, BT[3:0], AP, DSTB, SLP, STB */
000002  2100              MOVS     r1,#0
000004  2010              MOVS     r0,#0x10
000006  f7fffffe          BL       LCD_WriteReg
;;;1160     LCD_WriteReg(LCD_REG_17, 0x0000); /* DC1[2:0], DC0[2:0], VC[2:0] */
00000a  2100              MOVS     r1,#0
00000c  2011              MOVS     r0,#0x11
00000e  f7fffffe          BL       LCD_WriteReg
;;;1161     LCD_WriteReg(LCD_REG_18, 0x0000); /* VREG1OUT voltage */
000012  2100              MOVS     r1,#0
000014  2012              MOVS     r0,#0x12
000016  f7fffffe          BL       LCD_WriteReg
;;;1162     LCD_WriteReg(LCD_REG_19, 0x0000); /* VDV[4:0] for VCOM amplitude*/
00001a  2100              MOVS     r1,#0
00001c  2013              MOVS     r0,#0x13
00001e  f7fffffe          BL       LCD_WriteReg
;;;1163     _delay_(20);                 /* Dis-charge capacitor power voltage (200ms) */
000022  2014              MOVS     r0,#0x14
000024  f7fffffe          BL       delay
;;;1164     LCD_WriteReg(LCD_REG_16, 0x17B0); /* SAP, BT[3:0], AP, DSTB, SLP, STB */
000028  f24171b0          MOV      r1,#0x17b0
00002c  2010              MOVS     r0,#0x10
00002e  f7fffffe          BL       LCD_WriteReg
;;;1165     LCD_WriteReg(LCD_REG_17, 0x0137); /* DC1[2:0], DC0[2:0], VC[2:0] */
000032  f2401137          MOV      r1,#0x137
000036  2011              MOVS     r0,#0x11
000038  f7fffffe          BL       LCD_WriteReg
;;;1166     _delay_(5);                  /* Delay 50 ms */
00003c  2005              MOVS     r0,#5
00003e  f7fffffe          BL       delay
;;;1167     LCD_WriteReg(LCD_REG_18, 0x0139); /* VREG1OUT voltage */
000042  f2401139          MOV      r1,#0x139
000046  2012              MOVS     r0,#0x12
000048  f7fffffe          BL       LCD_WriteReg
;;;1168     _delay_(5);                  /* Delay 50 ms */
00004c  2005              MOVS     r0,#5
00004e  f7fffffe          BL       delay
;;;1169     LCD_WriteReg(LCD_REG_19, 0x1d00); /* VDV[4:0] for VCOM amplitude */
000052  f44f51e8          MOV      r1,#0x1d00
000056  2013              MOVS     r0,#0x13
000058  f7fffffe          BL       LCD_WriteReg
;;;1170     LCD_WriteReg(LCD_REG_41, 0x0013); /* VCM[4:0] for VCOMH */
00005c  2113              MOVS     r1,#0x13
00005e  2029              MOVS     r0,#0x29
000060  f7fffffe          BL       LCD_WriteReg
;;;1171     _delay_(5);                  /* Delay 50 ms */
000064  2005              MOVS     r0,#5
000066  f7fffffe          BL       delay
;;;1172     LCD_WriteReg(LCD_REG_7, 0x0173);  /* 262K color and display ON */
00006a  e8bd4010          POP      {r4,lr}
00006e  f2401173          MOV      r1,#0x173
000072  2007              MOVS     r0,#7
000074  f7ffbffe          B.W      LCD_WriteReg
;;;1173   }
;;;1174   
                          ENDP


                          AREA ||i.LCD_ReadRAM||, CODE, READONLY, ALIGN=1

                  LCD_ReadRAM PROC
;;;1141     */
;;;1142   uint16_t LCD_ReadRAM(void)
000000  f04f40d8          MOV      r0,#0x6c000000
;;;1143   {
;;;1144     /* Write 16-bit Index (then Read Reg) */
;;;1145     LCD->LCD_REG = LCD_REG_34; /* Select GRAM Reg */
000004  2122              MOVS     r1,#0x22
000006  8001              STRH     r1,[r0,#0]
;;;1146     /* Read 16-bit Reg */
;;;1147     return LCD->LCD_RAM;
000008  8840              LDRH     r0,[r0,#2]
;;;1148   }
00000a  4770              BX       lr
;;;1149   #endif
                          ENDP


                          AREA ||i.LCD_ReadReg||, CODE, READONLY, ALIGN=1

                  LCD_ReadReg PROC
;;;1104     */
;;;1105   uint16_t LCD_ReadReg(uint8_t LCD_Reg)
000000  f04f41d8          MOV      r1,#0x6c000000
;;;1106   {
;;;1107     /* Write 16-bit Index (then Read Reg) */
;;;1108     LCD->LCD_REG = LCD_Reg;
000004  8008              STRH     r0,[r1,#0]
;;;1109     /* Read 16-bit Reg */
;;;1110     return (LCD->LCD_RAM);
000006  8848              LDRH     r0,[r1,#2]
;;;1111   }
000008  4770              BX       lr
;;;1112   
                          ENDP


                          AREA ||i.LCD_SetBackColor||, CODE, READONLY, ALIGN=2

                  LCD_SetBackColor PROC
;;;353      */
;;;354    void LCD_SetBackColor(__IO uint16_t Color)
000000  b501              PUSH     {r0,lr}
;;;355    {
;;;356      BackColor = Color;
000002  f8bd0000          LDRH     r0,[sp,#0]
000006  4901              LDR      r1,|L29.12|
000008  8048              STRH     r0,[r1,#2]
;;;357    }
00000a  bd08              POP      {r3,pc}
;;;358    
                          ENDP

                  |L29.12|
                          DCD      ||.data||

                          AREA ||i.LCD_SetColors||, CODE, READONLY, ALIGN=2

                  LCD_SetColors PROC
;;;318      */
;;;319    void LCD_SetColors(__IO uint16_t _TextColor, __IO uint16_t _BackColor)
000000  b503              PUSH     {r0,r1,lr}
;;;320    {
;;;321      TextColor = _TextColor; 
000002  f8bd1000          LDRH     r1,[sp,#0]
000006  4803              LDR      r0,|L30.20|
000008  8001              STRH     r1,[r0,#0]
;;;322      BackColor = _BackColor;
00000a  f8bd1004          LDRH     r1,[sp,#4]
00000e  8041              STRH     r1,[r0,#2]
;;;323    }
000010  bd0c              POP      {r2,r3,pc}
;;;324    
                          ENDP

000012  0000              DCW      0x0000
                  |L30.20|
                          DCD      ||.data||

                          AREA ||i.LCD_SetCursor||, CODE, READONLY, ALIGN=1

                  LCD_SetCursor PROC
;;;424     #if 1
;;;425    void LCD_SetCursor(uint8_t Xpos, uint16_t Ypos)
000000  460b              MOV      r3,r1
;;;426    {
000002  b500              PUSH     {lr}
;;;427      LCD_WriteReg(LCD_REG_32, Xpos);
000004  4601              MOV      r1,r0
000006  2020              MOVS     r0,#0x20
000008  f7fffffe          BL       LCD_WriteReg
;;;428      LCD_WriteReg(LCD_REG_33, Ypos);
00000c  4619              MOV      r1,r3
00000e  2021              MOVS     r0,#0x21
000010  f85deb04          POP      {lr}
000014  f7ffbffe          B.W      LCD_WriteReg
;;;429    }
;;;430     #endif
                          ENDP


                          AREA ||i.LCD_SetDisplayWindow||, CODE, READONLY, ALIGN=1

                  LCD_SetDisplayWindow PROC
;;;518      */
;;;519    void LCD_SetDisplayWindow(uint8_t Xpos, uint16_t Ypos, uint8_t Height, uint16_t Width)
000000  b530              PUSH     {r4,r5,lr}
;;;520    {
000002  460d              MOV      r5,r1
000004  4604              MOV      r4,r0
;;;521      /* Horizontal GRAM Start Address */
;;;522      if(Xpos >= Height)
000006  4290              CMP      r0,r2
000008  d303              BCC      |L32.18|
;;;523      {
;;;524        LCD_WriteReg(LCD_REG_80, (Xpos - Height + 1));
00000a  1aa0              SUBS     r0,r4,r2
00000c  1c40              ADDS     r0,r0,#1
00000e  b281              UXTH     r1,r0
000010  e000              B        |L32.20|
                  |L32.18|
;;;525      }
;;;526      else
;;;527      {
;;;528        LCD_WriteReg(LCD_REG_80, 0);
000012  2100              MOVS     r1,#0
                  |L32.20|
000014  2050              MOVS     r0,#0x50
000016  f7fffffe          BL       LCD_WriteReg
;;;529      }
;;;530      /* Horizontal GRAM End Address */
;;;531      LCD_WriteReg(LCD_REG_81, Xpos);
00001a  4621              MOV      r1,r4
00001c  2051              MOVS     r0,#0x51
00001e  f7fffffe          BL       LCD_WriteReg
;;;532      /* Vertical GRAM Start Address */
;;;533      if(Ypos >= Width)
000022  429d              CMP      r5,r3
000024  d303              BCC      |L32.46|
;;;534      {
;;;535        LCD_WriteReg(LCD_REG_82, (Ypos - Width + 1));
000026  1ae8              SUBS     r0,r5,r3
000028  1c40              ADDS     r0,r0,#1
00002a  b281              UXTH     r1,r0
00002c  e000              B        |L32.48|
                  |L32.46|
;;;536      }  
;;;537      else
;;;538      {
;;;539        LCD_WriteReg(LCD_REG_82, 0);
00002e  2100              MOVS     r1,#0
                  |L32.48|
000030  2052              MOVS     r0,#0x52
000032  f7fffffe          BL       LCD_WriteReg
;;;540      }
;;;541      /* Vertical GRAM End Address */
;;;542      LCD_WriteReg(LCD_REG_83, Ypos);
000036  4629              MOV      r1,r5
000038  2053              MOVS     r0,#0x53
00003a  f7fffffe          BL       LCD_WriteReg
;;;543      LCD_SetCursor(Xpos, Ypos);
00003e  4629              MOV      r1,r5
000040  4620              MOV      r0,r4
000042  e8bd4030          POP      {r4,r5,lr}
000046  f7ffbffe          B.W      LCD_SetCursor
;;;544    }
;;;545    
                          ENDP


                          AREA ||i.LCD_SetFont||, CODE, READONLY, ALIGN=2

                  LCD_SetFont PROC
;;;363      */
;;;364    void LCD_SetFont(sFONT *fonts)
000000  4901              LDR      r1,|L33.8|
;;;365    {
;;;366      LCD_Currentfonts = fonts;
000002  6048              STR      r0,[r1,#4]  ; LCD_Currentfonts
;;;367    }
000004  4770              BX       lr
;;;368    
                          ENDP

000006  0000              DCW      0x0000
                  |L33.8|
                          DCD      ||.data||

                          AREA ||i.LCD_SetTextColor||, CODE, READONLY, ALIGN=2

                  LCD_SetTextColor PROC
;;;342      */
;;;343    void LCD_SetTextColor(__IO uint16_t Color)
000000  b501              PUSH     {r0,lr}
;;;344    {
;;;345      TextColor = Color;
000002  f8bd0000          LDRH     r0,[sp,#0]
000006  4901              LDR      r1,|L34.12|
000008  8008              STRH     r0,[r1,#0]
;;;346    }
00000a  bd08              POP      {r3,pc}
;;;347    
                          ENDP

                  |L34.12|
                          DCD      ||.data||

                          AREA ||i.LCD_WindowModeDisable||, CODE, READONLY, ALIGN=1

                  LCD_WindowModeDisable PROC
;;;551      */
;;;552    void LCD_WindowModeDisable(void)
000000  b500              PUSH     {lr}
;;;553    {
;;;554      LCD_SetDisplayWindow(239, 0x13F, 240, 320);
000002  f44f73a0          MOV      r3,#0x140
000006  22f0              MOVS     r2,#0xf0
000008  1e59              SUBS     r1,r3,#1
00000a  20ef              MOVS     r0,#0xef
00000c  f7fffffe          BL       LCD_SetDisplayWindow
;;;555      LCD_WriteReg(LCD_REG_3, 0x1018);    
000010  f2410118          MOV      r1,#0x1018
000014  2003              MOVS     r0,#3
000016  f85deb04          POP      {lr}
00001a  f7ffbffe          B.W      LCD_WriteReg
;;;556    }
;;;557    
                          ENDP


                          AREA ||i.LCD_WriteBMP||, CODE, READONLY, ALIGN=2

                  LCD_WriteBMP PROC
;;;700      */
;;;701    void LCD_WriteBMP(uint32_t BmpAddress)
000000  b510              PUSH     {r4,lr}
;;;702    {
;;;703      uint32_t index = 0, size = 0;
;;;704      /* Read bitmap size */
;;;705      size = *(__IO uint16_t *) (BmpAddress + 2);
000002  8841              LDRH     r1,[r0,#2]
;;;706      size |= (*(__IO uint16_t *) (BmpAddress + 4)) << 16;
000004  8882              LDRH     r2,[r0,#4]
000006  ea414202          ORR      r2,r1,r2,LSL #16
;;;707      /* Get bitmap data address offset */
;;;708      index = *(__IO uint16_t *) (BmpAddress + 10);
00000a  8941              LDRH     r1,[r0,#0xa]
;;;709      index |= (*(__IO uint16_t *) (BmpAddress + 12)) << 16;
00000c  8983              LDRH     r3,[r0,#0xc]
00000e  ea414103          ORR      r1,r1,r3,LSL #16
;;;710      size = (size - index)/2;
000012  1a52              SUBS     r2,r2,r1
;;;711      BmpAddress += index;
000014  1843              ADDS     r3,r0,r1
000016  0854              LSRS     r4,r2,#1              ;710
;;;712      /* Set GRAM write direction and BGR = 1 */
;;;713      /* I/D=00 (Horizontal : decrement, Vertical : decrement) */
;;;714      /* AM=1 (address is updated in vertical writing direction) */
;;;715      LCD_WriteReg(LCD_REG_3, 0x1008);
000018  f2410108          MOV      r1,#0x1008
00001c  2003              MOVS     r0,#3
00001e  f7fffffe          BL       LCD_WriteReg
000022  f04f41d8          MOV      r1,#0x6c000000
000026  2022              MOVS     r0,#0x22
000028  8008              STRH     r0,[r1,#0]
;;;716     
;;;717      LCD_WriteRAM_Prepare();
;;;718     
;;;719      for(index = 0; index < size; index++)
00002a  2000              MOVS     r0,#0
00002c  e004              B        |L36.56|
;;;720      {
;;;721        LCD_WriteRAM(*(__IO uint16_t *)BmpAddress);
00002e  bf00              NOP      
                  |L36.48|
000030  f8332b02          LDRH     r2,[r3],#2
000034  804a              STRH     r2,[r1,#2]
000036  1c40              ADDS     r0,r0,#1
                  |L36.56|
000038  42a0              CMP      r0,r4                 ;719
00003a  d3f9              BCC      |L36.48|
;;;722        BmpAddress += 2;
;;;723      }
;;;724     
;;;725      /* Set GRAM write direction and BGR = 1 */
;;;726      /* I/D = 01 (Horizontal : increment, Vertical : decrement) */
;;;727      /* AM = 1 (address is updated in vertical writing direction) */
;;;728      LCD_WriteReg(LCD_REG_3, 0x1018);
00003c  e8bd4010          POP      {r4,lr}
000040  f2410118          MOV      r1,#0x1018
000044  2003              MOVS     r0,#3
000046  f7ffbffe          B.W      LCD_WriteReg
;;;729    }
;;;730    
                          ENDP


                          AREA ||i.LCD_WriteRAM||, CODE, READONLY, ALIGN=1

                  LCD_WriteRAM PROC
;;;1129     */
;;;1130   void LCD_WriteRAM(uint16_t RGB_Code)
000000  f04f41d8          MOV      r1,#0x6c000000
;;;1131   {
;;;1132     /* Write 16-bit GRAM Reg */
;;;1133     LCD->LCD_RAM = RGB_Code;
000004  8048              STRH     r0,[r1,#2]
;;;1134   }
000006  4770              BX       lr
;;;1135   
                          ENDP


                          AREA ||i.LCD_WriteRAM_Prepare||, CODE, READONLY, ALIGN=1

                  LCD_WriteRAM_Prepare PROC
;;;1118     */
;;;1119   void LCD_WriteRAM_Prepare(void)
000000  f04f41d8          MOV      r1,#0x6c000000
;;;1120   {
;;;1121     LCD->LCD_REG = LCD_REG_34;
000004  2022              MOVS     r0,#0x22
000006  8008              STRH     r0,[r1,#0]
;;;1122   }
000008  4770              BX       lr
;;;1123   
                          ENDP


                          AREA ||i.LCD_WriteReg||, CODE, READONLY, ALIGN=1

                  LCD_WriteReg PROC
;;;1090     */
;;;1091   void LCD_WriteReg(uint8_t LCD_Reg, uint16_t LCD_RegValue)
000000  f04f42d8          MOV      r2,#0x6c000000
;;;1092   {
;;;1093     /* Write 16-bit Index, then Write Reg */
;;;1094     LCD->LCD_REG = LCD_Reg;
000004  8010              STRH     r0,[r2,#0]
;;;1095     /* Write 16-bit Reg */
;;;1096     LCD->LCD_RAM = LCD_RegValue;
000006  8051              STRH     r1,[r2,#2]
;;;1097   }
000008  4770              BX       lr
;;;1098   
                          ENDP


                          AREA ||i.PutPixel||, CODE, READONLY, ALIGN=1

                  PutPixel PROC
;;;1288     */
;;;1289   static void PutPixel(int16_t x, int16_t y)
000000  28f0              CMP      r0,#0xf0
;;;1290   { 
000002  d20a              BCS      |L40.26|
;;;1291     if(x < 0 || x > 239 || y < 0 || y > 319)
000004  2900              CMP      r1,#0
000006  db08              BLT      |L40.26|
000008  f5b17fa0          CMP      r1,#0x140
00000c  da05              BGE      |L40.26|
;;;1292     {
;;;1293       return;  
;;;1294     }
;;;1295     LCD_DrawLine(x, y, 1, LCD_DIR_HORIZONTAL);
00000e  2300              MOVS     r3,#0
000010  b289              UXTH     r1,r1
000012  b2c0              UXTB     r0,r0
000014  2201              MOVS     r2,#1
000016  f7ffbffe          B.W      LCD_DrawLine
                  |L40.26|
;;;1296   }
00001a  4770              BX       lr
;;;1297   
                          ENDP


                          AREA ||i.STM3210E_LCD_Init||, CODE, READONLY, ALIGN=2

                  STM3210E_LCD_Init PROC
;;;155      */
;;;156    void STM3210E_LCD_Init(void)
000000  e92d47f0          PUSH     {r4-r10,lr}
;;;157    { 
;;;158    /* Configure the LCD Control pins --------------------------------------------*/
;;;159      LCD_CtrlLinesConfig();
000004  f7fffffe          BL       LCD_CtrlLinesConfig
;;;160    /* Configure the FSMC Parallel interface -------------------------------------*/
;;;161      LCD_FSMCConfig();
000008  f7fffffe          BL       LCD_FSMCConfig
;;;162      
;;;163      _delay_(5); /* delay 50 ms */
00000c  2005              MOVS     r0,#5
00000e  f7fffffe          BL       delay
;;;164      /* Check if the LCD is SPFD5408B Controller */
;;;165      if(LCD_ReadReg(0x00) == 0x5408)
000012  2000              MOVS     r0,#0
000014  f7fffffe          BL       LCD_ReadReg
;;;166      {
;;;167        /* Start Initial Sequence ------------------------------------------------*/
;;;168        LCD_WriteReg(LCD_REG_1, 0x0100);  /* Set SS bit */
000018  f44f7380          MOV      r3,#0x100
;;;169        LCD_WriteReg(LCD_REG_2, 0x0700);  /* Set 1 line inversion */
00001c  f44f66e0          MOV      r6,#0x700
;;;170        LCD_WriteReg(LCD_REG_3, 0x1030);  /* Set GRAM write direction and BGR=1. */
000020  f2410730          MOV      r7,#0x1030
;;;171        LCD_WriteReg(LCD_REG_4, 0x0000);  /* Resize register */
;;;172        LCD_WriteReg(LCD_REG_8, 0x0202);  /* Set the back porch and front porch */
000024  f2402802          MOV      r8,#0x202
;;;173        LCD_WriteReg(LCD_REG_9, 0x0000);  /* Set non-display area refresh cycle ISC[3:0] */
;;;174        LCD_WriteReg(LCD_REG_10, 0x0000); /* FMARK function */
;;;175        LCD_WriteReg(LCD_REG_12, 0x0000); /* RGB 18-bit System interface setting */
;;;176        LCD_WriteReg(LCD_REG_13, 0x0000); /* Frame marker Position */
;;;177        LCD_WriteReg(LCD_REG_15, 0x0000); /* RGB interface polarity, no impact */
;;;178        /* Power On sequence -----------------------------------------------------*/
;;;179        LCD_WriteReg(LCD_REG_16, 0x0000); /* SAP, BT[3:0], AP, DSTB, SLP, STB */
;;;180        LCD_WriteReg(LCD_REG_17, 0x0000); /* DC1[2:0], DC0[2:0], VC[2:0] */
;;;181        LCD_WriteReg(LCD_REG_18, 0x0000); /* VREG1OUT voltage */
;;;182        LCD_WriteReg(LCD_REG_19, 0x0000); /* VDV[4:0] for VCOM amplitude */
;;;183        _delay_(20);                 /* Dis-charge capacitor power voltage (200ms) */
;;;184        LCD_WriteReg(LCD_REG_17, 0x0007);  /* DC1[2:0], DC0[2:0], VC[2:0] */
;;;185        _delay_(5);                   /* Delay 50 ms */
;;;186        LCD_WriteReg(LCD_REG_16, 0x12B0);  /* SAP, BT[3:0], AP, DSTB, SLP, STB */
;;;187        _delay_(5);                  /* Delay 50 ms */
;;;188        LCD_WriteReg(LCD_REG_18, 0x01BD);  /* External reference voltage= Vci */
;;;189        _delay_(5); 
;;;190        LCD_WriteReg(LCD_REG_19, 0x1400);  /* VDV[4:0] for VCOM amplitude */
;;;191        LCD_WriteReg(LCD_REG_41, 0x000E);  /* VCM[4:0] for VCOMH */
;;;192        _delay_(5);                   /* Delay 50 ms */
;;;193        LCD_WriteReg(LCD_REG_32, 0x0000); /* GRAM horizontal Address */
;;;194        LCD_WriteReg(LCD_REG_33, 0x013F); /* GRAM Vertical Address */
000028  f240153f          MOV      r5,#0x13f
;;;195        /* Adjust the Gamma Curve (SPFD5408B)-------------------------------------*/
;;;196        LCD_WriteReg(LCD_REG_48, 0x0b0d);
;;;197        LCD_WriteReg(LCD_REG_49, 0x1923);
;;;198        LCD_WriteReg(LCD_REG_50, 0x1c26);
;;;199        LCD_WriteReg(LCD_REG_51, 0x261c);
;;;200        LCD_WriteReg(LCD_REG_52, 0x2419);
;;;201        LCD_WriteReg(LCD_REG_53, 0x0d0b);
;;;202        LCD_WriteReg(LCD_REG_54, 0x1006);
;;;203        LCD_WriteReg(LCD_REG_55, 0x0610);
;;;204        LCD_WriteReg(LCD_REG_56, 0x0706);
;;;205        LCD_WriteReg(LCD_REG_57, 0x0304);
;;;206        LCD_WriteReg(LCD_REG_58, 0x0e05);
;;;207        LCD_WriteReg(LCD_REG_59, 0x0e01);
;;;208        LCD_WriteReg(LCD_REG_60, 0x010e);
;;;209        LCD_WriteReg(LCD_REG_61, 0x050e);
;;;210        LCD_WriteReg(LCD_REG_62, 0x0403);
;;;211        LCD_WriteReg(LCD_REG_63, 0x0607);
;;;212        /* Set GRAM area ---------------------------------------------------------*/
;;;213        LCD_WriteReg(LCD_REG_80, 0x0000); /* Horizontal GRAM Start Address */
;;;214        LCD_WriteReg(LCD_REG_81, 0x00EF); /* Horizontal GRAM End Address */
;;;215        LCD_WriteReg(LCD_REG_82, 0x0000); /* Vertical GRAM Start Address */
;;;216        LCD_WriteReg(LCD_REG_83, 0x013F); /* Vertical GRAM End Address */
;;;217        LCD_WriteReg(LCD_REG_96,  0xA700); /* Gate Scan Line */
;;;218        LCD_WriteReg(LCD_REG_97,  0x0001); /* NDL, VLE, REV */
;;;219        LCD_WriteReg(LCD_REG_106, 0x0000); /* set scrolling line */
;;;220        /* Partial Display Control -----------------------------------------------*/
;;;221        LCD_WriteReg(LCD_REG_128, 0x0000);
;;;222        LCD_WriteReg(LCD_REG_129, 0x0000);
;;;223        LCD_WriteReg(LCD_REG_130, 0x0000);
;;;224        LCD_WriteReg(LCD_REG_131, 0x0000);
;;;225        LCD_WriteReg(LCD_REG_132, 0x0000);
;;;226        LCD_WriteReg(LCD_REG_133, 0x0000);
;;;227        /* Panel Control ---------------------------------------------------------*/
;;;228        LCD_WriteReg(LCD_REG_144, 0x0010); 
;;;229        LCD_WriteReg(LCD_REG_146, 0x0000);
;;;230        LCD_WriteReg(LCD_REG_147, 0x0003);
;;;231        LCD_WriteReg(LCD_REG_149, 0x0110);
00002c  f44f7988          MOV      r9,#0x110
;;;232        LCD_WriteReg(LCD_REG_151, 0x0000);
;;;233        LCD_WriteReg(LCD_REG_152, 0x0000);
;;;234        /* Set GRAM write direction and BGR=1
;;;235           I/D=01 (Horizontal : increment, Vertical : decrement)
;;;236           AM=1 (address is updated in vertical writing direction) */
;;;237        LCD_WriteReg(LCD_REG_3, 0x1018);
000030  f2410a18          MOV      r10,#0x1018
000034  4cfe              LDR      r4,|L41.1072|
000036  f5a041a8          SUB      r1,r0,#0x5400         ;165
00003a  3908              SUBS     r1,r1,#8              ;165
00003c  d07d              BEQ      |L41.314|
;;;238        LCD_WriteReg(LCD_REG_7, 0x0112); /* 262K color and display ON */
;;;239        LCD_SetFont(&LCD_DEFAULT_FONT);
;;;240        return;
;;;241      }
;;;242    /* Start Initial Sequence ----------------------------------------------------*/
;;;243      LCD_WriteReg(LCD_REG_229,0x8000); /* Set the internal vcore voltage */
00003e  01d9              LSLS     r1,r3,#7
000040  20e5              MOVS     r0,#0xe5
000042  f7fffffe          BL       LCD_WriteReg
;;;244      LCD_WriteReg(LCD_REG_0,  0x0001); /* Start internal OSC. */
000046  2101              MOVS     r1,#1
000048  2000              MOVS     r0,#0
00004a  f7fffffe          BL       LCD_WriteReg
;;;245      LCD_WriteReg(LCD_REG_1,  0x0100); /* set SS and SM bit */
00004e  4619              MOV      r1,r3
000050  2001              MOVS     r0,#1
000052  f7fffffe          BL       LCD_WriteReg
;;;246      LCD_WriteReg(LCD_REG_2,  0x0700); /* set 1 line inversion */
000056  4631              MOV      r1,r6
000058  2002              MOVS     r0,#2
00005a  f7fffffe          BL       LCD_WriteReg
;;;247      LCD_WriteReg(LCD_REG_3,  0x1030); /* set GRAM write direction and BGR=1. */
00005e  4639              MOV      r1,r7
000060  2003              MOVS     r0,#3
000062  f7fffffe          BL       LCD_WriteReg
;;;248      LCD_WriteReg(LCD_REG_4,  0x0000); /* Resize register */
000066  2100              MOVS     r1,#0
000068  2004              MOVS     r0,#4
00006a  f7fffffe          BL       LCD_WriteReg
;;;249      LCD_WriteReg(LCD_REG_8,  0x0202); /* set the back porch and front porch */
00006e  4641              MOV      r1,r8
000070  2008              MOVS     r0,#8
000072  f7fffffe          BL       LCD_WriteReg
;;;250      LCD_WriteReg(LCD_REG_9,  0x0000); /* set non-display area refresh cycle ISC[3:0] */
000076  2100              MOVS     r1,#0
000078  2009              MOVS     r0,#9
00007a  f7fffffe          BL       LCD_WriteReg
;;;251      LCD_WriteReg(LCD_REG_10, 0x0000); /* FMARK function */
00007e  2100              MOVS     r1,#0
000080  200a              MOVS     r0,#0xa
000082  f7fffffe          BL       LCD_WriteReg
;;;252      LCD_WriteReg(LCD_REG_12, 0x0000); /* RGB interface setting */
000086  2100              MOVS     r1,#0
000088  200c              MOVS     r0,#0xc
00008a  f7fffffe          BL       LCD_WriteReg
;;;253      LCD_WriteReg(LCD_REG_13, 0x0000); /* Frame marker Position */
00008e  2100              MOVS     r1,#0
000090  200d              MOVS     r0,#0xd
000092  f7fffffe          BL       LCD_WriteReg
;;;254      LCD_WriteReg(LCD_REG_15, 0x0000); /* RGB interface polarity */
000096  2100              MOVS     r1,#0
000098  200f              MOVS     r0,#0xf
00009a  f7fffffe          BL       LCD_WriteReg
;;;255    /* Power On sequence ---------------------------------------------------------*/
;;;256      LCD_WriteReg(LCD_REG_16, 0x0000); /* SAP, BT[3:0], AP, DSTB, SLP, STB */
00009e  2100              MOVS     r1,#0
0000a0  2010              MOVS     r0,#0x10
0000a2  f7fffffe          BL       LCD_WriteReg
;;;257      LCD_WriteReg(LCD_REG_17, 0x0000); /* DC1[2:0], DC0[2:0], VC[2:0] */
0000a6  2100              MOVS     r1,#0
0000a8  2011              MOVS     r0,#0x11
0000aa  f7fffffe          BL       LCD_WriteReg
;;;258      LCD_WriteReg(LCD_REG_18, 0x0000); /* VREG1OUT voltage */
0000ae  2100              MOVS     r1,#0
0000b0  2012              MOVS     r0,#0x12
0000b2  f7fffffe          BL       LCD_WriteReg
;;;259      LCD_WriteReg(LCD_REG_19, 0x0000); /* VDV[4:0] for VCOM amplitude */
0000b6  2100              MOVS     r1,#0
0000b8  2013              MOVS     r0,#0x13
0000ba  f7fffffe          BL       LCD_WriteReg
;;;260      _delay_(20);                 /* Dis-charge capacitor power voltage (200ms) */
0000be  2014              MOVS     r0,#0x14
0000c0  f7fffffe          BL       delay
;;;261      LCD_WriteReg(LCD_REG_16, 0x17B0); /* SAP, BT[3:0], AP, DSTB, SLP, STB */
0000c4  f24171b0          MOV      r1,#0x17b0
0000c8  2010              MOVS     r0,#0x10
0000ca  f7fffffe          BL       LCD_WriteReg
;;;262      LCD_WriteReg(LCD_REG_17, 0x0137); /* DC1[2:0], DC0[2:0], VC[2:0] */
0000ce  f2401137          MOV      r1,#0x137
0000d2  2011              MOVS     r0,#0x11
0000d4  f7fffffe          BL       LCD_WriteReg
;;;263      _delay_(5);                  /* Delay 50 ms */
0000d8  2005              MOVS     r0,#5
0000da  f7fffffe          BL       delay
;;;264      LCD_WriteReg(LCD_REG_18, 0x0139); /* VREG1OUT voltage */
0000de  1fa9              SUBS     r1,r5,#6
0000e0  2012              MOVS     r0,#0x12
0000e2  f7fffffe          BL       LCD_WriteReg
;;;265      _delay_(5);                  /* Delay 50 ms */
0000e6  2005              MOVS     r0,#5
0000e8  f7fffffe          BL       delay
;;;266      LCD_WriteReg(LCD_REG_19, 0x1d00); /* VDV[4:0] for VCOM amplitude */
0000ec  f44f51e8          MOV      r1,#0x1d00
0000f0  2013              MOVS     r0,#0x13
0000f2  f7fffffe          BL       LCD_WriteReg
;;;267      LCD_WriteReg(LCD_REG_41, 0x0013); /* VCM[4:0] for VCOMH */
0000f6  2113              MOVS     r1,#0x13
0000f8  2029              MOVS     r0,#0x29
0000fa  f7fffffe          BL       LCD_WriteReg
;;;268      _delay_(5);                  /* Delay 50 ms */
0000fe  2005              MOVS     r0,#5
000100  f7fffffe          BL       delay
;;;269      LCD_WriteReg(LCD_REG_32, 0x0000); /* GRAM horizontal Address */
000104  2100              MOVS     r1,#0
000106  2020              MOVS     r0,#0x20
000108  f7fffffe          BL       LCD_WriteReg
;;;270      LCD_WriteReg(LCD_REG_33, 0x0000); /* GRAM Vertical Address */
00010c  2100              MOVS     r1,#0
00010e  2021              MOVS     r0,#0x21
000110  f7fffffe          BL       LCD_WriteReg
;;;271    /* Adjust the Gamma Curve ----------------------------------------------------*/
;;;272      LCD_WriteReg(LCD_REG_48, 0x0006);
000114  2106              MOVS     r1,#6
000116  2030              MOVS     r0,#0x30
000118  f7fffffe          BL       LCD_WriteReg
;;;273      LCD_WriteReg(LCD_REG_49, 0x0101);
00011c  f2401101          MOV      r1,#0x101
000120  2031              MOVS     r0,#0x31
000122  f7fffffe          BL       LCD_WriteReg
;;;274      LCD_WriteReg(LCD_REG_50, 0x0003);
000126  2103              MOVS     r1,#3
000128  2032              MOVS     r0,#0x32
00012a  f7fffffe          BL       LCD_WriteReg
;;;275      LCD_WriteReg(LCD_REG_53, 0x0106);
00012e  f44f7183          MOV      r1,#0x106
000132  2035              MOVS     r0,#0x35
000134  f7fffffe          BL       LCD_WriteReg
;;;276      LCD_WriteReg(LCD_REG_54, 0x0b02);
000138  e000              B        |L41.316|
                  |L41.314|
00013a  e076              B        |L41.554|
                  |L41.316|
00013c  f6403102          MOV      r1,#0xb02
000140  2036              MOVS     r0,#0x36
000142  f7fffffe          BL       LCD_WriteReg
;;;277      LCD_WriteReg(LCD_REG_55, 0x0302);
000146  f2403102          MOV      r1,#0x302
00014a  2037              MOVS     r0,#0x37
00014c  f7fffffe          BL       LCD_WriteReg
;;;278      LCD_WriteReg(LCD_REG_56, 0x0707);
000150  1df1              ADDS     r1,r6,#7
000152  2038              MOVS     r0,#0x38
000154  f7fffffe          BL       LCD_WriteReg
;;;279      LCD_WriteReg(LCD_REG_57, 0x0007);
000158  2107              MOVS     r1,#7
00015a  2039              MOVS     r0,#0x39
00015c  f7fffffe          BL       LCD_WriteReg
;;;280      LCD_WriteReg(LCD_REG_60, 0x0600);
000160  f44f61c0          MOV      r1,#0x600
000164  203c              MOVS     r0,#0x3c
000166  f7fffffe          BL       LCD_WriteReg
;;;281      LCD_WriteReg(LCD_REG_61, 0x020b);
00016a  f240210b          MOV      r1,#0x20b
00016e  203d              MOVS     r0,#0x3d
000170  f7fffffe          BL       LCD_WriteReg
;;;282      
;;;283    /* Set GRAM area -------------------------------------------------------------*/
;;;284      LCD_WriteReg(LCD_REG_80, 0x0000); /* Horizontal GRAM Start Address */
000174  2100              MOVS     r1,#0
000176  2050              MOVS     r0,#0x50
000178  f7fffffe          BL       LCD_WriteReg
;;;285      LCD_WriteReg(LCD_REG_81, 0x00EF); /* Horizontal GRAM End Address */
00017c  21ef              MOVS     r1,#0xef
00017e  2051              MOVS     r0,#0x51
000180  f7fffffe          BL       LCD_WriteReg
;;;286      LCD_WriteReg(LCD_REG_82, 0x0000); /* Vertical GRAM Start Address */
000184  2100              MOVS     r1,#0
000186  2052              MOVS     r0,#0x52
000188  f7fffffe          BL       LCD_WriteReg
;;;287      LCD_WriteReg(LCD_REG_83, 0x013F); /* Vertical GRAM End Address */
00018c  4629              MOV      r1,r5
00018e  2053              MOVS     r0,#0x53
000190  f7fffffe          BL       LCD_WriteReg
;;;288      LCD_WriteReg(LCD_REG_96,  0x2700); /* Gate Scan Line */
000194  f44f511c          MOV      r1,#0x2700
000198  2060              MOVS     r0,#0x60
00019a  f7fffffe          BL       LCD_WriteReg
;;;289      LCD_WriteReg(LCD_REG_97,  0x0001); /* NDL,VLE, REV */
00019e  2101              MOVS     r1,#1
0001a0  2061              MOVS     r0,#0x61
0001a2  f7fffffe          BL       LCD_WriteReg
;;;290      LCD_WriteReg(LCD_REG_106, 0x0000); /* set scrolling line */
0001a6  2100              MOVS     r1,#0
0001a8  206a              MOVS     r0,#0x6a
0001aa  f7fffffe          BL       LCD_WriteReg
;;;291    /* Partial Display Control ---------------------------------------------------*/
;;;292      LCD_WriteReg(LCD_REG_128, 0x0000);
0001ae  2100              MOVS     r1,#0
0001b0  2080              MOVS     r0,#0x80
0001b2  f7fffffe          BL       LCD_WriteReg
;;;293      LCD_WriteReg(LCD_REG_129, 0x0000);
0001b6  2100              MOVS     r1,#0
0001b8  2081              MOVS     r0,#0x81
0001ba  f7fffffe          BL       LCD_WriteReg
;;;294      LCD_WriteReg(LCD_REG_130, 0x0000);
0001be  2100              MOVS     r1,#0
0001c0  2082              MOVS     r0,#0x82
0001c2  f7fffffe          BL       LCD_WriteReg
;;;295      LCD_WriteReg(LCD_REG_131, 0x0000);
0001c6  2100              MOVS     r1,#0
0001c8  2083              MOVS     r0,#0x83
0001ca  f7fffffe          BL       LCD_WriteReg
;;;296      LCD_WriteReg(LCD_REG_132, 0x0000);
0001ce  2100              MOVS     r1,#0
0001d0  2084              MOVS     r0,#0x84
0001d2  f7fffffe          BL       LCD_WriteReg
;;;297      LCD_WriteReg(LCD_REG_133, 0x0000);
0001d6  2100              MOVS     r1,#0
0001d8  2085              MOVS     r0,#0x85
0001da  f7fffffe          BL       LCD_WriteReg
;;;298    /* Panel Control -------------------------------------------------------------*/
;;;299      LCD_WriteReg(LCD_REG_144, 0x0010);
0001de  2110              MOVS     r1,#0x10
0001e0  2090              MOVS     r0,#0x90
0001e2  f7fffffe          BL       LCD_WriteReg
;;;300      LCD_WriteReg(LCD_REG_146, 0x0000);
0001e6  2100              MOVS     r1,#0
0001e8  2092              MOVS     r0,#0x92
0001ea  f7fffffe          BL       LCD_WriteReg
;;;301      LCD_WriteReg(LCD_REG_147, 0x0003);
0001ee  2103              MOVS     r1,#3
0001f0  2093              MOVS     r0,#0x93
0001f2  f7fffffe          BL       LCD_WriteReg
;;;302      LCD_WriteReg(LCD_REG_149, 0x0110);
0001f6  4649              MOV      r1,r9
0001f8  2095              MOVS     r0,#0x95
0001fa  f7fffffe          BL       LCD_WriteReg
;;;303      LCD_WriteReg(LCD_REG_151, 0x0000);
0001fe  2100              MOVS     r1,#0
000200  2097              MOVS     r0,#0x97
000202  f7fffffe          BL       LCD_WriteReg
;;;304      LCD_WriteReg(LCD_REG_152, 0x0000);
000206  2100              MOVS     r1,#0
000208  2098              MOVS     r0,#0x98
00020a  f7fffffe          BL       LCD_WriteReg
;;;305      /* Set GRAM write direction and BGR = 1 */
;;;306      /* I/D=01 (Horizontal : increment, Vertical : decrement) */
;;;307      /* AM=1 (address is updated in vertical writing direction) */
;;;308      LCD_WriteReg(LCD_REG_3, 0x1018);
00020e  4651              MOV      r1,r10
000210  2003              MOVS     r0,#3
000212  f7fffffe          BL       LCD_WriteReg
;;;309      LCD_WriteReg(LCD_REG_7, 0x0173); /* 262K color and display ON */  
000216  f2401173          MOV      r1,#0x173
                  |L41.538|
00021a  2007              MOVS     r0,#7
00021c  f7fffffe          BL       LCD_WriteReg
;;;310      LCD_SetFont(&LCD_DEFAULT_FONT);  
000220  4883              LDR      r0,|L41.1072|
000222  3008              ADDS     r0,r0,#8
000224  6060              STR      r0,[r4,#4]  ; LCD_Currentfonts
;;;311    }
000226  e8bd87f0          POP      {r4-r10,pc}
                  |L41.554|
00022a  4619              MOV      r1,r3                 ;168
00022c  2001              MOVS     r0,#1                 ;168
00022e  f7fffffe          BL       LCD_WriteReg
000232  4631              MOV      r1,r6                 ;169
000234  2002              MOVS     r0,#2                 ;169
000236  f7fffffe          BL       LCD_WriteReg
00023a  4639              MOV      r1,r7                 ;170
00023c  2003              MOVS     r0,#3                 ;170
00023e  f7fffffe          BL       LCD_WriteReg
000242  2100              MOVS     r1,#0                 ;171
000244  2004              MOVS     r0,#4                 ;171
000246  f7fffffe          BL       LCD_WriteReg
00024a  4641              MOV      r1,r8                 ;172
00024c  2008              MOVS     r0,#8                 ;172
00024e  f7fffffe          BL       LCD_WriteReg
000252  2100              MOVS     r1,#0                 ;173
000254  2009              MOVS     r0,#9                 ;173
000256  f7fffffe          BL       LCD_WriteReg
00025a  2100              MOVS     r1,#0                 ;174
00025c  200a              MOVS     r0,#0xa               ;174
00025e  f7fffffe          BL       LCD_WriteReg
000262  2100              MOVS     r1,#0                 ;175
000264  200c              MOVS     r0,#0xc               ;175
000266  f7fffffe          BL       LCD_WriteReg
00026a  2100              MOVS     r1,#0                 ;176
00026c  200d              MOVS     r0,#0xd               ;176
00026e  f7fffffe          BL       LCD_WriteReg
000272  2100              MOVS     r1,#0                 ;177
000274  200f              MOVS     r0,#0xf               ;177
000276  f7fffffe          BL       LCD_WriteReg
00027a  2100              MOVS     r1,#0                 ;179
00027c  2010              MOVS     r0,#0x10              ;179
00027e  f7fffffe          BL       LCD_WriteReg
000282  2100              MOVS     r1,#0                 ;180
000284  2011              MOVS     r0,#0x11              ;180
000286  f7fffffe          BL       LCD_WriteReg
00028a  2100              MOVS     r1,#0                 ;181
00028c  2012              MOVS     r0,#0x12              ;181
00028e  f7fffffe          BL       LCD_WriteReg
000292  2100              MOVS     r1,#0                 ;182
000294  2013              MOVS     r0,#0x13              ;182
000296  f7fffffe          BL       LCD_WriteReg
00029a  2014              MOVS     r0,#0x14              ;183
00029c  f7fffffe          BL       delay
0002a0  2107              MOVS     r1,#7                 ;184
0002a2  2011              MOVS     r0,#0x11              ;184
0002a4  f7fffffe          BL       LCD_WriteReg
0002a8  2005              MOVS     r0,#5                 ;185
0002aa  f7fffffe          BL       delay
0002ae  f24121b0          MOV      r1,#0x12b0            ;186
0002b2  2010              MOVS     r0,#0x10              ;186
0002b4  f7fffffe          BL       LCD_WriteReg
0002b8  2005              MOVS     r0,#5                 ;187
0002ba  f7fffffe          BL       delay
0002be  f24011bd          MOV      r1,#0x1bd             ;188
0002c2  2012              MOVS     r0,#0x12              ;188
0002c4  f7fffffe          BL       LCD_WriteReg
0002c8  2005              MOVS     r0,#5                 ;189
0002ca  f7fffffe          BL       delay
0002ce  f44f51a0          MOV      r1,#0x1400            ;190
0002d2  2013              MOVS     r0,#0x13              ;190
0002d4  f7fffffe          BL       LCD_WriteReg
0002d8  210e              MOVS     r1,#0xe               ;191
0002da  2029              MOVS     r0,#0x29              ;191
0002dc  f7fffffe          BL       LCD_WriteReg
0002e0  2005              MOVS     r0,#5                 ;192
0002e2  f7fffffe          BL       delay
0002e6  2100              MOVS     r1,#0                 ;193
0002e8  2020              MOVS     r0,#0x20              ;193
0002ea  f7fffffe          BL       LCD_WriteReg
0002ee  4629              MOV      r1,r5                 ;194
0002f0  2021              MOVS     r0,#0x21              ;194
0002f2  f7fffffe          BL       LCD_WriteReg
0002f6  f640310d          MOV      r1,#0xb0d             ;196
0002fa  2030              MOVS     r0,#0x30              ;196
0002fc  f7fffffe          BL       LCD_WriteReg
000300  f6411123          MOV      r1,#0x1923            ;197
000304  2031              MOVS     r0,#0x31              ;197
000306  f7fffffe          BL       LCD_WriteReg
00030a  f6414126          MOV      r1,#0x1c26            ;198
00030e  2032              MOVS     r0,#0x32              ;198
000310  f7fffffe          BL       LCD_WriteReg
000314  f242611c          MOV      r1,#0x261c            ;199
000318  2033              MOVS     r0,#0x33              ;199
00031a  f7fffffe          BL       LCD_WriteReg
00031e  f2424119          MOV      r1,#0x2419            ;200
000322  2034              MOVS     r0,#0x34              ;200
000324  f7fffffe          BL       LCD_WriteReg
000328  f640510b          MOV      r1,#0xd0b             ;201
00032c  2035              MOVS     r0,#0x35              ;201
00032e  f7fffffe          BL       LCD_WriteReg
000332  f2410106          MOV      r1,#0x1006            ;202
000336  2036              MOVS     r0,#0x36              ;202
000338  f7fffffe          BL       LCD_WriteReg
00033c  f44f61c2          MOV      r1,#0x610             ;203
000340  2037              MOVS     r0,#0x37              ;203
000342  f7fffffe          BL       LCD_WriteReg
000346  f2407106          MOV      r1,#0x706             ;204
00034a  2038              MOVS     r0,#0x38              ;204
00034c  f7fffffe          BL       LCD_WriteReg
000350  f44f7141          MOV      r1,#0x304             ;205
000354  2039              MOVS     r0,#0x39              ;205
000356  f7fffffe          BL       LCD_WriteReg
00035a  f6406105          MOV      r1,#0xe05             ;206
00035e  203a              MOVS     r0,#0x3a              ;206
000360  f7fffffe          BL       LCD_WriteReg
000364  f6406101          MOV      r1,#0xe01             ;207
000368  203b              MOVS     r0,#0x3b              ;207
00036a  f7fffffe          BL       LCD_WriteReg
00036e  f44f7187          MOV      r1,#0x10e             ;208
000372  203c              MOVS     r0,#0x3c              ;208
000374  f7fffffe          BL       LCD_WriteReg
000378  f240510e          MOV      r1,#0x50e             ;209
00037c  203d              MOVS     r0,#0x3d              ;209
00037e  f7fffffe          BL       LCD_WriteReg
000382  f2404103          MOV      r1,#0x403             ;210
000386  203e              MOVS     r0,#0x3e              ;210
000388  f7fffffe          BL       LCD_WriteReg
00038c  f2406107          MOV      r1,#0x607             ;211
000390  203f              MOVS     r0,#0x3f              ;211
000392  f7fffffe          BL       LCD_WriteReg
000396  2100              MOVS     r1,#0                 ;213
000398  2050              MOVS     r0,#0x50              ;213
00039a  f7fffffe          BL       LCD_WriteReg
00039e  21ef              MOVS     r1,#0xef              ;214
0003a0  2051              MOVS     r0,#0x51              ;214
0003a2  f7fffffe          BL       LCD_WriteReg
0003a6  2100              MOVS     r1,#0                 ;215
0003a8  2052              MOVS     r0,#0x52              ;215
0003aa  f7fffffe          BL       LCD_WriteReg
0003ae  4629              MOV      r1,r5                 ;216
0003b0  2053              MOVS     r0,#0x53              ;216
0003b2  f7fffffe          BL       LCD_WriteReg
0003b6  f44f4127          MOV      r1,#0xa700            ;217
0003ba  2060              MOVS     r0,#0x60              ;217
0003bc  f7fffffe          BL       LCD_WriteReg
0003c0  2101              MOVS     r1,#1                 ;218
0003c2  2061              MOVS     r0,#0x61              ;218
0003c4  f7fffffe          BL       LCD_WriteReg
0003c8  2100              MOVS     r1,#0                 ;219
0003ca  206a              MOVS     r0,#0x6a              ;219
0003cc  f7fffffe          BL       LCD_WriteReg
0003d0  2100              MOVS     r1,#0                 ;221
0003d2  2080              MOVS     r0,#0x80              ;221
0003d4  f7fffffe          BL       LCD_WriteReg
0003d8  2100              MOVS     r1,#0                 ;222
0003da  2081              MOVS     r0,#0x81              ;222
0003dc  f7fffffe          BL       LCD_WriteReg
0003e0  2100              MOVS     r1,#0                 ;223
0003e2  2082              MOVS     r0,#0x82              ;223
0003e4  f7fffffe          BL       LCD_WriteReg
0003e8  2100              MOVS     r1,#0                 ;224
0003ea  2083              MOVS     r0,#0x83              ;224
0003ec  f7fffffe          BL       LCD_WriteReg
0003f0  2100              MOVS     r1,#0                 ;225
0003f2  2084              MOVS     r0,#0x84              ;225
0003f4  f7fffffe          BL       LCD_WriteReg
0003f8  2100              MOVS     r1,#0                 ;226
0003fa  2085              MOVS     r0,#0x85              ;226
0003fc  f7fffffe          BL       LCD_WriteReg
000400  2110              MOVS     r1,#0x10              ;228
000402  2090              MOVS     r0,#0x90              ;228
000404  f7fffffe          BL       LCD_WriteReg
000408  2100              MOVS     r1,#0                 ;229
00040a  2092              MOVS     r0,#0x92              ;229
00040c  f7fffffe          BL       LCD_WriteReg
000410  2103              MOVS     r1,#3                 ;230
000412  2093              MOVS     r0,#0x93              ;230
000414  f7fffffe          BL       LCD_WriteReg
000418  4649              MOV      r1,r9                 ;231
00041a  2095              MOVS     r0,#0x95              ;231
00041c  f7fffffe          BL       LCD_WriteReg
000420  2100              MOVS     r1,#0                 ;232
000422  2097              MOVS     r0,#0x97              ;232
000424  f7fffffe          BL       LCD_WriteReg
000428  2100              MOVS     r1,#0                 ;233
00042a  2098              MOVS     r0,#0x98              ;233
00042c  e002              B        |L41.1076|
00042e  0000              DCW      0x0000
                  |L41.1072|
                          DCD      ||.data||
                  |L41.1076|
000434  f7fffffe          BL       LCD_WriteReg
000438  4651              MOV      r1,r10                ;237
00043a  2003              MOVS     r0,#3                 ;237
00043c  f7fffffe          BL       LCD_WriteReg
000440  f44f7189          MOV      r1,#0x112             ;238
000444  e6e9              B        |L41.538|
;;;312    
                          ENDP


                          AREA ||i.delay||, CODE, READONLY, ALIGN=2

                  delay PROC
;;;1303     */
;;;1304   static void delay(vu32 nCount)
000000  b501              PUSH     {r0,lr}
;;;1305   {
000002  b081              SUB      sp,sp,#4
;;;1306     vu32 index = 0; 
;;;1307     for(index = (100000 * nCount); index != 0; index--)
000004  4904              LDR      r1,|L42.24|
000006  9801              LDR      r0,[sp,#4]
000008  4348              MULS     r0,r1,r0
                  |L42.10|
00000a  9000              STR      r0,[sp,#0]
00000c  2800              CMP      r0,#0
00000e  d001              BEQ      |L42.20|
000010  1e40              SUBS     r0,r0,#1
000012  e7fa              B        |L42.10|
                  |L42.20|
;;;1308     {
;;;1309     }
;;;1310   }
000014  bd0c              POP      {r2,r3,pc}
;;;1311   #endif /* USE_Delay*/
                          ENDP

000016  0000              DCW      0x0000
                  |L42.24|
                          DCD      0x000186a0

                          AREA ||.constdata||, DATA, READONLY, ALIGN=1

                  ASCII16x24_Table
000000  00000000          DCW      0x0000,0x0000
000004  00000000          DCW      0x0000,0x0000
000008  00000000          DCW      0x0000,0x0000
00000c  00000000          DCW      0x0000,0x0000
000010  00000000          DCW      0x0000,0x0000
000014  00000000          DCW      0x0000,0x0000
000018  00000000          DCW      0x0000,0x0000
00001c  00000000          DCW      0x0000,0x0000
000020  00000000          DCW      0x0000,0x0000
000024  00000000          DCW      0x0000,0x0000
000028  00000000          DCW      0x0000,0x0000
00002c  00000000          DCW      0x0000,0x0000
000030  00000180          DCW      0x0000,0x0180
000034  01800180          DCW      0x0180,0x0180
000038  01800180          DCW      0x0180,0x0180
00003c  01800180          DCW      0x0180,0x0180
000040  01800180          DCW      0x0180,0x0180
000044  01800180          DCW      0x0180,0x0180
000048  01800180          DCW      0x0180,0x0180
00004c  00000000          DCW      0x0000,0x0000
000050  01800180          DCW      0x0180,0x0180
000054  00000000          DCW      0x0000,0x0000
000058  00000000          DCW      0x0000,0x0000
00005c  00000000          DCW      0x0000,0x0000
000060  00000000          DCW      0x0000,0x0000
000064  00cc00cc          DCW      0x00cc,0x00cc
000068  00cc00cc          DCW      0x00cc,0x00cc
00006c  00cc00cc          DCW      0x00cc,0x00cc
000070  00000000          DCW      0x0000,0x0000
000074  00000000          DCW      0x0000,0x0000
000078  00000000          DCW      0x0000,0x0000
00007c  00000000          DCW      0x0000,0x0000
000080  00000000          DCW      0x0000,0x0000
000084  00000000          DCW      0x0000,0x0000
000088  00000000          DCW      0x0000,0x0000
00008c  00000000          DCW      0x0000,0x0000
000090  00000000          DCW      0x0000,0x0000
000094  00000000          DCW      0x0000,0x0000
000098  00000000          DCW      0x0000,0x0000
00009c  0c600c60          DCW      0x0c60,0x0c60
0000a0  0c600630          DCW      0x0c60,0x0630
0000a4  06301ffe          DCW      0x0630,0x1ffe
0000a8  1ffe0630          DCW      0x1ffe,0x0630
0000ac  07380318          DCW      0x0738,0x0318
0000b0  1ffe1ffe          DCW      0x1ffe,0x1ffe
0000b4  03180318          DCW      0x0318,0x0318
0000b8  018c018c          DCW      0x018c,0x018c
0000bc  018c0000          DCW      0x018c,0x0000
0000c0  00000080          DCW      0x0000,0x0080
0000c4  03e00ff8          DCW      0x03e0,0x0ff8
0000c8  0e9c1c8c          DCW      0x0e9c,0x1c8c
0000cc  188c008c          DCW      0x188c,0x008c
0000d0  009801f8          DCW      0x0098,0x01f8
0000d4  07e00e80          DCW      0x07e0,0x0e80
0000d8  1c80188c          DCW      0x1c80,0x188c
0000dc  188c189c          DCW      0x188c,0x189c
0000e0  0cb80ff0          DCW      0x0cb8,0x0ff0
0000e4  03e00080          DCW      0x03e0,0x0080
0000e8  00800000          DCW      0x0080,0x0000
0000ec  00000000          DCW      0x0000,0x0000
0000f0  00000000          DCW      0x0000,0x0000
0000f4  0000180e          DCW      0x0000,0x180e
0000f8  0c1b0c11          DCW      0x0c1b,0x0c11
0000fc  06110611          DCW      0x0611,0x0611
000100  03110311          DCW      0x0311,0x0311
000104  019b018e          DCW      0x019b,0x018e
000108  38c06cc0          DCW      0x38c0,0x6cc0
00010c  44604460          DCW      0x4460,0x4460
000110  44304430          DCW      0x4430,0x4430
000114  44186c18          DCW      0x4418,0x6c18
000118  380c0000          DCW      0x380c,0x0000
00011c  00000000          DCW      0x0000,0x0000
000120  000001e0          DCW      0x0000,0x01e0
000124  03f00738          DCW      0x03f0,0x0738
000128  06180618          DCW      0x0618,0x0618
00012c  033001f0          DCW      0x0330,0x01f0
000130  00f000f8          DCW      0x00f0,0x00f8
000134  319c330e          DCW      0x319c,0x330e
000138  1e061c06          DCW      0x1e06,0x1c06
00013c  1c063f06          DCW      0x1c06,0x3f06
000140  73fc21f0          DCW      0x73fc,0x21f0
000144  00000000          DCW      0x0000,0x0000
000148  00000000          DCW      0x0000,0x0000
00014c  00000000          DCW      0x0000,0x0000
000150  00000000          DCW      0x0000,0x0000
000154  000c000c          DCW      0x000c,0x000c
000158  000c000c          DCW      0x000c,0x000c
00015c  000c000c          DCW      0x000c,0x000c
000160  00000000          DCW      0x0000,0x0000
000164  00000000          DCW      0x0000,0x0000
000168  00000000          DCW      0x0000,0x0000
00016c  00000000          DCW      0x0000,0x0000
000170  00000000          DCW      0x0000,0x0000
000174  00000000          DCW      0x0000,0x0000
000178  00000000          DCW      0x0000,0x0000
00017c  00000000          DCW      0x0000,0x0000
000180  00000200          DCW      0x0000,0x0200
000184  03000180          DCW      0x0300,0x0180
000188  00c000c0          DCW      0x00c0,0x00c0
00018c  00600060          DCW      0x0060,0x0060
000190  00300030          DCW      0x0030,0x0030
000194  00300030          DCW      0x0030,0x0030
000198  00300030          DCW      0x0030,0x0030
00019c  00300030          DCW      0x0030,0x0030
0001a0  00600060          DCW      0x0060,0x0060
0001a4  00c000c0          DCW      0x00c0,0x00c0
0001a8  01800300          DCW      0x0180,0x0300
0001ac  02000000          DCW      0x0200,0x0000
0001b0  00000020          DCW      0x0000,0x0020
0001b4  006000c0          DCW      0x0060,0x00c0
0001b8  01800180          DCW      0x0180,0x0180
0001bc  03000300          DCW      0x0300,0x0300
0001c0  06000600          DCW      0x0600,0x0600
0001c4  06000600          DCW      0x0600,0x0600
0001c8  06000600          DCW      0x0600,0x0600
0001cc  06000600          DCW      0x0600,0x0600
0001d0  03000300          DCW      0x0300,0x0300
0001d4  01800180          DCW      0x0180,0x0180
0001d8  00c00060          DCW      0x00c0,0x0060
0001dc  00200000          DCW      0x0020,0x0000
0001e0  00000000          DCW      0x0000,0x0000
0001e4  00000000          DCW      0x0000,0x0000
0001e8  00000000          DCW      0x0000,0x0000
0001ec  00c000c0          DCW      0x00c0,0x00c0
0001f0  06d807f8          DCW      0x06d8,0x07f8
0001f4  01e00330          DCW      0x01e0,0x0330
0001f8  07380000          DCW      0x0738,0x0000
0001fc  00000000          DCW      0x0000,0x0000
000200  00000000          DCW      0x0000,0x0000
000204  00000000          DCW      0x0000,0x0000
000208  00000000          DCW      0x0000,0x0000
00020c  00000000          DCW      0x0000,0x0000
000210  00000000          DCW      0x0000,0x0000
000214  00000000          DCW      0x0000,0x0000
000218  00000000          DCW      0x0000,0x0000
00021c  01800180          DCW      0x0180,0x0180
000220  01800180          DCW      0x0180,0x0180
000224  01803ffc          DCW      0x0180,0x3ffc
000228  3ffc0180          DCW      0x3ffc,0x0180
00022c  01800180          DCW      0x0180,0x0180
000230  01800180          DCW      0x0180,0x0180
000234  00000000          DCW      0x0000,0x0000
000238  00000000          DCW      0x0000,0x0000
00023c  00000000          DCW      0x0000,0x0000
000240  00000000          DCW      0x0000,0x0000
000244  00000000          DCW      0x0000,0x0000
000248  00000000          DCW      0x0000,0x0000
00024c  00000000          DCW      0x0000,0x0000
000250  00000000          DCW      0x0000,0x0000
000254  00000000          DCW      0x0000,0x0000
000258  00000000          DCW      0x0000,0x0000
00025c  00000000          DCW      0x0000,0x0000
000260  00000180          DCW      0x0000,0x0180
000264  01800100          DCW      0x0180,0x0100
000268  01000080          DCW      0x0100,0x0080
00026c  00000000          DCW      0x0000,0x0000
000270  00000000          DCW      0x0000,0x0000
000274  00000000          DCW      0x0000,0x0000
000278  00000000          DCW      0x0000,0x0000
00027c  00000000          DCW      0x0000,0x0000
000280  00000000          DCW      0x0000,0x0000
000284  00000000          DCW      0x0000,0x0000
000288  07e007e0          DCW      0x07e0,0x07e0
00028c  00000000          DCW      0x0000,0x0000
000290  00000000          DCW      0x0000,0x0000
000294  00000000          DCW      0x0000,0x0000
000298  00000000          DCW      0x0000,0x0000
00029c  00000000          DCW      0x0000,0x0000
0002a0  00000000          DCW      0x0000,0x0000
0002a4  00000000          DCW      0x0000,0x0000
0002a8  00000000          DCW      0x0000,0x0000
0002ac  00000000          DCW      0x0000,0x0000
0002b0  00000000          DCW      0x0000,0x0000
0002b4  00000000          DCW      0x0000,0x0000
0002b8  00000000          DCW      0x0000,0x0000
0002bc  00000000          DCW      0x0000,0x0000
0002c0  000000c0          DCW      0x0000,0x00c0
0002c4  00c00000          DCW      0x00c0,0x0000
0002c8  00000000          DCW      0x0000,0x0000
0002cc  00000000          DCW      0x0000,0x0000
0002d0  00000c00          DCW      0x0000,0x0c00
0002d4  0c000600          DCW      0x0c00,0x0600
0002d8  06000600          DCW      0x0600,0x0600
0002dc  03000300          DCW      0x0300,0x0300
0002e0  03000380          DCW      0x0300,0x0380
0002e4  01800180          DCW      0x0180,0x0180
0002e8  018000c0          DCW      0x0180,0x00c0
0002ec  00c000c0          DCW      0x00c0,0x00c0
0002f0  00600060          DCW      0x0060,0x0060
0002f4  00000000          DCW      0x0000,0x0000
0002f8  00000000          DCW      0x0000,0x0000
0002fc  00000000          DCW      0x0000,0x0000
000300  000003e0          DCW      0x0000,0x03e0
000304  07f00e38          DCW      0x07f0,0x0e38
000308  0c18180c          DCW      0x0c18,0x180c
00030c  180c180c          DCW      0x180c,0x180c
000310  180c180c          DCW      0x180c,0x180c
000314  180c180c          DCW      0x180c,0x180c
000318  180c180c          DCW      0x180c,0x180c
00031c  0c180e38          DCW      0x0c18,0x0e38
000320  07f003e0          DCW      0x07f0,0x03e0
000324  00000000          DCW      0x0000,0x0000
000328  00000000          DCW      0x0000,0x0000
00032c  00000000          DCW      0x0000,0x0000
000330  00000100          DCW      0x0000,0x0100
000334  018001c0          DCW      0x0180,0x01c0
000338  01f00198          DCW      0x01f0,0x0198
00033c  01880180          DCW      0x0188,0x0180
000340  01800180          DCW      0x0180,0x0180
000344  01800180          DCW      0x0180,0x0180
000348  01800180          DCW      0x0180,0x0180
00034c  01800180          DCW      0x0180,0x0180
000350  01800180          DCW      0x0180,0x0180
000354  00000000          DCW      0x0000,0x0000
000358  00000000          DCW      0x0000,0x0000
00035c  00000000          DCW      0x0000,0x0000
000360  000003e0          DCW      0x0000,0x03e0
000364  0ff80c18          DCW      0x0ff8,0x0c18
000368  180c180c          DCW      0x180c,0x180c
00036c  18001800          DCW      0x1800,0x1800
000370  0c000600          DCW      0x0c00,0x0600
000374  03000180          DCW      0x0300,0x0180
000378  00c00060          DCW      0x00c0,0x0060
00037c  00300018          DCW      0x0030,0x0018
000380  1ffc1ffc          DCW      0x1ffc,0x1ffc
000384  00000000          DCW      0x0000,0x0000
000388  00000000          DCW      0x0000,0x0000
00038c  00000000          DCW      0x0000,0x0000
000390  000001e0          DCW      0x0000,0x01e0
000394  07f80e18          DCW      0x07f8,0x0e18
000398  0c0c0c0c          DCW      0x0c0c,0x0c0c
00039c  0c000600          DCW      0x0c00,0x0600
0003a0  03c007c0          DCW      0x03c0,0x07c0
0003a4  0c001800          DCW      0x0c00,0x1800
0003a8  1800180c          DCW      0x1800,0x180c
0003ac  180c0c18          DCW      0x180c,0x0c18
0003b0  07f803e0          DCW      0x07f8,0x03e0
0003b4  00000000          DCW      0x0000,0x0000
0003b8  00000000          DCW      0x0000,0x0000
0003bc  00000000          DCW      0x0000,0x0000
0003c0  00000c00          DCW      0x0000,0x0c00
0003c4  0e000f00          DCW      0x0e00,0x0f00
0003c8  0f000d80          DCW      0x0f00,0x0d80
0003cc  0cc00c60          DCW      0x0cc0,0x0c60
0003d0  0c600c30          DCW      0x0c60,0x0c30
0003d4  0c180c0c          DCW      0x0c18,0x0c0c
0003d8  3ffc3ffc          DCW      0x3ffc,0x3ffc
0003dc  0c000c00          DCW      0x0c00,0x0c00
0003e0  0c000c00          DCW      0x0c00,0x0c00
0003e4  00000000          DCW      0x0000,0x0000
0003e8  00000000          DCW      0x0000,0x0000
0003ec  00000000          DCW      0x0000,0x0000
0003f0  00000ff8          DCW      0x0000,0x0ff8
0003f4  0ff80018          DCW      0x0ff8,0x0018
0003f8  0018000c          DCW      0x0018,0x000c
0003fc  03ec07fc          DCW      0x03ec,0x07fc
000400  0e1c1c00          DCW      0x0e1c,0x1c00
000404  18001800          DCW      0x1800,0x1800
000408  1800180c          DCW      0x1800,0x180c
00040c  0c1c0e18          DCW      0x0c1c,0x0e18
000410  07f803e0          DCW      0x07f8,0x03e0
000414  00000000          DCW      0x0000,0x0000
000418  00000000          DCW      0x0000,0x0000
00041c  00000000          DCW      0x0000,0x0000
000420  000007c0          DCW      0x0000,0x07c0
000424  0ff01c38          DCW      0x0ff0,0x1c38
000428  18180018          DCW      0x1818,0x0018
00042c  000c03cc          DCW      0x000c,0x03cc
000430  0fec0e3c          DCW      0x0fec,0x0e3c
000434  1c1c180c          DCW      0x1c1c,0x180c
000438  180c180c          DCW      0x180c,0x180c
00043c  1c180e38          DCW      0x1c18,0x0e38
000440  07f003e0          DCW      0x07f0,0x03e0
000444  00000000          DCW      0x0000,0x0000
000448  00000000          DCW      0x0000,0x0000
00044c  00000000          DCW      0x0000,0x0000
000450  00001ffc          DCW      0x0000,0x1ffc
000454  1ffc0c00          DCW      0x1ffc,0x0c00
000458  06000600          DCW      0x0600,0x0600
00045c  03000380          DCW      0x0300,0x0380
000460  018001c0          DCW      0x0180,0x01c0
000464  00c000e0          DCW      0x00c0,0x00e0
000468  00600060          DCW      0x0060,0x0060
00046c  00700030          DCW      0x0070,0x0030
000470  00300030          DCW      0x0030,0x0030
000474  00000000          DCW      0x0000,0x0000
000478  00000000          DCW      0x0000,0x0000
00047c  00000000          DCW      0x0000,0x0000
000480  000003e0          DCW      0x0000,0x03e0
000484  07f00e38          DCW      0x07f0,0x0e38
000488  0c180c18          DCW      0x0c18,0x0c18
00048c  0c180638          DCW      0x0c18,0x0638
000490  07f007f0          DCW      0x07f0,0x07f0
000494  0c18180c          DCW      0x0c18,0x180c
000498  180c180c          DCW      0x180c,0x180c
00049c  180c0c38          DCW      0x180c,0x0c38
0004a0  0ff803e0          DCW      0x0ff8,0x03e0
0004a4  00000000          DCW      0x0000,0x0000
0004a8  00000000          DCW      0x0000,0x0000
0004ac  00000000          DCW      0x0000,0x0000
0004b0  000003e0          DCW      0x0000,0x03e0
0004b4  07f00e38          DCW      0x07f0,0x0e38
0004b8  0c1c180c          DCW      0x0c1c,0x180c
0004bc  180c180c          DCW      0x180c,0x180c
0004c0  1c1c1e38          DCW      0x1c1c,0x1e38
0004c4  1bf819e0          DCW      0x1bf8,0x19e0
0004c8  18000c00          DCW      0x1800,0x0c00
0004cc  0c000e1c          DCW      0x0c00,0x0e1c
0004d0  07f801f0          DCW      0x07f8,0x01f0
0004d4  00000000          DCW      0x0000,0x0000
0004d8  00000000          DCW      0x0000,0x0000
0004dc  00000000          DCW      0x0000,0x0000
0004e0  00000000          DCW      0x0000,0x0000
0004e4  00000000          DCW      0x0000,0x0000
0004e8  00000000          DCW      0x0000,0x0000
0004ec  01800180          DCW      0x0180,0x0180
0004f0  00000000          DCW      0x0000,0x0000
0004f4  00000000          DCW      0x0000,0x0000
0004f8  00000000          DCW      0x0000,0x0000
0004fc  00000000          DCW      0x0000,0x0000
000500  01800180          DCW      0x0180,0x0180
000504  00000000          DCW      0x0000,0x0000
000508  00000000          DCW      0x0000,0x0000
00050c  00000000          DCW      0x0000,0x0000
000510  00000000          DCW      0x0000,0x0000
000514  00000000          DCW      0x0000,0x0000
000518  00000000          DCW      0x0000,0x0000
00051c  01800180          DCW      0x0180,0x0180
000520  00000000          DCW      0x0000,0x0000
000524  00000000          DCW      0x0000,0x0000
000528  00000000          DCW      0x0000,0x0000
00052c  00000000          DCW      0x0000,0x0000
000530  01800180          DCW      0x0180,0x0180
000534  01000100          DCW      0x0100,0x0100
000538  00800000          DCW      0x0080,0x0000
00053c  00000000          DCW      0x0000,0x0000
000540  00000000          DCW      0x0000,0x0000
000544  00000000          DCW      0x0000,0x0000
000548  00000000          DCW      0x0000,0x0000
00054c  00000000          DCW      0x0000,0x0000
000550  10001c00          DCW      0x1000,0x1c00
000554  0f8003e0          DCW      0x0f80,0x03e0
000558  00f80018          DCW      0x00f8,0x0018
00055c  00f803e0          DCW      0x00f8,0x03e0
000560  0f801c00          DCW      0x0f80,0x1c00
000564  10000000          DCW      0x1000,0x0000
000568  00000000          DCW      0x0000,0x0000
00056c  00000000          DCW      0x0000,0x0000
000570  00000000          DCW      0x0000,0x0000
000574  00000000          DCW      0x0000,0x0000
000578  00000000          DCW      0x0000,0x0000
00057c  00000000          DCW      0x0000,0x0000
000580  1ff80000          DCW      0x1ff8,0x0000
000584  00000000          DCW      0x0000,0x0000
000588  1ff80000          DCW      0x1ff8,0x0000
00058c  00000000          DCW      0x0000,0x0000
000590  00000000          DCW      0x0000,0x0000
000594  00000000          DCW      0x0000,0x0000
000598  00000000          DCW      0x0000,0x0000
00059c  00000000          DCW      0x0000,0x0000
0005a0  00000000          DCW      0x0000,0x0000
0005a4  00000000          DCW      0x0000,0x0000
0005a8  00000000          DCW      0x0000,0x0000
0005ac  00000000          DCW      0x0000,0x0000
0005b0  00080038          DCW      0x0008,0x0038
0005b4  01f007c0          DCW      0x01f0,0x07c0
0005b8  1f001800          DCW      0x1f00,0x1800
0005bc  1f0007c0          DCW      0x1f00,0x07c0
0005c0  01f00038          DCW      0x01f0,0x0038
0005c4  00080000          DCW      0x0008,0x0000
0005c8  00000000          DCW      0x0000,0x0000
0005cc  00000000          DCW      0x0000,0x0000
0005d0  000003e0          DCW      0x0000,0x03e0
0005d4  0ff80c18          DCW      0x0ff8,0x0c18
0005d8  180c180c          DCW      0x180c,0x180c
0005dc  18000c00          DCW      0x1800,0x0c00
0005e0  06000300          DCW      0x0600,0x0300
0005e4  018000c0          DCW      0x0180,0x00c0
0005e8  00c000c0          DCW      0x00c0,0x00c0
0005ec  00000000          DCW      0x0000,0x0000
0005f0  00c000c0          DCW      0x00c0,0x00c0
0005f4  00000000          DCW      0x0000,0x0000
0005f8  00000000          DCW      0x0000,0x0000
0005fc  00000000          DCW      0x0000,0x0000
000600  00000000          DCW      0x0000,0x0000
000604  07e01818          DCW      0x07e0,0x1818
000608  200429c2          DCW      0x2004,0x29c2
00060c  4a224411          DCW      0x4a22,0x4411
000610  44094409          DCW      0x4409,0x4409
000614  44092209          DCW      0x4409,0x2209
000618  13110ce2          DCW      0x1311,0x0ce2
00061c  40022004          DCW      0x4002,0x2004
000620  181807e0          DCW      0x1818,0x07e0
000624  00000000          DCW      0x0000,0x0000
000628  00000000          DCW      0x0000,0x0000
00062c  00000000          DCW      0x0000,0x0000
000630  00000380          DCW      0x0000,0x0380
000634  038006c0          DCW      0x0380,0x06c0
000638  06c006c0          DCW      0x06c0,0x06c0
00063c  0c600c60          DCW      0x0c60,0x0c60
000640  18301830          DCW      0x1830,0x1830
000644  18303ff8          DCW      0x1830,0x3ff8
000648  3ff8701c          DCW      0x3ff8,0x701c
00064c  600c600c          DCW      0x600c,0x600c
000650  c006c006          DCW      0xc006,0xc006
000654  00000000          DCW      0x0000,0x0000
000658  00000000          DCW      0x0000,0x0000
00065c  00000000          DCW      0x0000,0x0000
000660  000003fc          DCW      0x0000,0x03fc
000664  0ffc0c0c          DCW      0x0ffc,0x0c0c
000668  180c180c          DCW      0x180c,0x180c
00066c  180c0c0c          DCW      0x180c,0x0c0c
000670  07fc0ffc          DCW      0x07fc,0x0ffc
000674  180c300c          DCW      0x180c,0x300c
000678  300c300c          DCW      0x300c,0x300c
00067c  300c180c          DCW      0x300c,0x180c
000680  1ffc07fc          DCW      0x1ffc,0x07fc
000684  00000000          DCW      0x0000,0x0000
000688  00000000          DCW      0x0000,0x0000
00068c  00000000          DCW      0x0000,0x0000
000690  000007c0          DCW      0x0000,0x07c0
000694  1ff03838          DCW      0x1ff0,0x3838
000698  301c700c          DCW      0x301c,0x700c
00069c  60060006          DCW      0x6006,0x0006
0006a0  00060006          DCW      0x0006,0x0006
0006a4  00060006          DCW      0x0006,0x0006
0006a8  00066006          DCW      0x0006,0x6006
0006ac  700c301c          DCW      0x700c,0x301c
0006b0  1ff007e0          DCW      0x1ff0,0x07e0
0006b4  00000000          DCW      0x0000,0x0000
0006b8  00000000          DCW      0x0000,0x0000
0006bc  00000000          DCW      0x0000,0x0000
0006c0  000003fe          DCW      0x0000,0x03fe
0006c4  0ffe0e06          DCW      0x0ffe,0x0e06
0006c8  18061806          DCW      0x1806,0x1806
0006cc  30063006          DCW      0x3006,0x3006
0006d0  30063006          DCW      0x3006,0x3006
0006d4  30063006          DCW      0x3006,0x3006
0006d8  30061806          DCW      0x3006,0x1806
0006dc  18060e06          DCW      0x1806,0x0e06
0006e0  0ffe03fe          DCW      0x0ffe,0x03fe
0006e4  00000000          DCW      0x0000,0x0000
0006e8  00000000          DCW      0x0000,0x0000
0006ec  00000000          DCW      0x0000,0x0000
0006f0  00003ffc          DCW      0x0000,0x3ffc
0006f4  3ffc000c          DCW      0x3ffc,0x000c
0006f8  000c000c          DCW      0x000c,0x000c
0006fc  000c000c          DCW      0x000c,0x000c
000700  1ffc1ffc          DCW      0x1ffc,0x1ffc
000704  000c000c          DCW      0x000c,0x000c
000708  000c000c          DCW      0x000c,0x000c
00070c  000c000c          DCW      0x000c,0x000c
000710  3ffc3ffc          DCW      0x3ffc,0x3ffc
000714  00000000          DCW      0x0000,0x0000
000718  00000000          DCW      0x0000,0x0000
00071c  00000000          DCW      0x0000,0x0000
000720  00003ff8          DCW      0x0000,0x3ff8
000724  3ff80018          DCW      0x3ff8,0x0018
000728  00180018          DCW      0x0018,0x0018
00072c  00180018          DCW      0x0018,0x0018
000730  1ff81ff8          DCW      0x1ff8,0x1ff8
000734  00180018          DCW      0x0018,0x0018
000738  00180018          DCW      0x0018,0x0018
00073c  00180018          DCW      0x0018,0x0018
000740  00180018          DCW      0x0018,0x0018
000744  00000000          DCW      0x0000,0x0000
000748  00000000          DCW      0x0000,0x0000
00074c  00000000          DCW      0x0000,0x0000
000750  00000fe0          DCW      0x0000,0x0fe0
000754  3ff8783c          DCW      0x3ff8,0x783c
000758  600ee006          DCW      0x600e,0xe006
00075c  c0070003          DCW      0xc007,0x0003
000760  0003fe03          DCW      0x0003,0xfe03
000764  fe03c003          DCW      0xfe03,0xc003
000768  c007c006          DCW      0xc007,0xc006
00076c  c00ef03c          DCW      0xc00e,0xf03c
000770  3ff80fe0          DCW      0x3ff8,0x0fe0
000774  00000000          DCW      0x0000,0x0000
000778  00000000          DCW      0x0000,0x0000
00077c  00000000          DCW      0x0000,0x0000
000780  0000300c          DCW      0x0000,0x300c
000784  300c300c          DCW      0x300c,0x300c
000788  300c300c          DCW      0x300c,0x300c
00078c  300c300c          DCW      0x300c,0x300c
000790  3ffc3ffc          DCW      0x3ffc,0x3ffc
000794  300c300c          DCW      0x300c,0x300c
000798  300c300c          DCW      0x300c,0x300c
00079c  300c300c          DCW      0x300c,0x300c
0007a0  300c300c          DCW      0x300c,0x300c
0007a4  00000000          DCW      0x0000,0x0000
0007a8  00000000          DCW      0x0000,0x0000
0007ac  00000000          DCW      0x0000,0x0000
0007b0  00000180          DCW      0x0000,0x0180
0007b4  01800180          DCW      0x0180,0x0180
0007b8  01800180          DCW      0x0180,0x0180
0007bc  01800180          DCW      0x0180,0x0180
0007c0  01800180          DCW      0x0180,0x0180
0007c4  01800180          DCW      0x0180,0x0180
0007c8  01800180          DCW      0x0180,0x0180
0007cc  01800180          DCW      0x0180,0x0180
0007d0  01800180          DCW      0x0180,0x0180
0007d4  00000000          DCW      0x0000,0x0000
0007d8  00000000          DCW      0x0000,0x0000
0007dc  00000000          DCW      0x0000,0x0000
0007e0  00000600          DCW      0x0000,0x0600
0007e4  06000600          DCW      0x0600,0x0600
0007e8  06000600          DCW      0x0600,0x0600
0007ec  06000600          DCW      0x0600,0x0600
0007f0  06000600          DCW      0x0600,0x0600
0007f4  06000600          DCW      0x0600,0x0600
0007f8  06000618          DCW      0x0600,0x0618
0007fc  06180738          DCW      0x0618,0x0738
000800  03f001e0          DCW      0x03f0,0x01e0
000804  00000000          DCW      0x0000,0x0000
000808  00000000          DCW      0x0000,0x0000
00080c  00000000          DCW      0x0000,0x0000
000810  00003006          DCW      0x0000,0x3006
000814  18060c06          DCW      0x1806,0x0c06
000818  06060306          DCW      0x0606,0x0306
00081c  018600c6          DCW      0x0186,0x00c6
000820  00660076          DCW      0x0066,0x0076
000824  00de018e          DCW      0x00de,0x018e
000828  03060606          DCW      0x0306,0x0606
00082c  0c061806          DCW      0x0c06,0x1806
000830  30066006          DCW      0x3006,0x6006
000834  00000000          DCW      0x0000,0x0000
000838  00000000          DCW      0x0000,0x0000
00083c  00000000          DCW      0x0000,0x0000
000840  00000018          DCW      0x0000,0x0018
000844  00180018          DCW      0x0018,0x0018
000848  00180018          DCW      0x0018,0x0018
00084c  00180018          DCW      0x0018,0x0018
000850  00180018          DCW      0x0018,0x0018
000854  00180018          DCW      0x0018,0x0018
000858  00180018          DCW      0x0018,0x0018
00085c  00180018          DCW      0x0018,0x0018
000860  1ff81ff8          DCW      0x1ff8,0x1ff8
000864  00000000          DCW      0x0000,0x0000
000868  00000000          DCW      0x0000,0x0000
00086c  00000000          DCW      0x0000,0x0000
000870  0000e00e          DCW      0x0000,0xe00e
000874  f01ef01e          DCW      0xf01e,0xf01e
000878  f01ed836          DCW      0xf01e,0xd836
00087c  d836d836          DCW      0xd836,0xd836
000880  d836cc66          DCW      0xd836,0xcc66
000884  cc66cc66          DCW      0xcc66,0xcc66
000888  c6c6c6c6          DCW      0xc6c6,0xc6c6
00088c  c6c6c6c6          DCW      0xc6c6,0xc6c6
000890  c386c386          DCW      0xc386,0xc386
000894  00000000          DCW      0x0000,0x0000
000898  00000000          DCW      0x0000,0x0000
00089c  00000000          DCW      0x0000,0x0000
0008a0  0000300c          DCW      0x0000,0x300c
0008a4  301c303c          DCW      0x301c,0x303c
0008a8  303c306c          DCW      0x303c,0x306c
0008ac  306c30cc          DCW      0x306c,0x30cc
0008b0  30cc318c          DCW      0x30cc,0x318c
0008b4  330c330c          DCW      0x330c,0x330c
0008b8  360c360c          DCW      0x360c,0x360c
0008bc  3c0c3c0c          DCW      0x3c0c,0x3c0c
0008c0  380c300c          DCW      0x380c,0x300c
0008c4  00000000          DCW      0x0000,0x0000
0008c8  00000000          DCW      0x0000,0x0000
0008cc  00000000          DCW      0x0000,0x0000
0008d0  000007e0          DCW      0x0000,0x07e0
0008d4  1ff8381c          DCW      0x1ff8,0x381c
0008d8  700e6006          DCW      0x700e,0x6006
0008dc  c003c003          DCW      0xc003,0xc003
0008e0  c003c003          DCW      0xc003,0xc003
0008e4  c003c003          DCW      0xc003,0xc003
0008e8  c0036006          DCW      0xc003,0x6006
0008ec  700e381c          DCW      0x700e,0x381c
0008f0  1ff807e0          DCW      0x1ff8,0x07e0
0008f4  00000000          DCW      0x0000,0x0000
0008f8  00000000          DCW      0x0000,0x0000
0008fc  00000000          DCW      0x0000,0x0000
000900  00000ffc          DCW      0x0000,0x0ffc
000904  1ffc380c          DCW      0x1ffc,0x380c
000908  300c300c          DCW      0x300c,0x300c
00090c  300c300c          DCW      0x300c,0x300c
000910  180c1ffc          DCW      0x180c,0x1ffc
000914  07fc000c          DCW      0x07fc,0x000c
000918  000c000c          DCW      0x000c,0x000c
00091c  000c000c          DCW      0x000c,0x000c
000920  000c000c          DCW      0x000c,0x000c
000924  00000000          DCW      0x0000,0x0000
000928  00000000          DCW      0x0000,0x0000
00092c  00000000          DCW      0x0000,0x0000
000930  000007e0          DCW      0x0000,0x07e0
000934  1ff8381c          DCW      0x1ff8,0x381c
000938  700e6006          DCW      0x700e,0x6006
00093c  e003c003          DCW      0xe003,0xc003
000940  c003c003          DCW      0xc003,0xc003
000944  c003c003          DCW      0xc003,0xc003
000948  e0076306          DCW      0xe007,0x6306
00094c  3f0e3c1c          DCW      0x3f0e,0x3c1c
000950  3ff8f7e0          DCW      0x3ff8,0xf7e0
000954  c0000000          DCW      0xc000,0x0000
000958  00000000          DCW      0x0000,0x0000
00095c  00000000          DCW      0x0000,0x0000
000960  00000ffe          DCW      0x0000,0x0ffe
000964  1ffe3806          DCW      0x1ffe,0x3806
000968  30063006          DCW      0x3006,0x3006
00096c  30063806          DCW      0x3006,0x3806
000970  1ffe07fe          DCW      0x1ffe,0x07fe
000974  03060606          DCW      0x0306,0x0606
000978  0c061806          DCW      0x0c06,0x1806
00097c  18063006          DCW      0x1806,0x3006
000980  30066006          DCW      0x3006,0x6006
000984  00000000          DCW      0x0000,0x0000
000988  00000000          DCW      0x0000,0x0000
00098c  00000000          DCW      0x0000,0x0000
000990  000003e0          DCW      0x0000,0x03e0
000994  0ff80c1c          DCW      0x0ff8,0x0c1c
000998  180c180c          DCW      0x180c,0x180c
00099c  000c001c          DCW      0x000c,0x001c
0009a0  03f80fe0          DCW      0x03f8,0x0fe0
0009a4  1e003800          DCW      0x1e00,0x3800
0009a8  30063006          DCW      0x3006,0x3006
0009ac  300e1c1c          DCW      0x300e,0x1c1c
0009b0  0ff807e0          DCW      0x0ff8,0x07e0
0009b4  00000000          DCW      0x0000,0x0000
0009b8  00000000          DCW      0x0000,0x0000
0009bc  00000000          DCW      0x0000,0x0000
0009c0  00007ffe          DCW      0x0000,0x7ffe
0009c4  7ffe0180          DCW      0x7ffe,0x0180
0009c8  01800180          DCW      0x0180,0x0180
0009cc  01800180          DCW      0x0180,0x0180
0009d0  01800180          DCW      0x0180,0x0180
0009d4  01800180          DCW      0x0180,0x0180
0009d8  01800180          DCW      0x0180,0x0180
0009dc  01800180          DCW      0x0180,0x0180
0009e0  01800180          DCW      0x0180,0x0180
0009e4  00000000          DCW      0x0000,0x0000
0009e8  00000000          DCW      0x0000,0x0000
0009ec  00000000          DCW      0x0000,0x0000
0009f0  0000300c          DCW      0x0000,0x300c
0009f4  300c300c          DCW      0x300c,0x300c
0009f8  300c300c          DCW      0x300c,0x300c
0009fc  300c300c          DCW      0x300c,0x300c
000a00  300c300c          DCW      0x300c,0x300c
000a04  300c300c          DCW      0x300c,0x300c
000a08  300c300c          DCW      0x300c,0x300c
000a0c  300c1818          DCW      0x300c,0x1818
000a10  1ff807e0          DCW      0x1ff8,0x07e0
000a14  00000000          DCW      0x0000,0x0000
000a18  00000000          DCW      0x0000,0x0000
000a1c  00000000          DCW      0x0000,0x0000
000a20  00006003          DCW      0x0000,0x6003
000a24  30063006          DCW      0x3006,0x3006
000a28  3006180c          DCW      0x3006,0x180c
000a2c  180c180c          DCW      0x180c,0x180c
000a30  0c180c18          DCW      0x0c18,0x0c18
000a34  0e380630          DCW      0x0e38,0x0630
000a38  06300770          DCW      0x0630,0x0770
000a3c  03600360          DCW      0x0360,0x0360
000a40  01c001c0          DCW      0x01c0,0x01c0
000a44  00000000          DCW      0x0000,0x0000
000a48  00000000          DCW      0x0000,0x0000
000a4c  00000000          DCW      0x0000,0x0000
000a50  00006003          DCW      0x0000,0x6003
000a54  61c361c3          DCW      0x61c3,0x61c3
000a58  61c33366          DCW      0x61c3,0x3366
000a5c  33663366          DCW      0x3366,0x3366
000a60  33663366          DCW      0x3366,0x3366
000a64  33661b6c          DCW      0x3366,0x1b6c
000a68  1b6c1b6c          DCW      0x1b6c,0x1b6c
000a6c  1a2c1e3c          DCW      0x1a2c,0x1e3c
000a70  0e380e38          DCW      0x0e38,0x0e38
000a74  00000000          DCW      0x0000,0x0000
000a78  00000000          DCW      0x0000,0x0000
000a7c  00000000          DCW      0x0000,0x0000
000a80  0000e00f          DCW      0x0000,0xe00f
000a84  700c3018          DCW      0x700c,0x3018
000a88  18300c70          DCW      0x1830,0x0c70
000a8c  0e6007c0          DCW      0x0e60,0x07c0
000a90  03800380          DCW      0x0380,0x0380
000a94  03c006e0          DCW      0x03c0,0x06e0
000a98  0c701c30          DCW      0x0c70,0x1c30
000a9c  1818300c          DCW      0x1818,0x300c
000aa0  600ee007          DCW      0x600e,0xe007
000aa4  00000000          DCW      0x0000,0x0000
000aa8  00000000          DCW      0x0000,0x0000
000aac  00000000          DCW      0x0000,0x0000
000ab0  0000c003          DCW      0x0000,0xc003
000ab4  6006300c          DCW      0x6006,0x300c
000ab8  381c1838          DCW      0x381c,0x1838
000abc  0c300660          DCW      0x0c30,0x0660
000ac0  07e003c0          DCW      0x07e0,0x03c0
000ac4  01800180          DCW      0x0180,0x0180
000ac8  01800180          DCW      0x0180,0x0180
000acc  01800180          DCW      0x0180,0x0180
000ad0  01800180          DCW      0x0180,0x0180
000ad4  00000000          DCW      0x0000,0x0000
000ad8  00000000          DCW      0x0000,0x0000
000adc  00000000          DCW      0x0000,0x0000
000ae0  00007ffc          DCW      0x0000,0x7ffc
000ae4  7ffc6000          DCW      0x7ffc,0x6000
000ae8  30001800          DCW      0x3000,0x1800
000aec  0c000600          DCW      0x0c00,0x0600
000af0  03000180          DCW      0x0300,0x0180
000af4  00c00060          DCW      0x00c0,0x0060
000af8  00300018          DCW      0x0030,0x0018
000afc  000c0006          DCW      0x000c,0x0006
000b00  7ffe7ffe          DCW      0x7ffe,0x7ffe
000b04  00000000          DCW      0x0000,0x0000
000b08  00000000          DCW      0x0000,0x0000
000b0c  00000000          DCW      0x0000,0x0000
000b10  000003e0          DCW      0x0000,0x03e0
000b14  03e00060          DCW      0x03e0,0x0060
000b18  00600060          DCW      0x0060,0x0060
000b1c  00600060          DCW      0x0060,0x0060
000b20  00600060          DCW      0x0060,0x0060
000b24  00600060          DCW      0x0060,0x0060
000b28  00600060          DCW      0x0060,0x0060
000b2c  00600060          DCW      0x0060,0x0060
000b30  00600060          DCW      0x0060,0x0060
000b34  00600060          DCW      0x0060,0x0060
000b38  006003e0          DCW      0x0060,0x03e0
000b3c  03e00000          DCW      0x03e0,0x0000
000b40  00000030          DCW      0x0000,0x0030
000b44  00300060          DCW      0x0030,0x0060
000b48  00600060          DCW      0x0060,0x0060
000b4c  00c000c0          DCW      0x00c0,0x00c0
000b50  00c001c0          DCW      0x00c0,0x01c0
000b54  01800180          DCW      0x0180,0x0180
000b58  01800300          DCW      0x0180,0x0300
000b5c  03000300          DCW      0x0300,0x0300
000b60  06000600          DCW      0x0600,0x0600
000b64  00000000          DCW      0x0000,0x0000
000b68  00000000          DCW      0x0000,0x0000
000b6c  00000000          DCW      0x0000,0x0000
000b70  000003e0          DCW      0x0000,0x03e0
000b74  03e00300          DCW      0x03e0,0x0300
000b78  03000300          DCW      0x0300,0x0300
000b7c  03000300          DCW      0x0300,0x0300
000b80  03000300          DCW      0x0300,0x0300
000b84  03000300          DCW      0x0300,0x0300
000b88  03000300          DCW      0x0300,0x0300
000b8c  03000300          DCW      0x0300,0x0300
000b90  03000300          DCW      0x0300,0x0300
000b94  03000300          DCW      0x0300,0x0300
000b98  030003e0          DCW      0x0300,0x03e0
000b9c  03e00000          DCW      0x03e0,0x0000
000ba0  00000000          DCW      0x0000,0x0000
000ba4  01c001c0          DCW      0x01c0,0x01c0
000ba8  03600360          DCW      0x0360,0x0360
000bac  03600630          DCW      0x0360,0x0630
000bb0  06300c18          DCW      0x0630,0x0c18
000bb4  0c180000          DCW      0x0c18,0x0000
000bb8  00000000          DCW      0x0000,0x0000
000bbc  00000000          DCW      0x0000,0x0000
000bc0  00000000          DCW      0x0000,0x0000
000bc4  00000000          DCW      0x0000,0x0000
000bc8  00000000          DCW      0x0000,0x0000
000bcc  00000000          DCW      0x0000,0x0000
000bd0  00000000          DCW      0x0000,0x0000
000bd4  00000000          DCW      0x0000,0x0000
000bd8  00000000          DCW      0x0000,0x0000
000bdc  00000000          DCW      0x0000,0x0000
000be0  00000000          DCW      0x0000,0x0000
000be4  00000000          DCW      0x0000,0x0000
000be8  00000000          DCW      0x0000,0x0000
000bec  00000000          DCW      0x0000,0x0000
000bf0  0000ffff          DCW      0x0000,0xffff
000bf4  ffff0000          DCW      0xffff,0x0000
000bf8  00000000          DCW      0x0000,0x0000
000bfc  00000000          DCW      0x0000,0x0000
000c00  0000000c          DCW      0x0000,0x000c
000c04  000c000c          DCW      0x000c,0x000c
000c08  000c000c          DCW      0x000c,0x000c
000c0c  000c0000          DCW      0x000c,0x0000
000c10  00000000          DCW      0x0000,0x0000
000c14  00000000          DCW      0x0000,0x0000
000c18  00000000          DCW      0x0000,0x0000
000c1c  00000000          DCW      0x0000,0x0000
000c20  00000000          DCW      0x0000,0x0000
000c24  00000000          DCW      0x0000,0x0000
000c28  00000000          DCW      0x0000,0x0000
000c2c  00000000          DCW      0x0000,0x0000
000c30  00000000          DCW      0x0000,0x0000
000c34  00000000          DCW      0x0000,0x0000
000c38  00000000          DCW      0x0000,0x0000
000c3c  03f007f8          DCW      0x03f0,0x07f8
000c40  0c1c0c0c          DCW      0x0c1c,0x0c0c
000c44  0f000ff0          DCW      0x0f00,0x0ff0
000c48  0cf80c0c          DCW      0x0cf8,0x0c0c
000c4c  0c0c0f1c          DCW      0x0c0c,0x0f1c
000c50  0ff818f0          DCW      0x0ff8,0x18f0
000c54  00000000          DCW      0x0000,0x0000
000c58  00000000          DCW      0x0000,0x0000
000c5c  00000000          DCW      0x0000,0x0000
000c60  00000018          DCW      0x0000,0x0018
000c64  00180018          DCW      0x0018,0x0018
000c68  00180018          DCW      0x0018,0x0018
000c6c  03d80ff8          DCW      0x03d8,0x0ff8
000c70  0c381818          DCW      0x0c38,0x1818
000c74  18181818          DCW      0x1818,0x1818
000c78  18181818          DCW      0x1818,0x1818
000c7c  18180c38          DCW      0x1818,0x0c38
000c80  0ff803d8          DCW      0x0ff8,0x03d8
000c84  00000000          DCW      0x0000,0x0000
000c88  00000000          DCW      0x0000,0x0000
000c8c  00000000          DCW      0x0000,0x0000
000c90  00000000          DCW      0x0000,0x0000
000c94  00000000          DCW      0x0000,0x0000
000c98  00000000          DCW      0x0000,0x0000
000c9c  03c007f0          DCW      0x03c0,0x07f0
000ca0  0e300c18          DCW      0x0e30,0x0c18
000ca4  00180018          DCW      0x0018,0x0018
000ca8  00180018          DCW      0x0018,0x0018
000cac  0c180e30          DCW      0x0c18,0x0e30
000cb0  07f003c0          DCW      0x07f0,0x03c0
000cb4  00000000          DCW      0x0000,0x0000
000cb8  00000000          DCW      0x0000,0x0000
000cbc  00000000          DCW      0x0000,0x0000
000cc0  00001800          DCW      0x0000,0x1800
000cc4  18001800          DCW      0x1800,0x1800
000cc8  18001800          DCW      0x1800,0x1800
000ccc  1bc01ff0          DCW      0x1bc0,0x1ff0
000cd0  1c301818          DCW      0x1c30,0x1818
000cd4  18181818          DCW      0x1818,0x1818
000cd8  18181818          DCW      0x1818,0x1818
000cdc  18181c30          DCW      0x1818,0x1c30
000ce0  1ff01bc0          DCW      0x1ff0,0x1bc0
000ce4  00000000          DCW      0x0000,0x0000
000ce8  00000000          DCW      0x0000,0x0000
000cec  00000000          DCW      0x0000,0x0000
000cf0  00000000          DCW      0x0000,0x0000
000cf4  00000000          DCW      0x0000,0x0000
000cf8  00000000          DCW      0x0000,0x0000
000cfc  03c00ff0          DCW      0x03c0,0x0ff0
000d00  0c301818          DCW      0x0c30,0x1818
000d04  1ff81ff8          DCW      0x1ff8,0x1ff8
000d08  00180018          DCW      0x0018,0x0018
000d0c  18381c30          DCW      0x1838,0x1c30
000d10  0ff007c0          DCW      0x0ff0,0x07c0
000d14  00000000          DCW      0x0000,0x0000
000d18  00000000          DCW      0x0000,0x0000
000d1c  00000000          DCW      0x0000,0x0000
000d20  00000f80          DCW      0x0000,0x0f80
000d24  0fc000c0          DCW      0x0fc0,0x00c0
000d28  00c000c0          DCW      0x00c0,0x00c0
000d2c  07f007f0          DCW      0x07f0,0x07f0
000d30  00c000c0          DCW      0x00c0,0x00c0
000d34  00c000c0          DCW      0x00c0,0x00c0
000d38  00c000c0          DCW      0x00c0,0x00c0
000d3c  00c000c0          DCW      0x00c0,0x00c0
000d40  00c000c0          DCW      0x00c0,0x00c0
000d44  00000000          DCW      0x0000,0x0000
000d48  00000000          DCW      0x0000,0x0000
000d4c  00000000          DCW      0x0000,0x0000
000d50  00000000          DCW      0x0000,0x0000
000d54  00000000          DCW      0x0000,0x0000
000d58  00000000          DCW      0x0000,0x0000
000d5c  0de00ff8          DCW      0x0de0,0x0ff8
000d60  0e180c0c          DCW      0x0e18,0x0c0c
000d64  0c0c0c0c          DCW      0x0c0c,0x0c0c
000d68  0c0c0c0c          DCW      0x0c0c,0x0c0c
000d6c  0c0c0e18          DCW      0x0c0c,0x0e18
000d70  0ff80de0          DCW      0x0ff8,0x0de0
000d74  0c000c0c          DCW      0x0c00,0x0c0c
000d78  061c07f8          DCW      0x061c,0x07f8
000d7c  01f00000          DCW      0x01f0,0x0000
000d80  00000018          DCW      0x0000,0x0018
000d84  00180018          DCW      0x0018,0x0018
000d88  00180018          DCW      0x0018,0x0018
000d8c  07d80ff8          DCW      0x07d8,0x0ff8
000d90  1c381818          DCW      0x1c38,0x1818
000d94  18181818          DCW      0x1818,0x1818
000d98  18181818          DCW      0x1818,0x1818
000d9c  18181818          DCW      0x1818,0x1818
000da0  18181818          DCW      0x1818,0x1818
000da4  00000000          DCW      0x0000,0x0000
000da8  00000000          DCW      0x0000,0x0000
000dac  00000000          DCW      0x0000,0x0000
000db0  000000c0          DCW      0x0000,0x00c0
000db4  00c00000          DCW      0x00c0,0x0000
000db8  00000000          DCW      0x0000,0x0000
000dbc  00c000c0          DCW      0x00c0,0x00c0
000dc0  00c000c0          DCW      0x00c0,0x00c0
000dc4  00c000c0          DCW      0x00c0,0x00c0
000dc8  00c000c0          DCW      0x00c0,0x00c0
000dcc  00c000c0          DCW      0x00c0,0x00c0
000dd0  00c000c0          DCW      0x00c0,0x00c0
000dd4  00000000          DCW      0x0000,0x0000
000dd8  00000000          DCW      0x0000,0x0000
000ddc  00000000          DCW      0x0000,0x0000
000de0  000000c0          DCW      0x0000,0x00c0
000de4  00c00000          DCW      0x00c0,0x0000
000de8  00000000          DCW      0x0000,0x0000
000dec  00c000c0          DCW      0x00c0,0x00c0
000df0  00c000c0          DCW      0x00c0,0x00c0
000df4  00c000c0          DCW      0x00c0,0x00c0
000df8  00c000c0          DCW      0x00c0,0x00c0
000dfc  00c000c0          DCW      0x00c0,0x00c0
000e00  00c000c0          DCW      0x00c0,0x00c0
000e04  00c000c0          DCW      0x00c0,0x00c0
000e08  00c000f8          DCW      0x00c0,0x00f8
000e0c  00780000          DCW      0x0078,0x0000
000e10  0000000c          DCW      0x0000,0x000c
000e14  000c000c          DCW      0x000c,0x000c
000e18  000c000c          DCW      0x000c,0x000c
000e1c  0c0c060c          DCW      0x0c0c,0x060c
000e20  030c018c          DCW      0x030c,0x018c
000e24  00cc006c          DCW      0x00cc,0x006c
000e28  00fc019c          DCW      0x00fc,0x019c
000e2c  038c030c          DCW      0x038c,0x030c
000e30  060c0c0c          DCW      0x060c,0x0c0c
000e34  00000000          DCW      0x0000,0x0000
000e38  00000000          DCW      0x0000,0x0000
000e3c  00000000          DCW      0x0000,0x0000
000e40  000000c0          DCW      0x0000,0x00c0
000e44  00c000c0          DCW      0x00c0,0x00c0
000e48  00c000c0          DCW      0x00c0,0x00c0
000e4c  00c000c0          DCW      0x00c0,0x00c0
000e50  00c000c0          DCW      0x00c0,0x00c0
000e54  00c000c0          DCW      0x00c0,0x00c0
000e58  00c000c0          DCW      0x00c0,0x00c0
000e5c  00c000c0          DCW      0x00c0,0x00c0
000e60  00c000c0          DCW      0x00c0,0x00c0
000e64  00000000          DCW      0x0000,0x0000
000e68  00000000          DCW      0x0000,0x0000
000e6c  00000000          DCW      0x0000,0x0000
000e70  00000000          DCW      0x0000,0x0000
000e74  00000000          DCW      0x0000,0x0000
000e78  00000000          DCW      0x0000,0x0000
000e7c  3c7c7eff          DCW      0x3c7c,0x7eff
000e80  e3c7c183          DCW      0xe3c7,0xc183
000e84  c183c183          DCW      0xc183,0xc183
000e88  c183c183          DCW      0xc183,0xc183
000e8c  c183c183          DCW      0xc183,0xc183
000e90  c183c183          DCW      0xc183,0xc183
000e94  00000000          DCW      0x0000,0x0000
000e98  00000000          DCW      0x0000,0x0000
000e9c  00000000          DCW      0x0000,0x0000
000ea0  00000000          DCW      0x0000,0x0000
000ea4  00000000          DCW      0x0000,0x0000
000ea8  00000000          DCW      0x0000,0x0000
000eac  07980ff8          DCW      0x0798,0x0ff8
000eb0  1c381818          DCW      0x1c38,0x1818
000eb4  18181818          DCW      0x1818,0x1818
000eb8  18181818          DCW      0x1818,0x1818
000ebc  18181818          DCW      0x1818,0x1818
000ec0  18181818          DCW      0x1818,0x1818
000ec4  00000000          DCW      0x0000,0x0000
000ec8  00000000          DCW      0x0000,0x0000
000ecc  00000000          DCW      0x0000,0x0000
000ed0  00000000          DCW      0x0000,0x0000
000ed4  00000000          DCW      0x0000,0x0000
000ed8  00000000          DCW      0x0000,0x0000
000edc  03c00ff0          DCW      0x03c0,0x0ff0
000ee0  0c301818          DCW      0x0c30,0x1818
000ee4  18181818          DCW      0x1818,0x1818
000ee8  18181818          DCW      0x1818,0x1818
000eec  18180c30          DCW      0x1818,0x0c30
000ef0  0ff003c0          DCW      0x0ff0,0x03c0
000ef4  00000000          DCW      0x0000,0x0000
000ef8  00000000          DCW      0x0000,0x0000
000efc  00000000          DCW      0x0000,0x0000
000f00  00000000          DCW      0x0000,0x0000
000f04  00000000          DCW      0x0000,0x0000
000f08  00000000          DCW      0x0000,0x0000
000f0c  03d80ff8          DCW      0x03d8,0x0ff8
000f10  0c381818          DCW      0x0c38,0x1818
000f14  18181818          DCW      0x1818,0x1818
000f18  18181818          DCW      0x1818,0x1818
000f1c  18180c38          DCW      0x1818,0x0c38
000f20  0ff803d8          DCW      0x0ff8,0x03d8
000f24  00180018          DCW      0x0018,0x0018
000f28  00180018          DCW      0x0018,0x0018
000f2c  00180000          DCW      0x0018,0x0000
000f30  00000000          DCW      0x0000,0x0000
000f34  00000000          DCW      0x0000,0x0000
000f38  00000000          DCW      0x0000,0x0000
000f3c  1bc01ff0          DCW      0x1bc0,0x1ff0
000f40  1c301818          DCW      0x1c30,0x1818
000f44  18181818          DCW      0x1818,0x1818
000f48  18181818          DCW      0x1818,0x1818
000f4c  18181c30          DCW      0x1818,0x1c30
000f50  1ff01bc0          DCW      0x1ff0,0x1bc0
000f54  18001800          DCW      0x1800,0x1800
000f58  18001800          DCW      0x1800,0x1800
000f5c  18000000          DCW      0x1800,0x0000
000f60  00000000          DCW      0x0000,0x0000
000f64  00000000          DCW      0x0000,0x0000
000f68  00000000          DCW      0x0000,0x0000
000f6c  07b003f0          DCW      0x07b0,0x03f0
000f70  00700030          DCW      0x0070,0x0030
000f74  00300030          DCW      0x0030,0x0030
000f78  00300030          DCW      0x0030,0x0030
000f7c  00300030          DCW      0x0030,0x0030
000f80  00300030          DCW      0x0030,0x0030
000f84  00000000          DCW      0x0000,0x0000
000f88  00000000          DCW      0x0000,0x0000
000f8c  00000000          DCW      0x0000,0x0000
000f90  00000000          DCW      0x0000,0x0000
000f94  00000000          DCW      0x0000,0x0000
000f98  00000000          DCW      0x0000,0x0000
000f9c  03e003f0          DCW      0x03e0,0x03f0
000fa0  0e380c18          DCW      0x0e38,0x0c18
000fa4  003803f0          DCW      0x0038,0x03f0
000fa8  07c00c00          DCW      0x07c0,0x0c00
000fac  0c180e38          DCW      0x0c18,0x0e38
000fb0  07f003e0          DCW      0x07f0,0x03e0
000fb4  00000000          DCW      0x0000,0x0000
000fb8  00000000          DCW      0x0000,0x0000
000fbc  00000000          DCW      0x0000,0x0000
000fc0  00000000          DCW      0x0000,0x0000
000fc4  008000c0          DCW      0x0080,0x00c0
000fc8  00c000c0          DCW      0x00c0,0x00c0
000fcc  07f007f0          DCW      0x07f0,0x07f0
000fd0  00c000c0          DCW      0x00c0,0x00c0
000fd4  00c000c0          DCW      0x00c0,0x00c0
000fd8  00c000c0          DCW      0x00c0,0x00c0
000fdc  00c000c0          DCW      0x00c0,0x00c0
000fe0  07c00780          DCW      0x07c0,0x0780
000fe4  00000000          DCW      0x0000,0x0000
000fe8  00000000          DCW      0x0000,0x0000
000fec  00000000          DCW      0x0000,0x0000
000ff0  00000000          DCW      0x0000,0x0000
000ff4  00000000          DCW      0x0000,0x0000
000ff8  00000000          DCW      0x0000,0x0000
000ffc  18181818          DCW      0x1818,0x1818
001000  18181818          DCW      0x1818,0x1818
001004  18181818          DCW      0x1818,0x1818
001008  18181818          DCW      0x1818,0x1818
00100c  18181c38          DCW      0x1818,0x1c38
001010  1ff019e0          DCW      0x1ff0,0x19e0
001014  00000000          DCW      0x0000,0x0000
001018  00000000          DCW      0x0000,0x0000
00101c  00000000          DCW      0x0000,0x0000
001020  00000000          DCW      0x0000,0x0000
001024  00000000          DCW      0x0000,0x0000
001028  00000000          DCW      0x0000,0x0000
00102c  180c0c18          DCW      0x180c,0x0c18
001030  0c180c18          DCW      0x0c18,0x0c18
001034  06300630          DCW      0x0630,0x0630
001038  06300360          DCW      0x0630,0x0360
00103c  03600360          DCW      0x0360,0x0360
001040  01c001c0          DCW      0x01c0,0x01c0
001044  00000000          DCW      0x0000,0x0000
001048  00000000          DCW      0x0000,0x0000
00104c  00000000          DCW      0x0000,0x0000
001050  00000000          DCW      0x0000,0x0000
001054  00000000          DCW      0x0000,0x0000
001058  00000000          DCW      0x0000,0x0000
00105c  41c141c1          DCW      0x41c1,0x41c1
001060  61c36363          DCW      0x61c3,0x6363
001064  63636363          DCW      0x6363,0x6363
001068  36363636          DCW      0x3636,0x3636
00106c  36361c1c          DCW      0x3636,0x1c1c
001070  1c1c1c1c          DCW      0x1c1c,0x1c1c
001074  00000000          DCW      0x0000,0x0000
001078  00000000          DCW      0x0000,0x0000
00107c  00000000          DCW      0x0000,0x0000
001080  00000000          DCW      0x0000,0x0000
001084  00000000          DCW      0x0000,0x0000
001088  00000000          DCW      0x0000,0x0000
00108c  381c1c38          DCW      0x381c,0x1c38
001090  0c300660          DCW      0x0c30,0x0660
001094  03600360          DCW      0x0360,0x0360
001098  03600360          DCW      0x0360,0x0360
00109c  06600c30          DCW      0x0660,0x0c30
0010a0  1c38381c          DCW      0x1c38,0x381c
0010a4  00000000          DCW      0x0000,0x0000
0010a8  00000000          DCW      0x0000,0x0000
0010ac  00000000          DCW      0x0000,0x0000
0010b0  00000000          DCW      0x0000,0x0000
0010b4  00000000          DCW      0x0000,0x0000
0010b8  00000000          DCW      0x0000,0x0000
0010bc  30181830          DCW      0x3018,0x1830
0010c0  18301870          DCW      0x1830,0x1870
0010c4  0c600c60          DCW      0x0c60,0x0c60
0010c8  0ce006c0          DCW      0x0ce0,0x06c0
0010cc  06c00380          DCW      0x06c0,0x0380
0010d0  03800380          DCW      0x0380,0x0380
0010d4  01800180          DCW      0x0180,0x0180
0010d8  01c000f0          DCW      0x01c0,0x00f0
0010dc  00700000          DCW      0x0070,0x0000
0010e0  00000000          DCW      0x0000,0x0000
0010e4  00000000          DCW      0x0000,0x0000
0010e8  00000000          DCW      0x0000,0x0000
0010ec  1ffc1ffc          DCW      0x1ffc,0x1ffc
0010f0  0c000600          DCW      0x0c00,0x0600
0010f4  03000180          DCW      0x0300,0x0180
0010f8  00c00060          DCW      0x00c0,0x0060
0010fc  00300018          DCW      0x0030,0x0018
001100  1ffc1ffc          DCW      0x1ffc,0x1ffc
001104  00000000          DCW      0x0000,0x0000
001108  00000000          DCW      0x0000,0x0000
00110c  00000000          DCW      0x0000,0x0000
001110  00000300          DCW      0x0000,0x0300
001114  018000c0          DCW      0x0180,0x00c0
001118  00c000c0          DCW      0x00c0,0x00c0
00111c  00c000c0          DCW      0x00c0,0x00c0
001120  00c00060          DCW      0x00c0,0x0060
001124  00600030          DCW      0x0060,0x0030
001128  00600040          DCW      0x0060,0x0040
00112c  00c000c0          DCW      0x00c0,0x00c0
001130  00c000c0          DCW      0x00c0,0x00c0
001134  00c000c0          DCW      0x00c0,0x00c0
001138  01800300          DCW      0x0180,0x0300
00113c  00000000          DCW      0x0000,0x0000
001140  00000180          DCW      0x0000,0x0180
001144  01800180          DCW      0x0180,0x0180
001148  01800180          DCW      0x0180,0x0180
00114c  01800180          DCW      0x0180,0x0180
001150  01800180          DCW      0x0180,0x0180
001154  01800180          DCW      0x0180,0x0180
001158  01800180          DCW      0x0180,0x0180
00115c  01800180          DCW      0x0180,0x0180
001160  01800180          DCW      0x0180,0x0180
001164  01800180          DCW      0x0180,0x0180
001168  01800180          DCW      0x0180,0x0180
00116c  01800000          DCW      0x0180,0x0000
001170  00000060          DCW      0x0000,0x0060
001174  00c001c0          DCW      0x00c0,0x01c0
001178  01800180          DCW      0x0180,0x0180
00117c  01800180          DCW      0x0180,0x0180
001180  01800300          DCW      0x0180,0x0300
001184  03000600          DCW      0x0300,0x0600
001188  03000100          DCW      0x0300,0x0100
00118c  01800180          DCW      0x0180,0x0180
001190  01800180          DCW      0x0180,0x0180
001194  01800180          DCW      0x0180,0x0180
001198  00c00060          DCW      0x00c0,0x0060
00119c  00000000          DCW      0x0000,0x0000
0011a0  00000000          DCW      0x0000,0x0000
0011a4  00000000          DCW      0x0000,0x0000
0011a8  00000000          DCW      0x0000,0x0000
0011ac  00000000          DCW      0x0000,0x0000
0011b0  10f01ff8          DCW      0x10f0,0x1ff8
0011b4  0f080000          DCW      0x0f08,0x0000
0011b8  00000000          DCW      0x0000,0x0000
0011bc  00000000          DCW      0x0000,0x0000
0011c0  00000000          DCW      0x0000,0x0000
0011c4  00000000          DCW      0x0000,0x0000
0011c8  00000000          DCW      0x0000,0x0000
0011cc  00000000          DCW      0x0000,0x0000

                          AREA ||area_number.46||, DATA, READONLY, ALIGN=1

                          EXPORTAS ||area_number.46||, ||.constdata||
                  ASCII12x12_Table
000000  00000000          DCW      0x0000,0x0000
000004  00000000          DCW      0x0000,0x0000
000008  00000000          DCW      0x0000,0x0000
00000c  00000000          DCW      0x0000,0x0000
000010  00000000          DCW      0x0000,0x0000
000014  00000000          DCW      0x0000,0x0000
000018  00002000          DCW      0x0000,0x2000
00001c  20002000          DCW      0x2000,0x2000
000020  20002000          DCW      0x2000,0x2000
000024  20002000          DCW      0x2000,0x2000
000028  00002000          DCW      0x0000,0x2000
00002c  00000000          DCW      0x0000,0x0000
000030  00005000          DCW      0x0000,0x5000
000034  50005000          DCW      0x5000,0x5000
000038  00000000          DCW      0x0000,0x0000
00003c  00000000          DCW      0x0000,0x0000
000040  00000000          DCW      0x0000,0x0000
000044  00000000          DCW      0x0000,0x0000
000048  00000900          DCW      0x0000,0x0900
00004c  09001200          DCW      0x0900,0x1200
000050  7f001200          DCW      0x7f00,0x1200
000054  7f001200          DCW      0x7f00,0x1200
000058  24002400          DCW      0x2400,0x2400
00005c  00000000          DCW      0x0000,0x0000
000060  10003800          DCW      0x1000,0x3800
000064  54005000          DCW      0x5400,0x5000
000068  50003800          DCW      0x5000,0x3800
00006c  14005400          DCW      0x1400,0x5400
000070  54003800          DCW      0x5400,0x3800
000074  10000000          DCW      0x1000,0x0000
000078  00003080          DCW      0x0000,0x3080
00007c  49004900          DCW      0x4900,0x4900
000080  4a0032c0          DCW      0x4a00,0x32c0
000084  05200920          DCW      0x0520,0x0920
000088  092010c0          DCW      0x0920,0x10c0
00008c  00000000          DCW      0x0000,0x0000
000090  00000c00          DCW      0x0000,0x0c00
000094  12001200          DCW      0x1200,0x1200
000098  14001800          DCW      0x1400,0x1800
00009c  25002300          DCW      0x2500,0x2300
0000a0  23001d80          DCW      0x2300,0x1d80
0000a4  00000000          DCW      0x0000,0x0000
0000a8  00004000          DCW      0x0000,0x4000
0000ac  40004000          DCW      0x4000,0x4000
0000b0  00000000          DCW      0x0000,0x0000
0000b4  00000000          DCW      0x0000,0x0000
0000b8  00000000          DCW      0x0000,0x0000
0000bc  00000000          DCW      0x0000,0x0000
0000c0  00000800          DCW      0x0000,0x0800
0000c4  10001000          DCW      0x1000,0x1000
0000c8  20002000          DCW      0x2000,0x2000
0000cc  20002000          DCW      0x2000,0x2000
0000d0  20002000          DCW      0x2000,0x2000
0000d4  10001000          DCW      0x1000,0x1000
0000d8  00004000          DCW      0x0000,0x4000
0000dc  20002000          DCW      0x2000,0x2000
0000e0  10001000          DCW      0x1000,0x1000
0000e4  10001000          DCW      0x1000,0x1000
0000e8  10001000          DCW      0x1000,0x1000
0000ec  20002000          DCW      0x2000,0x2000
0000f0  00002000          DCW      0x0000,0x2000
0000f4  70002000          DCW      0x7000,0x2000
0000f8  50000000          DCW      0x5000,0x0000
0000fc  00000000          DCW      0x0000,0x0000
000100  00000000          DCW      0x0000,0x0000
000104  00000000          DCW      0x0000,0x0000
000108  00000000          DCW      0x0000,0x0000
00010c  00000800          DCW      0x0000,0x0800
000110  08007f00          DCW      0x0800,0x7f00
000114  08000800          DCW      0x0800,0x0800
000118  00000000          DCW      0x0000,0x0000
00011c  00000000          DCW      0x0000,0x0000
000120  00000000          DCW      0x0000,0x0000
000124  00000000          DCW      0x0000,0x0000
000128  00000000          DCW      0x0000,0x0000
00012c  00000000          DCW      0x0000,0x0000
000130  00002000          DCW      0x0000,0x2000
000134  20004000          DCW      0x2000,0x4000
000138  00000000          DCW      0x0000,0x0000
00013c  00000000          DCW      0x0000,0x0000
000140  00000000          DCW      0x0000,0x0000
000144  70000000          DCW      0x7000,0x0000
000148  00000000          DCW      0x0000,0x0000
00014c  00000000          DCW      0x0000,0x0000
000150  00000000          DCW      0x0000,0x0000
000154  00000000          DCW      0x0000,0x0000
000158  00000000          DCW      0x0000,0x0000
00015c  00000000          DCW      0x0000,0x0000
000160  00002000          DCW      0x0000,0x2000
000164  00000000          DCW      0x0000,0x0000
000168  00001000          DCW      0x0000,0x1000
00016c  10001000          DCW      0x1000,0x1000
000170  20002000          DCW      0x2000,0x2000
000174  20002000          DCW      0x2000,0x2000
000178  40004000          DCW      0x4000,0x4000
00017c  00000000          DCW      0x0000,0x0000
000180  00001000          DCW      0x0000,0x1000
000184  28004400          DCW      0x2800,0x4400
000188  44004400          DCW      0x4400,0x4400
00018c  44004400          DCW      0x4400,0x4400
000190  28001000          DCW      0x2800,0x1000
000194  00000000          DCW      0x0000,0x0000
000198  00001000          DCW      0x0000,0x1000
00019c  30005000          DCW      0x3000,0x5000
0001a0  10001000          DCW      0x1000,0x1000
0001a4  10001000          DCW      0x1000,0x1000
0001a8  10001000          DCW      0x1000,0x1000
0001ac  00000000          DCW      0x0000,0x0000
0001b0  00003000          DCW      0x0000,0x3000
0001b4  48004400          DCW      0x4800,0x4400
0001b8  04000800          DCW      0x0400,0x0800
0001bc  10002000          DCW      0x1000,0x2000
0001c0  40007c00          DCW      0x4000,0x7c00
0001c4  00000000          DCW      0x0000,0x0000
0001c8  00003000          DCW      0x0000,0x3000
0001cc  48000400          DCW      0x4800,0x0400
0001d0  08001000          DCW      0x0800,0x1000
0001d4  08004400          DCW      0x0800,0x4400
0001d8  48003000          DCW      0x4800,0x3000
0001dc  00000000          DCW      0x0000,0x0000
0001e0  00000800          DCW      0x0000,0x0800
0001e4  18001800          DCW      0x1800,0x1800
0001e8  28002800          DCW      0x2800,0x2800
0001ec  48007c00          DCW      0x4800,0x7c00
0001f0  08000800          DCW      0x0800,0x0800
0001f4  00000000          DCW      0x0000,0x0000
0001f8  00003c00          DCW      0x0000,0x3c00
0001fc  20004000          DCW      0x2000,0x4000
000200  70004800          DCW      0x7000,0x4800
000204  04004400          DCW      0x0400,0x4400
000208  48003000          DCW      0x4800,0x3000
00020c  00000000          DCW      0x0000,0x0000
000210  00001800          DCW      0x0000,0x1800
000214  24004000          DCW      0x2400,0x4000
000218  50006800          DCW      0x5000,0x6800
00021c  44004400          DCW      0x4400,0x4400
000220  28001000          DCW      0x2800,0x1000
000224  00000000          DCW      0x0000,0x0000
000228  00007c00          DCW      0x0000,0x7c00
00022c  04000800          DCW      0x0400,0x0800
000230  10001000          DCW      0x1000,0x1000
000234  10002000          DCW      0x1000,0x2000
000238  20002000          DCW      0x2000,0x2000
00023c  00000000          DCW      0x0000,0x0000
000240  00001000          DCW      0x0000,0x1000
000244  28004400          DCW      0x2800,0x4400
000248  28001000          DCW      0x2800,0x1000
00024c  28004400          DCW      0x2800,0x4400
000250  28001000          DCW      0x2800,0x1000
000254  00000000          DCW      0x0000,0x0000
000258  00001000          DCW      0x0000,0x1000
00025c  28004400          DCW      0x2800,0x4400
000260  44002c00          DCW      0x4400,0x2c00
000264  14000400          DCW      0x1400,0x0400
000268  48003000          DCW      0x4800,0x3000
00026c  00000000          DCW      0x0000,0x0000
000270  00000000          DCW      0x0000,0x0000
000274  00002000          DCW      0x0000,0x2000
000278  00000000          DCW      0x0000,0x0000
00027c  00000000          DCW      0x0000,0x0000
000280  00002000          DCW      0x0000,0x2000
000284  00000000          DCW      0x0000,0x0000
000288  00000000          DCW      0x0000,0x0000
00028c  00002000          DCW      0x0000,0x2000
000290  00000000          DCW      0x0000,0x0000
000294  00000000          DCW      0x0000,0x0000
000298  00002000          DCW      0x0000,0x2000
00029c  20004000          DCW      0x2000,0x4000
0002a0  00000000          DCW      0x0000,0x0000
0002a4  04000800          DCW      0x0400,0x0800
0002a8  30004000          DCW      0x3000,0x4000
0002ac  30000800          DCW      0x3000,0x0800
0002b0  04000000          DCW      0x0400,0x0000
0002b4  00000000          DCW      0x0000,0x0000
0002b8  00000000          DCW      0x0000,0x0000
0002bc  00007c00          DCW      0x0000,0x7c00
0002c0  00000000          DCW      0x0000,0x0000
0002c4  7c000000          DCW      0x7c00,0x0000
0002c8  00000000          DCW      0x0000,0x0000
0002cc  00000000          DCW      0x0000,0x0000
0002d0  00000000          DCW      0x0000,0x0000
0002d4  40002000          DCW      0x4000,0x2000
0002d8  18000400          DCW      0x1800,0x0400
0002dc  18002000          DCW      0x1800,0x2000
0002e0  40000000          DCW      0x4000,0x0000
0002e4  00000000          DCW      0x0000,0x0000
0002e8  00003800          DCW      0x0000,0x3800
0002ec  64004400          DCW      0x6400,0x4400
0002f0  04000800          DCW      0x0400,0x0800
0002f4  10001000          DCW      0x1000,0x1000
0002f8  00001000          DCW      0x0000,0x1000
0002fc  00000000          DCW      0x0000,0x0000
000300  00000f80          DCW      0x0000,0x0f80
000304  10402ea0          DCW      0x1040,0x2ea0
000308  51a05120          DCW      0x51a0,0x5120
00030c  51205120          DCW      0x5120,0x5120
000310  53204dc0          DCW      0x5320,0x4dc0
000314  20201040          DCW      0x2020,0x1040
000318  00000800          DCW      0x0000,0x0800
00031c  14001400          DCW      0x1400,0x1400
000320  14002200          DCW      0x1400,0x2200
000324  3e002200          DCW      0x3e00,0x2200
000328  41004100          DCW      0x4100,0x4100
00032c  00000000          DCW      0x0000,0x0000
000330  00003c00          DCW      0x0000,0x3c00
000334  22002200          DCW      0x2200,0x2200
000338  22003c00          DCW      0x2200,0x3c00
00033c  22002200          DCW      0x2200,0x2200
000340  22003c00          DCW      0x2200,0x3c00
000344  00000000          DCW      0x0000,0x0000
000348  00000e00          DCW      0x0000,0x0e00
00034c  11002100          DCW      0x1100,0x2100
000350  20002000          DCW      0x2000,0x2000
000354  20002100          DCW      0x2000,0x2100
000358  11000e00          DCW      0x1100,0x0e00
00035c  00000000          DCW      0x0000,0x0000
000360  00003c00          DCW      0x0000,0x3c00
000364  22002100          DCW      0x2200,0x2100
000368  21002100          DCW      0x2100,0x2100
00036c  21002100          DCW      0x2100,0x2100
000370  22003c00          DCW      0x2200,0x3c00
000374  00000000          DCW      0x0000,0x0000
000378  00003e00          DCW      0x0000,0x3e00
00037c  20002000          DCW      0x2000,0x2000
000380  20003e00          DCW      0x2000,0x3e00
000384  20002000          DCW      0x2000,0x2000
000388  20003e00          DCW      0x2000,0x3e00
00038c  00000000          DCW      0x0000,0x0000
000390  00003e00          DCW      0x0000,0x3e00
000394  20002000          DCW      0x2000,0x2000
000398  20003c00          DCW      0x2000,0x3c00
00039c  20002000          DCW      0x2000,0x2000
0003a0  20002000          DCW      0x2000,0x2000
0003a4  00000000          DCW      0x0000,0x0000
0003a8  00000e00          DCW      0x0000,0x0e00
0003ac  11002100          DCW      0x1100,0x2100
0003b0  20002700          DCW      0x2000,0x2700
0003b4  21002100          DCW      0x2100,0x2100
0003b8  11000e00          DCW      0x1100,0x0e00
0003bc  00000000          DCW      0x0000,0x0000
0003c0  00002100          DCW      0x0000,0x2100
0003c4  21002100          DCW      0x2100,0x2100
0003c8  21003f00          DCW      0x2100,0x3f00
0003cc  21002100          DCW      0x2100,0x2100
0003d0  21002100          DCW      0x2100,0x2100
0003d4  00000000          DCW      0x0000,0x0000
0003d8  00002000          DCW      0x0000,0x2000
0003dc  20002000          DCW      0x2000,0x2000
0003e0  20002000          DCW      0x2000,0x2000
0003e4  20002000          DCW      0x2000,0x2000
0003e8  20002000          DCW      0x2000,0x2000
0003ec  00000000          DCW      0x0000,0x0000
0003f0  00000800          DCW      0x0000,0x0800
0003f4  08000800          DCW      0x0800,0x0800
0003f8  08000800          DCW      0x0800,0x0800
0003fc  08004800          DCW      0x0800,0x4800
000400  48003000          DCW      0x4800,0x3000
000404  00000000          DCW      0x0000,0x0000
000408  00002200          DCW      0x0000,0x2200
00040c  24002800          DCW      0x2400,0x2800
000410  28003800          DCW      0x2800,0x3800
000414  28002400          DCW      0x2800,0x2400
000418  24002200          DCW      0x2400,0x2200
00041c  00000000          DCW      0x0000,0x0000
000420  00002000          DCW      0x0000,0x2000
000424  20002000          DCW      0x2000,0x2000
000428  20002000          DCW      0x2000,0x2000
00042c  20002000          DCW      0x2000,0x2000
000430  20003e00          DCW      0x2000,0x3e00
000434  00000000          DCW      0x0000,0x0000
000438  00002080          DCW      0x0000,0x2080
00043c  31803180          DCW      0x3180,0x3180
000440  31802a80          DCW      0x3180,0x2a80
000444  2a802a80          DCW      0x2a80,0x2a80
000448  2a802480          DCW      0x2a80,0x2480
00044c  00000000          DCW      0x0000,0x0000
000450  00002100          DCW      0x0000,0x2100
000454  31003100          DCW      0x3100,0x3100
000458  29002900          DCW      0x2900,0x2900
00045c  25002300          DCW      0x2500,0x2300
000460  23002100          DCW      0x2300,0x2100
000464  00000000          DCW      0x0000,0x0000
000468  00000c00          DCW      0x0000,0x0c00
00046c  12002100          DCW      0x1200,0x2100
000470  21002100          DCW      0x2100,0x2100
000474  21002100          DCW      0x2100,0x2100
000478  12000c00          DCW      0x1200,0x0c00
00047c  00000000          DCW      0x0000,0x0000
000480  00003c00          DCW      0x0000,0x3c00
000484  22002200          DCW      0x2200,0x2200
000488  22003c00          DCW      0x2200,0x3c00
00048c  20002000          DCW      0x2000,0x2000
000490  20002000          DCW      0x2000,0x2000
000494  00000000          DCW      0x0000,0x0000
000498  00000c00          DCW      0x0000,0x0c00
00049c  12002100          DCW      0x1200,0x2100
0004a0  21002100          DCW      0x2100,0x2100
0004a4  21002100          DCW      0x2100,0x2100
0004a8  16000d00          DCW      0x1600,0x0d00
0004ac  01000000          DCW      0x0100,0x0000
0004b0  00003e00          DCW      0x0000,0x3e00
0004b4  21002100          DCW      0x2100,0x2100
0004b8  21003e00          DCW      0x2100,0x3e00
0004bc  24002200          DCW      0x2400,0x2200
0004c0  21002080          DCW      0x2100,0x2080
0004c4  00000000          DCW      0x0000,0x0000
0004c8  00001c00          DCW      0x0000,0x1c00
0004cc  22002200          DCW      0x2200,0x2200
0004d0  20001c00          DCW      0x2000,0x1c00
0004d4  02002200          DCW      0x0200,0x2200
0004d8  22001c00          DCW      0x2200,0x1c00
0004dc  00000000          DCW      0x0000,0x0000
0004e0  00003e00          DCW      0x0000,0x3e00
0004e4  08000800          DCW      0x0800,0x0800
0004e8  08000800          DCW      0x0800,0x0800
0004ec  08000800          DCW      0x0800,0x0800
0004f0  08000800          DCW      0x0800,0x0800
0004f4  00000000          DCW      0x0000,0x0000
0004f8  00002100          DCW      0x0000,0x2100
0004fc  21002100          DCW      0x2100,0x2100
000500  21002100          DCW      0x2100,0x2100
000504  21002100          DCW      0x2100,0x2100
000508  12000c00          DCW      0x1200,0x0c00
00050c  00000000          DCW      0x0000,0x0000
000510  00004100          DCW      0x0000,0x4100
000514  41002200          DCW      0x4100,0x2200
000518  22002200          DCW      0x2200,0x2200
00051c  14001400          DCW      0x1400,0x1400
000520  14000800          DCW      0x1400,0x0800
000524  00000000          DCW      0x0000,0x0000
000528  00004440          DCW      0x0000,0x4440
00052c  4a402a40          DCW      0x4a40,0x2a40
000530  2a802a80          DCW      0x2a80,0x2a80
000534  2a802a80          DCW      0x2a80,0x2a80
000538  2a801100          DCW      0x2a80,0x1100
00053c  00000000          DCW      0x0000,0x0000
000540  00004100          DCW      0x0000,0x4100
000544  22001400          DCW      0x2200,0x1400
000548  14000800          DCW      0x1400,0x0800
00054c  14001400          DCW      0x1400,0x1400
000550  22004100          DCW      0x2200,0x4100
000554  00000000          DCW      0x0000,0x0000
000558  00004100          DCW      0x0000,0x4100
00055c  22002200          DCW      0x2200,0x2200
000560  14000800          DCW      0x1400,0x0800
000564  08000800          DCW      0x0800,0x0800
000568  08000800          DCW      0x0800,0x0800
00056c  00000000          DCW      0x0000,0x0000
000570  00007e00          DCW      0x0000,0x7e00
000574  02000400          DCW      0x0200,0x0400
000578  08001000          DCW      0x0800,0x1000
00057c  10002000          DCW      0x1000,0x2000
000580  40007e00          DCW      0x4000,0x7e00
000584  00000000          DCW      0x0000,0x0000
000588  00003000          DCW      0x0000,0x3000
00058c  20002000          DCW      0x2000,0x2000
000590  20002000          DCW      0x2000,0x2000
000594  20002000          DCW      0x2000,0x2000
000598  20002000          DCW      0x2000,0x2000
00059c  20002000          DCW      0x2000,0x2000
0005a0  00004000          DCW      0x0000,0x4000
0005a4  40002000          DCW      0x4000,0x2000
0005a8  20002000          DCW      0x2000,0x2000
0005ac  20002000          DCW      0x2000,0x2000
0005b0  10001000          DCW      0x1000,0x1000
0005b4  00000000          DCW      0x0000,0x0000
0005b8  00006000          DCW      0x0000,0x6000
0005bc  20002000          DCW      0x2000,0x2000
0005c0  20002000          DCW      0x2000,0x2000
0005c4  20002000          DCW      0x2000,0x2000
0005c8  20002000          DCW      0x2000,0x2000
0005cc  20002000          DCW      0x2000,0x2000
0005d0  00001000          DCW      0x0000,0x1000
0005d4  28002800          DCW      0x2800,0x2800
0005d8  28004400          DCW      0x2800,0x4400
0005dc  00000000          DCW      0x0000,0x0000
0005e0  00000000          DCW      0x0000,0x0000
0005e4  00000000          DCW      0x0000,0x0000
0005e8  00000000          DCW      0x0000,0x0000
0005ec  00000000          DCW      0x0000,0x0000
0005f0  00000000          DCW      0x0000,0x0000
0005f4  00000000          DCW      0x0000,0x0000
0005f8  00000000          DCW      0x0000,0x0000
0005fc  00007e00          DCW      0x0000,0x7e00
000600  40002000          DCW      0x4000,0x2000
000604  00000000          DCW      0x0000,0x0000
000608  00000000          DCW      0x0000,0x0000
00060c  00000000          DCW      0x0000,0x0000
000610  00000000          DCW      0x0000,0x0000
000614  00000000          DCW      0x0000,0x0000
000618  00000000          DCW      0x0000,0x0000
00061c  00003800          DCW      0x0000,0x3800
000620  44000400          DCW      0x4400,0x0400
000624  3c004400          DCW      0x3c00,0x4400
000628  44003c00          DCW      0x4400,0x3c00
00062c  00000000          DCW      0x0000,0x0000
000630  00004000          DCW      0x0000,0x4000
000634  40005800          DCW      0x4000,0x5800
000638  64004400          DCW      0x6400,0x4400
00063c  44004400          DCW      0x4400,0x4400
000640  64005800          DCW      0x6400,0x5800
000644  00000000          DCW      0x0000,0x0000
000648  00000000          DCW      0x0000,0x0000
00064c  00003000          DCW      0x0000,0x3000
000650  48004000          DCW      0x4800,0x4000
000654  40004000          DCW      0x4000,0x4000
000658  48003000          DCW      0x4800,0x3000
00065c  00000000          DCW      0x0000,0x0000
000660  00000400          DCW      0x0000,0x0400
000664  04003400          DCW      0x0400,0x3400
000668  4c004400          DCW      0x4c00,0x4400
00066c  44004400          DCW      0x4400,0x4400
000670  4c003400          DCW      0x4c00,0x3400
000674  00000000          DCW      0x0000,0x0000
000678  00000000          DCW      0x0000,0x0000
00067c  00003800          DCW      0x0000,0x3800
000680  44004400          DCW      0x4400,0x4400
000684  7c004000          DCW      0x7c00,0x4000
000688  44003800          DCW      0x4400,0x3800
00068c  00000000          DCW      0x0000,0x0000
000690  00006000          DCW      0x0000,0x6000
000694  4000e000          DCW      0x4000,0xe000
000698  40004000          DCW      0x4000,0x4000
00069c  40004000          DCW      0x4000,0x4000
0006a0  40004000          DCW      0x4000,0x4000
0006a4  00000000          DCW      0x0000,0x0000
0006a8  00000000          DCW      0x0000,0x0000
0006ac  00003400          DCW      0x0000,0x3400
0006b0  4c004400          DCW      0x4c00,0x4400
0006b4  44004400          DCW      0x4400,0x4400
0006b8  4c003400          DCW      0x4c00,0x3400
0006bc  04004400          DCW      0x0400,0x4400
0006c0  00004000          DCW      0x0000,0x4000
0006c4  40005800          DCW      0x4000,0x5800
0006c8  64004400          DCW      0x6400,0x4400
0006cc  44004400          DCW      0x4400,0x4400
0006d0  44004400          DCW      0x4400,0x4400
0006d4  00000000          DCW      0x0000,0x0000
0006d8  00004000          DCW      0x0000,0x4000
0006dc  00004000          DCW      0x0000,0x4000
0006e0  40004000          DCW      0x4000,0x4000
0006e4  40004000          DCW      0x4000,0x4000
0006e8  40004000          DCW      0x4000,0x4000
0006ec  00000000          DCW      0x0000,0x0000
0006f0  00004000          DCW      0x0000,0x4000
0006f4  00004000          DCW      0x0000,0x4000
0006f8  40004000          DCW      0x4000,0x4000
0006fc  40004000          DCW      0x4000,0x4000
000700  40004000          DCW      0x4000,0x4000
000704  40004000          DCW      0x4000,0x4000
000708  00004000          DCW      0x0000,0x4000
00070c  40004800          DCW      0x4000,0x4800
000710  50006000          DCW      0x5000,0x6000
000714  50005000          DCW      0x5000,0x5000
000718  48004800          DCW      0x4800,0x4800
00071c  00000000          DCW      0x0000,0x0000
000720  00004000          DCW      0x0000,0x4000
000724  40004000          DCW      0x4000,0x4000
000728  40004000          DCW      0x4000,0x4000
00072c  40004000          DCW      0x4000,0x4000
000730  40004000          DCW      0x4000,0x4000
000734  00000000          DCW      0x0000,0x0000
000738  00000000          DCW      0x0000,0x0000
00073c  00005200          DCW      0x0000,0x5200
000740  6d004900          DCW      0x6d00,0x4900
000744  49004900          DCW      0x4900,0x4900
000748  49004900          DCW      0x4900,0x4900
00074c  00000000          DCW      0x0000,0x0000
000750  00000000          DCW      0x0000,0x0000
000754  00005800          DCW      0x0000,0x5800
000758  64004400          DCW      0x6400,0x4400
00075c  44004400          DCW      0x4400,0x4400
000760  44004400          DCW      0x4400,0x4400
000764  00000000          DCW      0x0000,0x0000
000768  00000000          DCW      0x0000,0x0000
00076c  00003800          DCW      0x0000,0x3800
000770  44004400          DCW      0x4400,0x4400
000774  44004400          DCW      0x4400,0x4400
000778  44003800          DCW      0x4400,0x3800
00077c  00000000          DCW      0x0000,0x0000
000780  00000000          DCW      0x0000,0x0000
000784  00005800          DCW      0x0000,0x5800
000788  64004400          DCW      0x6400,0x4400
00078c  44004400          DCW      0x4400,0x4400
000790  64005800          DCW      0x6400,0x5800
000794  40004000          DCW      0x4000,0x4000
000798  00000000          DCW      0x0000,0x0000
00079c  00003400          DCW      0x0000,0x3400
0007a0  4c004400          DCW      0x4c00,0x4400
0007a4  44004400          DCW      0x4400,0x4400
0007a8  4c003400          DCW      0x4c00,0x3400
0007ac  04000400          DCW      0x0400,0x0400
0007b0  00000000          DCW      0x0000,0x0000
0007b4  00005000          DCW      0x0000,0x5000
0007b8  60004000          DCW      0x6000,0x4000
0007bc  40004000          DCW      0x4000,0x4000
0007c0  40004000          DCW      0x4000,0x4000
0007c4  00000000          DCW      0x0000,0x0000
0007c8  00000000          DCW      0x0000,0x0000
0007cc  00003000          DCW      0x0000,0x3000
0007d0  48004000          DCW      0x4800,0x4000
0007d4  30000800          DCW      0x3000,0x0800
0007d8  48003000          DCW      0x4800,0x3000
0007dc  00000000          DCW      0x0000,0x0000
0007e0  00004000          DCW      0x0000,0x4000
0007e4  4000e000          DCW      0x4000,0xe000
0007e8  40004000          DCW      0x4000,0x4000
0007ec  40004000          DCW      0x4000,0x4000
0007f0  40006000          DCW      0x4000,0x6000
0007f4  00000000          DCW      0x0000,0x0000
0007f8  00000000          DCW      0x0000,0x0000
0007fc  00004400          DCW      0x0000,0x4400
000800  44004400          DCW      0x4400,0x4400
000804  44004400          DCW      0x4400,0x4400
000808  4c003400          DCW      0x4c00,0x3400
00080c  00000000          DCW      0x0000,0x0000
000810  00000000          DCW      0x0000,0x0000
000814  00004400          DCW      0x0000,0x4400
000818  44002800          DCW      0x4400,0x2800
00081c  28002800          DCW      0x2800,0x2800
000820  28001000          DCW      0x2800,0x1000
000824  00000000          DCW      0x0000,0x0000
000828  00000000          DCW      0x0000,0x0000
00082c  00004900          DCW      0x0000,0x4900
000830  49005500          DCW      0x4900,0x5500
000834  55005500          DCW      0x5500,0x5500
000838  55002200          DCW      0x5500,0x2200
00083c  00000000          DCW      0x0000,0x0000
000840  00000000          DCW      0x0000,0x0000
000844  00004400          DCW      0x0000,0x4400
000848  28002800          DCW      0x2800,0x2800
00084c  10002800          DCW      0x1000,0x2800
000850  28004400          DCW      0x2800,0x4400
000854  00000000          DCW      0x0000,0x0000
000858  00000000          DCW      0x0000,0x0000
00085c  00004400          DCW      0x0000,0x4400
000860  44002800          DCW      0x4400,0x2800
000864  28002800          DCW      0x2800,0x2800
000868  10001000          DCW      0x1000,0x1000
00086c  10001000          DCW      0x1000,0x1000
000870  00000000          DCW      0x0000,0x0000
000874  00007800          DCW      0x0000,0x7800
000878  08001000          DCW      0x0800,0x1000
00087c  20002000          DCW      0x2000,0x2000
000880  40007800          DCW      0x4000,0x7800
000884  00000000          DCW      0x0000,0x0000
000888  00001000          DCW      0x0000,0x1000
00088c  20002000          DCW      0x2000,0x2000
000890  20002000          DCW      0x2000,0x2000
000894  40002000          DCW      0x4000,0x2000
000898  20002000          DCW      0x2000,0x2000
00089c  20002000          DCW      0x2000,0x2000
0008a0  00002000          DCW      0x0000,0x2000
0008a4  20002000          DCW      0x2000,0x2000
0008a8  20002000          DCW      0x2000,0x2000
0008ac  20002000          DCW      0x2000,0x2000
0008b0  20002000          DCW      0x2000,0x2000
0008b4  20002000          DCW      0x2000,0x2000
0008b8  00004000          DCW      0x0000,0x4000
0008bc  20002000          DCW      0x2000,0x2000
0008c0  20002000          DCW      0x2000,0x2000
0008c4  10002000          DCW      0x1000,0x2000
0008c8  20002000          DCW      0x2000,0x2000
0008cc  20002000          DCW      0x2000,0x2000
0008d0  00000000          DCW      0x0000,0x0000
0008d4  00000000          DCW      0x0000,0x0000
0008d8  74005800          DCW      0x7400,0x5800
0008dc  00000000          DCW      0x0000,0x0000
0008e0  00000000          DCW      0x0000,0x0000
0008e4  00000000          DCW      0x0000,0x0000
0008e8  00000000          DCW      0x0000,0x0000
0008ec  70005000          DCW      0x7000,0x5000
0008f0  50005000          DCW      0x5000,0x5000
0008f4  50005000          DCW      0x5000,0x5000
0008f8  50007000          DCW      0x5000,0x7000
0008fc  00000000          DCW      0x0000,0x0000

                          AREA ||area_number.47||, DATA, READONLY, ALIGN=1

                          EXPORTAS ||area_number.47||, ||.constdata||
                  ASCII8x12_Table
000000  00000000          DCW      0x0000,0x0000
000004  00000000          DCW      0x0000,0x0000
000008  00000000          DCW      0x0000,0x0000
00000c  00000000          DCW      0x0000,0x0000
000010  00000000          DCW      0x0000,0x0000
000014  00000000          DCW      0x0000,0x0000
000018  00000000          DCW      0x0000,0x0000
00001c  00000010          DCW      0x0000,0x0010
000020  00100010          DCW      0x0010,0x0010
000024  00100010          DCW      0x0010,0x0010
000028  00100000          DCW      0x0010,0x0000
00002c  00100000          DCW      0x0010,0x0000
000030  00000000          DCW      0x0000,0x0000
000034  00000028          DCW      0x0000,0x0028
000038  00280028          DCW      0x0028,0x0028
00003c  00000000          DCW      0x0000,0x0000
000040  00000000          DCW      0x0000,0x0000
000044  00000000          DCW      0x0000,0x0000
000048  00000000          DCW      0x0000,0x0000
00004c  00000014          DCW      0x0000,0x0014
000050  0014003e          DCW      0x0014,0x003e
000054  00140028          DCW      0x0014,0x0028
000058  007c0028          DCW      0x007c,0x0028
00005c  00280000          DCW      0x0028,0x0000
000060  00000000          DCW      0x0000,0x0000
000064  00100038          DCW      0x0010,0x0038
000068  00540050          DCW      0x0054,0x0050
00006c  00380014          DCW      0x0038,0x0014
000070  00140054          DCW      0x0014,0x0054
000074  00380010          DCW      0x0038,0x0010
000078  00000000          DCW      0x0000,0x0000
00007c  00000044          DCW      0x0000,0x0044
000080  00a800a8          DCW      0x00a8,0x00a8
000084  00500014          DCW      0x0050,0x0014
000088  001a002a          DCW      0x001a,0x002a
00008c  00240000          DCW      0x0024,0x0000
000090  00000000          DCW      0x0000,0x0000
000094  00000020          DCW      0x0000,0x0020
000098  00500050          DCW      0x0050,0x0050
00009c  002000e8          DCW      0x0020,0x00e8
0000a0  00980098          DCW      0x0098,0x0098
0000a4  00600000          DCW      0x0060,0x0000
0000a8  00000000          DCW      0x0000,0x0000
0000ac  00000080          DCW      0x0000,0x0080
0000b0  00800080          DCW      0x0080,0x0080
0000b4  00000000          DCW      0x0000,0x0000
0000b8  00000000          DCW      0x0000,0x0000
0000bc  00000000          DCW      0x0000,0x0000
0000c0  00000000          DCW      0x0000,0x0000
0000c4  00000040          DCW      0x0000,0x0040
0000c8  00800080          DCW      0x0080,0x0080
0000cc  00800080          DCW      0x0080,0x0080
0000d0  00800080          DCW      0x0080,0x0080
0000d4  00800080          DCW      0x0080,0x0080
0000d8  00000000          DCW      0x0000,0x0000
0000dc  00000080          DCW      0x0000,0x0080
0000e0  00400040          DCW      0x0040,0x0040
0000e4  00400040          DCW      0x0040,0x0040
0000e8  00400040          DCW      0x0040,0x0040
0000ec  00400040          DCW      0x0040,0x0040
0000f0  00000000          DCW      0x0000,0x0000
0000f4  00000040          DCW      0x0000,0x0040
0000f8  00e00040          DCW      0x00e0,0x0040
0000fc  00a00000          DCW      0x00a0,0x0000
000100  00000000          DCW      0x0000,0x0000
000104  00000000          DCW      0x0000,0x0000
000108  00000000          DCW      0x0000,0x0000
00010c  00000000          DCW      0x0000,0x0000
000110  00000020          DCW      0x0000,0x0020
000114  002000f8          DCW      0x0020,0x00f8
000118  00200020          DCW      0x0020,0x0020
00011c  00000000          DCW      0x0000,0x0000
000120  00000000          DCW      0x0000,0x0000
000124  00000000          DCW      0x0000,0x0000
000128  00000000          DCW      0x0000,0x0000
00012c  00000000          DCW      0x0000,0x0000
000130  00000000          DCW      0x0000,0x0000
000134  00400040          DCW      0x0040,0x0040
000138  00000000          DCW      0x0000,0x0000
00013c  00000000          DCW      0x0000,0x0000
000140  00000000          DCW      0x0000,0x0000
000144  00000000          DCW      0x0000,0x0000
000148  00c00000          DCW      0x00c0,0x0000
00014c  00000000          DCW      0x0000,0x0000
000150  00000000          DCW      0x0000,0x0000
000154  00000000          DCW      0x0000,0x0000
000158  00000000          DCW      0x0000,0x0000
00015c  00000000          DCW      0x0000,0x0000
000160  00000000          DCW      0x0000,0x0000
000164  00400000          DCW      0x0040,0x0000
000168  00000000          DCW      0x0000,0x0000
00016c  00000020          DCW      0x0000,0x0020
000170  00200020          DCW      0x0020,0x0020
000174  00400040          DCW      0x0040,0x0040
000178  00800080          DCW      0x0080,0x0080
00017c  00800000          DCW      0x0080,0x0000
000180  00000000          DCW      0x0000,0x0000
000184  00000060          DCW      0x0000,0x0060
000188  00900090          DCW      0x0090,0x0090
00018c  00900090          DCW      0x0090,0x0090
000190  00900090          DCW      0x0090,0x0090
000194  00600000          DCW      0x0060,0x0000
000198  00000000          DCW      0x0000,0x0000
00019c  00000020          DCW      0x0000,0x0020
0001a0  006000a0          DCW      0x0060,0x00a0
0001a4  00200020          DCW      0x0020,0x0020
0001a8  00200020          DCW      0x0020,0x0020
0001ac  00200000          DCW      0x0020,0x0000
0001b0  00000000          DCW      0x0000,0x0000
0001b4  00000060          DCW      0x0000,0x0060
0001b8  00900010          DCW      0x0090,0x0010
0001bc  00100020          DCW      0x0010,0x0020
0001c0  00400080          DCW      0x0040,0x0080
0001c4  00f00000          DCW      0x00f0,0x0000
0001c8  00000000          DCW      0x0000,0x0000
0001cc  00000060          DCW      0x0000,0x0060
0001d0  00900010          DCW      0x0090,0x0010
0001d4  00600010          DCW      0x0060,0x0010
0001d8  00100090          DCW      0x0010,0x0090
0001dc  00600000          DCW      0x0060,0x0000
0001e0  00000000          DCW      0x0000,0x0000
0001e4  00000010          DCW      0x0000,0x0010
0001e8  00300050          DCW      0x0030,0x0050
0001ec  00500090          DCW      0x0050,0x0090
0001f0  00f80010          DCW      0x00f8,0x0010
0001f4  00100000          DCW      0x0010,0x0000
0001f8  00000000          DCW      0x0000,0x0000
0001fc  00000070          DCW      0x0000,0x0070
000200  00400080          DCW      0x0040,0x0080
000204  00e00010          DCW      0x00e0,0x0010
000208  00100090          DCW      0x0010,0x0090
00020c  00600000          DCW      0x0060,0x0000
000210  00000000          DCW      0x0000,0x0000
000214  00000060          DCW      0x0000,0x0060
000218  00900080          DCW      0x0090,0x0080
00021c  00a000d0          DCW      0x00a0,0x00d0
000220  00900090          DCW      0x0090,0x0090
000224  00600000          DCW      0x0060,0x0000
000228  00000000          DCW      0x0000,0x0000
00022c  000000f0          DCW      0x0000,0x00f0
000230  00100020          DCW      0x0010,0x0020
000234  00200020          DCW      0x0020,0x0020
000238  00400040          DCW      0x0040,0x0040
00023c  00400000          DCW      0x0040,0x0000
000240  00000000          DCW      0x0000,0x0000
000244  00000060          DCW      0x0000,0x0060
000248  00900090          DCW      0x0090,0x0090
00024c  00600090          DCW      0x0060,0x0090
000250  00900090          DCW      0x0090,0x0090
000254  00600000          DCW      0x0060,0x0000
000258  00000000          DCW      0x0000,0x0000
00025c  00000060          DCW      0x0000,0x0060
000260  00900090          DCW      0x0090,0x0090
000264  00b00050          DCW      0x00b0,0x0050
000268  00100090          DCW      0x0010,0x0090
00026c  00600000          DCW      0x0060,0x0000
000270  00000000          DCW      0x0000,0x0000
000274  00000000          DCW      0x0000,0x0000
000278  00000040          DCW      0x0000,0x0040
00027c  00000000          DCW      0x0000,0x0000
000280  00000000          DCW      0x0000,0x0000
000284  00400000          DCW      0x0040,0x0000
000288  00000000          DCW      0x0000,0x0000
00028c  00000000          DCW      0x0000,0x0000
000290  00000040          DCW      0x0000,0x0040
000294  00000000          DCW      0x0000,0x0000
000298  00000000          DCW      0x0000,0x0000
00029c  00400040          DCW      0x0040,0x0040
0002a0  00000000          DCW      0x0000,0x0000
0002a4  00000000          DCW      0x0000,0x0000
0002a8  00000010          DCW      0x0000,0x0010
0002ac  00600080          DCW      0x0060,0x0080
0002b0  00600010          DCW      0x0060,0x0010
0002b4  00000000          DCW      0x0000,0x0000
0002b8  00000000          DCW      0x0000,0x0000
0002bc  00000000          DCW      0x0000,0x0000
0002c0  00000000          DCW      0x0000,0x0000
0002c4  00f00000          DCW      0x00f0,0x0000
0002c8  00f00000          DCW      0x00f0,0x0000
0002cc  00000000          DCW      0x0000,0x0000
0002d0  00000000          DCW      0x0000,0x0000
0002d4  00000000          DCW      0x0000,0x0000
0002d8  00000080          DCW      0x0000,0x0080
0002dc  00600010          DCW      0x0060,0x0010
0002e0  00600080          DCW      0x0060,0x0080
0002e4  00000000          DCW      0x0000,0x0000
0002e8  00000000          DCW      0x0000,0x0000
0002ec  00000060          DCW      0x0000,0x0060
0002f0  00900010          DCW      0x0090,0x0010
0002f4  00200040          DCW      0x0020,0x0040
0002f8  00400000          DCW      0x0040,0x0000
0002fc  00400000          DCW      0x0040,0x0000
000300  00000000          DCW      0x0000,0x0000
000304  0000001c          DCW      0x0000,0x001c
000308  0022005b          DCW      0x0022,0x005b
00030c  00a500a5          DCW      0x00a5,0x00a5
000310  00a500a5          DCW      0x00a5,0x00a5
000314  009e0041          DCW      0x009e,0x0041
000318  00000000          DCW      0x0000,0x0000
00031c  00000020          DCW      0x0000,0x0020
000320  00500050          DCW      0x0050,0x0050
000324  00500050          DCW      0x0050,0x0050
000328  00700088          DCW      0x0070,0x0088
00032c  00880000          DCW      0x0088,0x0000
000330  00000000          DCW      0x0000,0x0000
000334  000000f0          DCW      0x0000,0x00f0
000338  00880088          DCW      0x0088,0x0088
00033c  00f00088          DCW      0x00f0,0x0088
000340  00880088          DCW      0x0088,0x0088
000344  00f00000          DCW      0x00f0,0x0000
000348  00000000          DCW      0x0000,0x0000
00034c  00000038          DCW      0x0000,0x0038
000350  00440084          DCW      0x0044,0x0084
000354  00800080          DCW      0x0080,0x0080
000358  00840044          DCW      0x0084,0x0044
00035c  00380000          DCW      0x0038,0x0000
000360  00000000          DCW      0x0000,0x0000
000364  000000e0          DCW      0x0000,0x00e0
000368  00900088          DCW      0x0090,0x0088
00036c  00880088          DCW      0x0088,0x0088
000370  00880090          DCW      0x0088,0x0090
000374  00e00000          DCW      0x00e0,0x0000
000378  00000000          DCW      0x0000,0x0000
00037c  000000f8          DCW      0x0000,0x00f8
000380  00800080          DCW      0x0080,0x0080
000384  00f80080          DCW      0x00f8,0x0080
000388  00800080          DCW      0x0080,0x0080
00038c  00f80000          DCW      0x00f8,0x0000
000390  00000000          DCW      0x0000,0x0000
000394  00000078          DCW      0x0000,0x0078
000398  00400040          DCW      0x0040,0x0040
00039c  00700040          DCW      0x0070,0x0040
0003a0  00400040          DCW      0x0040,0x0040
0003a4  00400000          DCW      0x0040,0x0000
0003a8  00000000          DCW      0x0000,0x0000
0003ac  00000038          DCW      0x0000,0x0038
0003b0  00440084          DCW      0x0044,0x0084
0003b4  0080009c          DCW      0x0080,0x009c
0003b8  00840044          DCW      0x0084,0x0044
0003bc  00380000          DCW      0x0038,0x0000
0003c0  00000000          DCW      0x0000,0x0000
0003c4  00000088          DCW      0x0000,0x0088
0003c8  00880088          DCW      0x0088,0x0088
0003cc  00f80088          DCW      0x00f8,0x0088
0003d0  00880088          DCW      0x0088,0x0088
0003d4  00880000          DCW      0x0088,0x0000
0003d8  00000000          DCW      0x0000,0x0000
0003dc  00000080          DCW      0x0000,0x0080
0003e0  00800080          DCW      0x0080,0x0080
0003e4  00800080          DCW      0x0080,0x0080
0003e8  00800080          DCW      0x0080,0x0080
0003ec  00800000          DCW      0x0080,0x0000
0003f0  00000000          DCW      0x0000,0x0000
0003f4  00000010          DCW      0x0000,0x0010
0003f8  00100010          DCW      0x0010,0x0010
0003fc  00100010          DCW      0x0010,0x0010
000400  00900090          DCW      0x0090,0x0090
000404  00600000          DCW      0x0060,0x0000
000408  00000000          DCW      0x0000,0x0000
00040c  00000088          DCW      0x0000,0x0088
000410  009000a0          DCW      0x0090,0x00a0
000414  00e000a0          DCW      0x00e0,0x00a0
000418  00900090          DCW      0x0090,0x0090
00041c  00880000          DCW      0x0088,0x0000
000420  00000000          DCW      0x0000,0x0000
000424  00000080          DCW      0x0000,0x0080
000428  00800080          DCW      0x0080,0x0080
00042c  00800080          DCW      0x0080,0x0080
000430  00800080          DCW      0x0080,0x0080
000434  00f00000          DCW      0x00f0,0x0000
000438  00000000          DCW      0x0000,0x0000
00043c  00000082          DCW      0x0000,0x0082
000440  00c600c6          DCW      0x00c6,0x00c6
000444  00aa00aa          DCW      0x00aa,0x00aa
000448  00aa00aa          DCW      0x00aa,0x00aa
00044c  00920000          DCW      0x0092,0x0000
000450  00000000          DCW      0x0000,0x0000
000454  00000084          DCW      0x0000,0x0084
000458  00c400a4          DCW      0x00c4,0x00a4
00045c  00a40094          DCW      0x00a4,0x0094
000460  0094008c          DCW      0x0094,0x008c
000464  00840000          DCW      0x0084,0x0000
000468  00000000          DCW      0x0000,0x0000
00046c  00000030          DCW      0x0000,0x0030
000470  00480084          DCW      0x0048,0x0084
000474  00840084          DCW      0x0084,0x0084
000478  00840048          DCW      0x0084,0x0048
00047c  00300000          DCW      0x0030,0x0000
000480  00000000          DCW      0x0000,0x0000
000484  000000f0          DCW      0x0000,0x00f0
000488  00880088          DCW      0x0088,0x0088
00048c  008800f0          DCW      0x0088,0x00f0
000490  00800080          DCW      0x0080,0x0080
000494  00800000          DCW      0x0080,0x0000
000498  00000000          DCW      0x0000,0x0000
00049c  00000030          DCW      0x0000,0x0030
0004a0  00480084          DCW      0x0048,0x0084
0004a4  00840084          DCW      0x0084,0x0084
0004a8  00840058          DCW      0x0084,0x0058
0004ac  00340004          DCW      0x0034,0x0004
0004b0  00000000          DCW      0x0000,0x0000
0004b4  00000078          DCW      0x0000,0x0078
0004b8  00440044          DCW      0x0044,0x0044
0004bc  00780050          DCW      0x0078,0x0050
0004c0  00480044          DCW      0x0048,0x0044
0004c4  00420000          DCW      0x0042,0x0000
0004c8  00000000          DCW      0x0000,0x0000
0004cc  00000070          DCW      0x0000,0x0070
0004d0  00880080          DCW      0x0088,0x0080
0004d4  00700008          DCW      0x0070,0x0008
0004d8  00880088          DCW      0x0088,0x0088
0004dc  00700000          DCW      0x0070,0x0000
0004e0  00000000          DCW      0x0000,0x0000
0004e4  000000f8          DCW      0x0000,0x00f8
0004e8  00200020          DCW      0x0020,0x0020
0004ec  00200020          DCW      0x0020,0x0020
0004f0  00200020          DCW      0x0020,0x0020
0004f4  00200000          DCW      0x0020,0x0000
0004f8  00000000          DCW      0x0000,0x0000
0004fc  00000084          DCW      0x0000,0x0084
000500  00840084          DCW      0x0084,0x0084
000504  00840084          DCW      0x0084,0x0084
000508  00840048          DCW      0x0084,0x0048
00050c  00300000          DCW      0x0030,0x0000
000510  00000000          DCW      0x0000,0x0000
000514  00000088          DCW      0x0000,0x0088
000518  00880050          DCW      0x0088,0x0050
00051c  00500050          DCW      0x0050,0x0050
000520  00500050          DCW      0x0050,0x0050
000524  00200000          DCW      0x0020,0x0000
000528  00000000          DCW      0x0000,0x0000
00052c  00000092          DCW      0x0000,0x0092
000530  00aa00aa          DCW      0x00aa,0x00aa
000534  00aa00aa          DCW      0x00aa,0x00aa
000538  00aa00aa          DCW      0x00aa,0x00aa
00053c  00440000          DCW      0x0044,0x0000
000540  00000000          DCW      0x0000,0x0000
000544  00000084          DCW      0x0000,0x0084
000548  00480048          DCW      0x0048,0x0048
00054c  00300030          DCW      0x0030,0x0030
000550  00480048          DCW      0x0048,0x0048
000554  00840000          DCW      0x0084,0x0000
000558  00000000          DCW      0x0000,0x0000
00055c  00000088          DCW      0x0000,0x0088
000560  00500050          DCW      0x0050,0x0050
000564  00200020          DCW      0x0020,0x0020
000568  00200020          DCW      0x0020,0x0020
00056c  00200000          DCW      0x0020,0x0000
000570  00000000          DCW      0x0000,0x0000
000574  000000f8          DCW      0x0000,0x00f8
000578  00080010          DCW      0x0008,0x0010
00057c  00200020          DCW      0x0020,0x0020
000580  00400080          DCW      0x0040,0x0080
000584  00f80000          DCW      0x00f8,0x0000
000588  00000000          DCW      0x0000,0x0000
00058c  000000c0          DCW      0x0000,0x00c0
000590  00800080          DCW      0x0080,0x0080
000594  00800080          DCW      0x0080,0x0080
000598  00800080          DCW      0x0080,0x0080
00059c  00800080          DCW      0x0080,0x0080
0005a0  00000000          DCW      0x0000,0x0000
0005a4  00000080          DCW      0x0000,0x0080
0005a8  00800040          DCW      0x0080,0x0040
0005ac  00400040          DCW      0x0040,0x0040
0005b0  00400020          DCW      0x0040,0x0020
0005b4  00200000          DCW      0x0020,0x0000
0005b8  00000000          DCW      0x0000,0x0000
0005bc  000000c0          DCW      0x0000,0x00c0
0005c0  00400040          DCW      0x0040,0x0040
0005c4  00400040          DCW      0x0040,0x0040
0005c8  00400040          DCW      0x0040,0x0040
0005cc  00400040          DCW      0x0040,0x0040
0005d0  00000000          DCW      0x0000,0x0000
0005d4  00000040          DCW      0x0000,0x0040
0005d8  00a000a0          DCW      0x00a0,0x00a0
0005dc  00a00000          DCW      0x00a0,0x0000
0005e0  00000000          DCW      0x0000,0x0000
0005e4  00000000          DCW      0x0000,0x0000
0005e8  00000000          DCW      0x0000,0x0000
0005ec  00000000          DCW      0x0000,0x0000
0005f0  00000000          DCW      0x0000,0x0000
0005f4  00000000          DCW      0x0000,0x0000
0005f8  00000000          DCW      0x0000,0x0000
0005fc  000000f8          DCW      0x0000,0x00f8
000600  00000000          DCW      0x0000,0x0000
000604  00000080          DCW      0x0000,0x0080
000608  00400000          DCW      0x0040,0x0000
00060c  00000000          DCW      0x0000,0x0000
000610  00000000          DCW      0x0000,0x0000
000614  00000000          DCW      0x0000,0x0000
000618  00000000          DCW      0x0000,0x0000
00061c  00000000          DCW      0x0000,0x0000
000620  000000e0          DCW      0x0000,0x00e0
000624  00100070          DCW      0x0010,0x0070
000628  00900090          DCW      0x0090,0x0090
00062c  00700000          DCW      0x0070,0x0000
000630  00000000          DCW      0x0000,0x0000
000634  00000080          DCW      0x0000,0x0080
000638  008000a0          DCW      0x0080,0x00a0
00063c  00d00090          DCW      0x00d0,0x0090
000640  009000d0          DCW      0x0090,0x00d0
000644  00a00000          DCW      0x00a0,0x0000
000648  00000000          DCW      0x0000,0x0000
00064c  00000000          DCW      0x0000,0x0000
000650  00000060          DCW      0x0000,0x0060
000654  00900080          DCW      0x0090,0x0080
000658  00800090          DCW      0x0080,0x0090
00065c  00600000          DCW      0x0060,0x0000
000660  00000000          DCW      0x0000,0x0000
000664  00000010          DCW      0x0000,0x0010
000668  00100050          DCW      0x0010,0x0050
00066c  00b00090          DCW      0x00b0,0x0090
000670  009000b0          DCW      0x0090,0x00b0
000674  00500000          DCW      0x0050,0x0000
000678  00000000          DCW      0x0000,0x0000
00067c  00000000          DCW      0x0000,0x0000
000680  00000060          DCW      0x0000,0x0060
000684  009000f0          DCW      0x0090,0x00f0
000688  00800090          DCW      0x0080,0x0090
00068c  00600000          DCW      0x0060,0x0000
000690  00000000          DCW      0x0000,0x0000
000694  000000c0          DCW      0x0000,0x00c0
000698  008000c0          DCW      0x0080,0x00c0
00069c  00800080          DCW      0x0080,0x0080
0006a0  00800080          DCW      0x0080,0x0080
0006a4  00800000          DCW      0x0080,0x0000
0006a8  00000000          DCW      0x0000,0x0000
0006ac  00000000          DCW      0x0000,0x0000
0006b0  00000050          DCW      0x0000,0x0050
0006b4  00b00090          DCW      0x00b0,0x0090
0006b8  009000b0          DCW      0x0090,0x00b0
0006bc  00500010          DCW      0x0050,0x0010
0006c0  00000000          DCW      0x0000,0x0000
0006c4  00000080          DCW      0x0000,0x0080
0006c8  008000a0          DCW      0x0080,0x00a0
0006cc  00d00090          DCW      0x00d0,0x0090
0006d0  00900090          DCW      0x0090,0x0090
0006d4  00900000          DCW      0x0090,0x0000
0006d8  00000000          DCW      0x0000,0x0000
0006dc  00000080          DCW      0x0000,0x0080
0006e0  00000080          DCW      0x0000,0x0080
0006e4  00800080          DCW      0x0080,0x0080
0006e8  00800080          DCW      0x0080,0x0080
0006ec  00800000          DCW      0x0080,0x0000
0006f0  00000000          DCW      0x0000,0x0000
0006f4  00000080          DCW      0x0000,0x0080
0006f8  00000080          DCW      0x0000,0x0080
0006fc  00800080          DCW      0x0080,0x0080
000700  00800080          DCW      0x0080,0x0080
000704  00800080          DCW      0x0080,0x0080
000708  00000000          DCW      0x0000,0x0000
00070c  00000080          DCW      0x0000,0x0080
000710  00800090          DCW      0x0080,0x0090
000714  00a000c0          DCW      0x00a0,0x00c0
000718  00a00090          DCW      0x00a0,0x0090
00071c  00900000          DCW      0x0090,0x0000
000720  00000000          DCW      0x0000,0x0000
000724  00000080          DCW      0x0000,0x0080
000728  00800080          DCW      0x0080,0x0080
00072c  00800080          DCW      0x0080,0x0080
000730  00800080          DCW      0x0080,0x0080
000734  00800000          DCW      0x0080,0x0000
000738  00000000          DCW      0x0000,0x0000
00073c  00000000          DCW      0x0000,0x0000
000740  000000a6          DCW      0x0000,0x00a6
000744  00da0092          DCW      0x00da,0x0092
000748  00920092          DCW      0x0092,0x0092
00074c  00920000          DCW      0x0092,0x0000
000750  00000000          DCW      0x0000,0x0000
000754  00000000          DCW      0x0000,0x0000
000758  000000a0          DCW      0x0000,0x00a0
00075c  00d00090          DCW      0x00d0,0x0090
000760  00900090          DCW      0x0090,0x0090
000764  00900000          DCW      0x0090,0x0000
000768  00000000          DCW      0x0000,0x0000
00076c  00000000          DCW      0x0000,0x0000
000770  00000060          DCW      0x0000,0x0060
000774  00900090          DCW      0x0090,0x0090
000778  00900090          DCW      0x0090,0x0090
00077c  00600000          DCW      0x0060,0x0000
000780  00000000          DCW      0x0000,0x0000
000784  00000000          DCW      0x0000,0x0000
000788  000000a0          DCW      0x0000,0x00a0
00078c  00d00090          DCW      0x00d0,0x0090
000790  009000d0          DCW      0x0090,0x00d0
000794  00a00080          DCW      0x00a0,0x0080
000798  00000000          DCW      0x0000,0x0000
00079c  00000000          DCW      0x0000,0x0000
0007a0  00000050          DCW      0x0000,0x0050
0007a4  00b00090          DCW      0x00b0,0x0090
0007a8  009000b0          DCW      0x0090,0x00b0
0007ac  00500010          DCW      0x0050,0x0010
0007b0  00000000          DCW      0x0000,0x0000
0007b4  00000000          DCW      0x0000,0x0000
0007b8  000000a0          DCW      0x0000,0x00a0
0007bc  00c00080          DCW      0x00c0,0x0080
0007c0  00800080          DCW      0x0080,0x0080
0007c4  00800000          DCW      0x0080,0x0000
0007c8  00000000          DCW      0x0000,0x0000
0007cc  00000000          DCW      0x0000,0x0000
0007d0  000000e0          DCW      0x0000,0x00e0
0007d4  00900040          DCW      0x0090,0x0040
0007d8  00200090          DCW      0x0020,0x0090
0007dc  00600000          DCW      0x0060,0x0000
0007e0  00000000          DCW      0x0000,0x0000
0007e4  00000080          DCW      0x0000,0x0080
0007e8  008000c0          DCW      0x0080,0x00c0
0007ec  00800080          DCW      0x0080,0x0080
0007f0  00800080          DCW      0x0080,0x0080
0007f4  00c00000          DCW      0x00c0,0x0000
0007f8  00000000          DCW      0x0000,0x0000
0007fc  00000000          DCW      0x0000,0x0000
000800  00000090          DCW      0x0000,0x0090
000804  00900090          DCW      0x0090,0x0090
000808  009000b0          DCW      0x0090,0x00b0
00080c  00500000          DCW      0x0050,0x0000
000810  00000000          DCW      0x0000,0x0000
000814  00000000          DCW      0x0000,0x0000
000818  00000088          DCW      0x0000,0x0088
00081c  00880050          DCW      0x0088,0x0050
000820  00500050          DCW      0x0050,0x0050
000824  00200000          DCW      0x0020,0x0000
000828  00000000          DCW      0x0000,0x0000
00082c  00000000          DCW      0x0000,0x0000
000830  00000092          DCW      0x0000,0x0092
000834  00aa00aa          DCW      0x00aa,0x00aa
000838  00aa00aa          DCW      0x00aa,0x00aa
00083c  00440000          DCW      0x0044,0x0000
000840  00000000          DCW      0x0000,0x0000
000844  00000000          DCW      0x0000,0x0000
000848  00000088          DCW      0x0000,0x0088
00084c  00500020          DCW      0x0050,0x0020
000850  00200050          DCW      0x0020,0x0050
000854  00880000          DCW      0x0088,0x0000
000858  00000000          DCW      0x0000,0x0000
00085c  00000000          DCW      0x0000,0x0000
000860  00000088          DCW      0x0000,0x0088
000864  00500050          DCW      0x0050,0x0050
000868  00500020          DCW      0x0050,0x0020
00086c  00200020          DCW      0x0020,0x0020
000870  00000000          DCW      0x0000,0x0000
000874  00000000          DCW      0x0000,0x0000
000878  000000f0          DCW      0x0000,0x00f0
00087c  00100020          DCW      0x0010,0x0020
000880  00400080          DCW      0x0040,0x0080
000884  00f00000          DCW      0x00f0,0x0000
000888  00000000          DCW      0x0000,0x0000
00088c  000000c0          DCW      0x0000,0x00c0
000890  00800080          DCW      0x0080,0x0080
000894  00800000          DCW      0x0080,0x0000
000898  00800080          DCW      0x0080,0x0080
00089c  00800080          DCW      0x0080,0x0080
0008a0  00000000          DCW      0x0000,0x0000
0008a4  00000080          DCW      0x0000,0x0080
0008a8  00800080          DCW      0x0080,0x0080
0008ac  00800080          DCW      0x0080,0x0080
0008b0  00800080          DCW      0x0080,0x0080
0008b4  00800080          DCW      0x0080,0x0080
0008b8  00000000          DCW      0x0000,0x0000
0008bc  000000c0          DCW      0x0000,0x00c0
0008c0  00400040          DCW      0x0040,0x0040
0008c4  00400020          DCW      0x0040,0x0020
0008c8  00400040          DCW      0x0040,0x0040
0008cc  00400040          DCW      0x0040,0x0040
0008d0  00000000          DCW      0x0000,0x0000
0008d4  00000000          DCW      0x0000,0x0000
0008d8  00000000          DCW      0x0000,0x0000
0008dc  00e800b0          DCW      0x00e8,0x00b0
0008e0  00000000          DCW      0x0000,0x0000
0008e4  00000000          DCW      0x0000,0x0000
0008e8  00000000          DCW      0x0000,0x0000
0008ec  00000000          DCW      0x0000,0x0000
0008f0  00e000a0          DCW      0x00e0,0x00a0
0008f4  00a000a0          DCW      0x00a0,0x00a0
0008f8  00a000a0          DCW      0x00a0,0x00a0
0008fc  00e00000          DCW      0x00e0,0x0000

                          AREA ||area_number.48||, DATA, READONLY, ALIGN=1

                          EXPORTAS ||area_number.48||, ||.constdata||
                  ASCII8x8_Table
000000  00000000          DCW      0x0000,0x0000
000004  00000000          DCW      0x0000,0x0000
000008  00000000          DCW      0x0000,0x0000
00000c  00000000          DCW      0x0000,0x0000
000010  00400040          DCW      0x0040,0x0040
000014  00400040          DCW      0x0040,0x0040
000018  00400040          DCW      0x0040,0x0040
00001c  00000040          DCW      0x0000,0x0040
000020  00a000a0          DCW      0x00a0,0x00a0
000024  00a00000          DCW      0x00a0,0x0000
000028  00000000          DCW      0x0000,0x0000
00002c  00000000          DCW      0x0000,0x0000
000030  00000024          DCW      0x0000,0x0024
000034  002400fe          DCW      0x0024,0x00fe
000038  004800fc          DCW      0x0048,0x00fc
00003c  00480048          DCW      0x0048,0x0048
000040  00380054          DCW      0x0038,0x0054
000044  00500038          DCW      0x0050,0x0038
000048  00140014          DCW      0x0014,0x0014
00004c  00540038          DCW      0x0054,0x0038
000050  004400a8          DCW      0x0044,0x00a8
000054  00a80050          DCW      0x00a8,0x0050
000058  0014001a          DCW      0x0014,0x001a
00005c  002a0024          DCW      0x002a,0x0024
000060  00100028          DCW      0x0010,0x0028
000064  00280010          DCW      0x0028,0x0010
000068  0074004c          DCW      0x0074,0x004c
00006c  004c0030          DCW      0x004c,0x0030
000070  00100010          DCW      0x0010,0x0010
000074  00100000          DCW      0x0010,0x0000
000078  00000000          DCW      0x0000,0x0000
00007c  00000000          DCW      0x0000,0x0000
000080  00080010          DCW      0x0008,0x0010
000084  00100010          DCW      0x0010,0x0010
000088  00100010          DCW      0x0010,0x0010
00008c  00100008          DCW      0x0010,0x0008
000090  00100008          DCW      0x0010,0x0008
000094  00080008          DCW      0x0008,0x0008
000098  00080008          DCW      0x0008,0x0008
00009c  00080010          DCW      0x0008,0x0010
0000a0  00000000          DCW      0x0000,0x0000
0000a4  00240018          DCW      0x0024,0x0018
0000a8  003c0018          DCW      0x003c,0x0018
0000ac  00240000          DCW      0x0024,0x0000
0000b0  00000000          DCW      0x0000,0x0000
0000b4  00100010          DCW      0x0010,0x0010
0000b8  007c0010          DCW      0x007c,0x0010
0000bc  00100000          DCW      0x0010,0x0000
0000c0  00000000          DCW      0x0000,0x0000
0000c4  00000000          DCW      0x0000,0x0000
0000c8  00000008          DCW      0x0000,0x0008
0000cc  00080010          DCW      0x0008,0x0010
0000d0  00000000          DCW      0x0000,0x0000
0000d4  00000000          DCW      0x0000,0x0000
0000d8  003c0000          DCW      0x003c,0x0000
0000dc  00000000          DCW      0x0000,0x0000
0000e0  00000000          DCW      0x0000,0x0000
0000e4  00000000          DCW      0x0000,0x0000
0000e8  00000000          DCW      0x0000,0x0000
0000ec  00180018          DCW      0x0018,0x0018
0000f0  00080008          DCW      0x0008,0x0008
0000f4  00080010          DCW      0x0008,0x0010
0000f8  00100020          DCW      0x0010,0x0020
0000fc  00200020          DCW      0x0020,0x0020
000100  00180024          DCW      0x0018,0x0024
000104  00240024          DCW      0x0024,0x0024
000108  00240024          DCW      0x0024,0x0024
00010c  00240018          DCW      0x0024,0x0018
000110  00080018          DCW      0x0008,0x0018
000114  00280008          DCW      0x0028,0x0008
000118  00080008          DCW      0x0008,0x0008
00011c  00080008          DCW      0x0008,0x0008
000120  00380044          DCW      0x0038,0x0044
000124  00000004          DCW      0x0000,0x0004
000128  00080010          DCW      0x0008,0x0010
00012c  0020007c          DCW      0x0020,0x007c
000130  00180024          DCW      0x0018,0x0024
000134  00040018          DCW      0x0004,0x0018
000138  00040004          DCW      0x0004,0x0004
00013c  00240018          DCW      0x0024,0x0018
000140  0004000c          DCW      0x0004,0x000c
000144  00140024          DCW      0x0014,0x0024
000148  0044007e          DCW      0x0044,0x007e
00014c  00040004          DCW      0x0004,0x0004
000150  003c0020          DCW      0x003c,0x0020
000154  00200038          DCW      0x0020,0x0038
000158  00040004          DCW      0x0004,0x0004
00015c  00240018          DCW      0x0024,0x0018
000160  00180024          DCW      0x0018,0x0024
000164  00200038          DCW      0x0020,0x0038
000168  00240024          DCW      0x0024,0x0024
00016c  00240018          DCW      0x0024,0x0018
000170  003c0004          DCW      0x003c,0x0004
000174  00080008          DCW      0x0008,0x0008
000178  00080010          DCW      0x0008,0x0010
00017c  00100010          DCW      0x0010,0x0010
000180  00180024          DCW      0x0018,0x0024
000184  00240018          DCW      0x0024,0x0018
000188  00240024          DCW      0x0024,0x0024
00018c  00240018          DCW      0x0024,0x0018
000190  00180024          DCW      0x0018,0x0024
000194  00240024          DCW      0x0024,0x0024
000198  001c0004          DCW      0x001c,0x0004
00019c  00240018          DCW      0x0024,0x0018
0001a0  00000000          DCW      0x0000,0x0000
0001a4  00100000          DCW      0x0010,0x0000
0001a8  00000010          DCW      0x0000,0x0010
0001ac  00000000          DCW      0x0000,0x0000
0001b0  00000000          DCW      0x0000,0x0000
0001b4  00080000          DCW      0x0008,0x0000
0001b8  00000008          DCW      0x0000,0x0008
0001bc  00100000          DCW      0x0010,0x0000
0001c0  00000000          DCW      0x0000,0x0000
0001c4  00040018          DCW      0x0004,0x0018
0001c8  00200018          DCW      0x0020,0x0018
0001cc  00040000          DCW      0x0004,0x0000
0001d0  00000000          DCW      0x0000,0x0000
0001d4  0000003c          DCW      0x0000,0x003c
0001d8  0000003c          DCW      0x0000,0x003c
0001dc  00000000          DCW      0x0000,0x0000
0001e0  00000000          DCW      0x0000,0x0000
0001e4  00200018          DCW      0x0020,0x0018
0001e8  00040018          DCW      0x0004,0x0018
0001ec  00200000          DCW      0x0020,0x0000
0001f0  00180024          DCW      0x0018,0x0024
0001f4  00040008          DCW      0x0004,0x0008
0001f8  00100010          DCW      0x0010,0x0010
0001fc  00000010          DCW      0x0000,0x0010
000200  003c0042          DCW      0x003c,0x0042
000204  009900a5          DCW      0x0099,0x00a5
000208  00a5009d          DCW      0x00a5,0x009d
00020c  00420038          DCW      0x0042,0x0038
000210  00380044          DCW      0x0038,0x0044
000214  00440044          DCW      0x0044,0x0044
000218  007c0044          DCW      0x007c,0x0044
00021c  00440044          DCW      0x0044,0x0044
000220  00780044          DCW      0x0078,0x0044
000224  00440078          DCW      0x0044,0x0078
000228  00440044          DCW      0x0044,0x0044
00022c  00440078          DCW      0x0044,0x0078
000230  001c0022          DCW      0x001c,0x0022
000234  00420040          DCW      0x0042,0x0040
000238  00400042          DCW      0x0040,0x0042
00023c  0022001c          DCW      0x0022,0x001c
000240  00700048          DCW      0x0070,0x0048
000244  00440044          DCW      0x0044,0x0044
000248  00440044          DCW      0x0044,0x0044
00024c  00480070          DCW      0x0048,0x0070
000250  007c0040          DCW      0x007c,0x0040
000254  0040007c          DCW      0x0040,0x007c
000258  00400040          DCW      0x0040,0x0040
00025c  0040007c          DCW      0x0040,0x007c
000260  003c0020          DCW      0x003c,0x0020
000264  00200038          DCW      0x0020,0x0038
000268  00200020          DCW      0x0020,0x0020
00026c  00200020          DCW      0x0020,0x0020
000270  001c0022          DCW      0x001c,0x0022
000274  00420040          DCW      0x0042,0x0040
000278  004e0042          DCW      0x004e,0x0042
00027c  0022001c          DCW      0x0022,0x001c
000280  00440044          DCW      0x0044,0x0044
000284  0044007c          DCW      0x0044,0x007c
000288  00440044          DCW      0x0044,0x0044
00028c  00440044          DCW      0x0044,0x0044
000290  00100010          DCW      0x0010,0x0010
000294  00100010          DCW      0x0010,0x0010
000298  00100010          DCW      0x0010,0x0010
00029c  00100010          DCW      0x0010,0x0010
0002a0  00040004          DCW      0x0004,0x0004
0002a4  00040004          DCW      0x0004,0x0004
0002a8  00040024          DCW      0x0004,0x0024
0002ac  00240018          DCW      0x0024,0x0018
0002b0  00440048          DCW      0x0044,0x0048
0002b4  00500070          DCW      0x0050,0x0070
0002b8  00500048          DCW      0x0050,0x0048
0002bc  00480044          DCW      0x0048,0x0044
0002c0  00200020          DCW      0x0020,0x0020
0002c4  00200020          DCW      0x0020,0x0020
0002c8  00200020          DCW      0x0020,0x0020
0002cc  0020003c          DCW      0x0020,0x003c
0002d0  008200c6          DCW      0x0082,0x00c6
0002d4  00c600aa          DCW      0x00c6,0x00aa
0002d8  00aa00aa          DCW      0x00aa,0x00aa
0002dc  00aa0092          DCW      0x00aa,0x0092
0002e0  00420062          DCW      0x0042,0x0062
0002e4  00520052          DCW      0x0052,0x0052
0002e8  004a004a          DCW      0x004a,0x004a
0002ec  00460042          DCW      0x0046,0x0042
0002f0  00180024          DCW      0x0018,0x0024
0002f4  00420042          DCW      0x0042,0x0042
0002f8  00420042          DCW      0x0042,0x0042
0002fc  00240018          DCW      0x0024,0x0018
000300  00780044          DCW      0x0078,0x0044
000304  00440044          DCW      0x0044,0x0044
000308  00780040          DCW      0x0078,0x0040
00030c  00400040          DCW      0x0040,0x0040
000310  00180024          DCW      0x0018,0x0024
000314  00420042          DCW      0x0042,0x0042
000318  00420042          DCW      0x0042,0x0042
00031c  002c001a          DCW      0x002c,0x001a
000320  00780044          DCW      0x0078,0x0044
000324  00440078          DCW      0x0044,0x0078
000328  00500048          DCW      0x0050,0x0048
00032c  00440042          DCW      0x0044,0x0042
000330  00380044          DCW      0x0038,0x0044
000334  00400038          DCW      0x0040,0x0038
000338  00040044          DCW      0x0004,0x0044
00033c  00440038          DCW      0x0044,0x0038
000340  007c0010          DCW      0x007c,0x0010
000344  00100010          DCW      0x0010,0x0010
000348  00100010          DCW      0x0010,0x0010
00034c  00100010          DCW      0x0010,0x0010
000350  00420042          DCW      0x0042,0x0042
000354  00420042          DCW      0x0042,0x0042
000358  00420042          DCW      0x0042,0x0042
00035c  00240018          DCW      0x0024,0x0018
000360  00440044          DCW      0x0044,0x0044
000364  00280028          DCW      0x0028,0x0028
000368  00280028          DCW      0x0028,0x0028
00036c  00280010          DCW      0x0028,0x0010
000370  009200aa          DCW      0x0092,0x00aa
000374  00aa00aa          DCW      0x00aa,0x00aa
000378  00aa00aa          DCW      0x00aa,0x00aa
00037c  00aa0044          DCW      0x00aa,0x0044
000380  00420024          DCW      0x0042,0x0024
000384  00240018          DCW      0x0024,0x0018
000388  00180024          DCW      0x0018,0x0024
00038c  00240042          DCW      0x0024,0x0042
000390  00440028          DCW      0x0044,0x0028
000394  00280010          DCW      0x0028,0x0010
000398  00100010          DCW      0x0010,0x0010
00039c  00100010          DCW      0x0010,0x0010
0003a0  007c0004          DCW      0x007c,0x0004
0003a4  00080010          DCW      0x0008,0x0010
0003a8  00100020          DCW      0x0010,0x0020
0003ac  0040007c          DCW      0x0040,0x007c
0003b0  001c0010          DCW      0x001c,0x0010
0003b4  00100010          DCW      0x0010,0x0010
0003b8  00100010          DCW      0x0010,0x0010
0003bc  0010001c          DCW      0x0010,0x001c
0003c0  00100010          DCW      0x0010,0x0010
0003c4  00080008          DCW      0x0008,0x0008
0003c8  00080008          DCW      0x0008,0x0008
0003cc  00040004          DCW      0x0004,0x0004
0003d0  001c0004          DCW      0x001c,0x0004
0003d4  00040004          DCW      0x0004,0x0004
0003d8  00040004          DCW      0x0004,0x0004
0003dc  0004001c          DCW      0x0004,0x001c
0003e0  00100028          DCW      0x0010,0x0028
0003e4  00440000          DCW      0x0044,0x0000
0003e8  00000000          DCW      0x0000,0x0000
0003ec  00000000          DCW      0x0000,0x0000
0003f0  00000000          DCW      0x0000,0x0000
0003f4  00000000          DCW      0x0000,0x0000
0003f8  00000000          DCW      0x0000,0x0000
0003fc  00000000          DCW      0x0000,0x0000
000400  00200010          DCW      0x0020,0x0010
000404  00100000          DCW      0x0010,0x0000
000408  00000000          DCW      0x0000,0x0000
00040c  00000000          DCW      0x0000,0x0000
000410  00000000          DCW      0x0000,0x0000
000414  00180004          DCW      0x0018,0x0004
000418  001c0024          DCW      0x001c,0x0024
00041c  0024001c          DCW      0x0024,0x001c
000420  00200020          DCW      0x0020,0x0020
000424  00280034          DCW      0x0028,0x0034
000428  00240024          DCW      0x0024,0x0024
00042c  00340028          DCW      0x0034,0x0028
000430  00000000          DCW      0x0000,0x0000
000434  00180024          DCW      0x0018,0x0024
000438  00200020          DCW      0x0020,0x0020
00043c  00240018          DCW      0x0024,0x0018
000440  00040004          DCW      0x0004,0x0004
000444  0014002c          DCW      0x0014,0x002c
000448  00240024          DCW      0x0024,0x0024
00044c  002c0014          DCW      0x002c,0x0014
000450  00000000          DCW      0x0000,0x0000
000454  00180024          DCW      0x0018,0x0024
000458  003c0020          DCW      0x003c,0x0020
00045c  00240018          DCW      0x0024,0x0018
000460  00000018          DCW      0x0000,0x0018
000464  00100010          DCW      0x0010,0x0010
000468  00180010          DCW      0x0018,0x0010
00046c  00100010          DCW      0x0010,0x0010
000470  00000018          DCW      0x0000,0x0018
000474  00240024          DCW      0x0024,0x0024
000478  00180004          DCW      0x0018,0x0004
00047c  00240018          DCW      0x0024,0x0018
000480  00200020          DCW      0x0020,0x0020
000484  00280034          DCW      0x0028,0x0034
000488  00240024          DCW      0x0024,0x0024
00048c  00240024          DCW      0x0024,0x0024
000490  00100000          DCW      0x0010,0x0000
000494  00100010          DCW      0x0010,0x0010
000498  00100010          DCW      0x0010,0x0010
00049c  00100010          DCW      0x0010,0x0010
0004a0  00080000          DCW      0x0008,0x0000
0004a4  00080008          DCW      0x0008,0x0008
0004a8  00080008          DCW      0x0008,0x0008
0004ac  00280010          DCW      0x0028,0x0010
0004b0  00200020          DCW      0x0020,0x0020
0004b4  00240028          DCW      0x0024,0x0028
0004b8  00300028          DCW      0x0030,0x0028
0004bc  00240024          DCW      0x0024,0x0024
0004c0  00100010          DCW      0x0010,0x0010
0004c4  00100010          DCW      0x0010,0x0010
0004c8  00100010          DCW      0x0010,0x0010
0004cc  00100010          DCW      0x0010,0x0010
0004d0  00000000          DCW      0x0000,0x0000
0004d4  00a600da          DCW      0x00a6,0x00da
0004d8  00920092          DCW      0x0092,0x0092
0004dc  00920092          DCW      0x0092,0x0092
0004e0  00000000          DCW      0x0000,0x0000
0004e4  00280034          DCW      0x0028,0x0034
0004e8  00240024          DCW      0x0024,0x0024
0004ec  00240024          DCW      0x0024,0x0024
0004f0  00000000          DCW      0x0000,0x0000
0004f4  00180024          DCW      0x0018,0x0024
0004f8  00240024          DCW      0x0024,0x0024
0004fc  00240018          DCW      0x0024,0x0018
000500  00000028          DCW      0x0000,0x0028
000504  00340024          DCW      0x0034,0x0024
000508  00380020          DCW      0x0038,0x0020
00050c  00200020          DCW      0x0020,0x0020
000510  00000014          DCW      0x0000,0x0014
000514  002c0024          DCW      0x002c,0x0024
000518  001c0004          DCW      0x001c,0x0004
00051c  00040004          DCW      0x0004,0x0004
000520  00000000          DCW      0x0000,0x0000
000524  002c0030          DCW      0x002c,0x0030
000528  00200020          DCW      0x0020,0x0020
00052c  00200020          DCW      0x0020,0x0020
000530  00000000          DCW      0x0000,0x0000
000534  00180024          DCW      0x0018,0x0024
000538  00100008          DCW      0x0010,0x0008
00053c  00240018          DCW      0x0024,0x0018
000540  00000010          DCW      0x0000,0x0010
000544  00380010          DCW      0x0038,0x0010
000548  00100010          DCW      0x0010,0x0010
00054c  00100018          DCW      0x0010,0x0018
000550  00000000          DCW      0x0000,0x0000
000554  00240024          DCW      0x0024,0x0024
000558  00240024          DCW      0x0024,0x0024
00055c  002c0014          DCW      0x002c,0x0014
000560  00000000          DCW      0x0000,0x0000
000564  00440044          DCW      0x0044,0x0044
000568  00280028          DCW      0x0028,0x0028
00056c  00280010          DCW      0x0028,0x0010
000570  00000000          DCW      0x0000,0x0000
000574  009200aa          DCW      0x0092,0x00aa
000578  00aa00aa          DCW      0x00aa,0x00aa
00057c  00aa0044          DCW      0x00aa,0x0044
000580  00000000          DCW      0x0000,0x0000
000584  00440028          DCW      0x0044,0x0028
000588  00100010          DCW      0x0010,0x0010
00058c  00280044          DCW      0x0028,0x0044
000590  00000028          DCW      0x0000,0x0028
000594  00280028          DCW      0x0028,0x0028
000598  00100010          DCW      0x0010,0x0010
00059c  00100010          DCW      0x0010,0x0010
0005a0  00000000          DCW      0x0000,0x0000
0005a4  003c0004          DCW      0x003c,0x0004
0005a8  00080010          DCW      0x0008,0x0010
0005ac  0020003c          DCW      0x0020,0x003c
0005b0  00000008          DCW      0x0000,0x0008
0005b4  00100010          DCW      0x0010,0x0010
0005b8  00200010          DCW      0x0020,0x0010
0005bc  00100008          DCW      0x0010,0x0008
0005c0  00100010          DCW      0x0010,0x0010
0005c4  00100010          DCW      0x0010,0x0010
0005c8  00100010          DCW      0x0010,0x0010
0005cc  00100010          DCW      0x0010,0x0010
0005d0  00000010          DCW      0x0000,0x0010
0005d4  00080008          DCW      0x0008,0x0008
0005d8  00040008          DCW      0x0004,0x0008
0005dc  00080010          DCW      0x0008,0x0010
0005e0  00000000          DCW      0x0000,0x0000
0005e4  00000060          DCW      0x0000,0x0060
0005e8  0092000c          DCW      0x0092,0x000c
0005ec  00000000          DCW      0x0000,0x0000
0005f0  00ff00ff          DCW      0x00ff,0x00ff
0005f4  00ff00ff          DCW      0x00ff,0x00ff
0005f8  00ff00ff          DCW      0x00ff,0x00ff
0005fc  00ff00ff          DCW      0x00ff,0x00ff

                          AREA ||.data||, DATA, ALIGN=2

                  TextColor
000000  0000              DCW      0x0000
                  BackColor
000002  ffff              DCW      0xffff
                  LCD_Currentfonts
                          DCD      0x00000000
                  Font16x24
                          DCD      ASCII16x24_Table
00000c  00100018          DCW      0x0010,0x0018

                          AREA ||area_number.50||, DATA, ALIGN=2

                          EXPORTAS ||area_number.50||, ||.data||
                  Font12x12
                          DCD      ASCII12x12_Table
000004  000c000c          DCW      0x000c,0x000c

                          AREA ||area_number.51||, DATA, ALIGN=2

                          EXPORTAS ||area_number.51||, ||.data||
                  Font8x12
                          DCD      ASCII8x12_Table
000004  0008000c          DCW      0x0008,0x000c

                          AREA ||area_number.52||, DATA, ALIGN=2

                          EXPORTAS ||area_number.52||, ||.data||
                  Font8x8
                          DCD      ASCII8x8_Table
000004  00080008          DCW      0x0008,0x0008
