
L13S.elf:     file format elf32-avr

Sections:
Idx Name          Size      VMA       LMA       File off  Algn
  0 .data         000001bc  00800100  0000616a  000061fe  2**0
                  CONTENTS, ALLOC, LOAD, DATA
  1 .text         0000616a  00000000  00000000  00000094  2**1
                  CONTENTS, ALLOC, LOAD, READONLY, CODE
  2 .bss          00000117  008002bc  008002bc  000063ba  2**0
                  ALLOC
  3 .stab         00003294  00000000  00000000  000063bc  2**2
                  CONTENTS, READONLY, DEBUGGING
  4 .stabstr      00000b2a  00000000  00000000  00009650  2**0
                  CONTENTS, READONLY, DEBUGGING
  5 .debug_aranges 00000120  00000000  00000000  0000a17a  2**0
                  CONTENTS, READONLY, DEBUGGING
  6 .debug_pubnames 0000090e  00000000  00000000  0000a29a  2**0
                  CONTENTS, READONLY, DEBUGGING
  7 .debug_info   00002036  00000000  00000000  0000aba8  2**0
                  CONTENTS, READONLY, DEBUGGING
  8 .debug_abbrev 000007f2  00000000  00000000  0000cbde  2**0
                  CONTENTS, READONLY, DEBUGGING
  9 .debug_line   00002927  00000000  00000000  0000d3d0  2**0
                  CONTENTS, READONLY, DEBUGGING
 10 .debug_frame  00000520  00000000  00000000  0000fcf8  2**2
                  CONTENTS, READONLY, DEBUGGING
 11 .debug_str    000007d6  00000000  00000000  00010218  2**0
                  CONTENTS, READONLY, DEBUGGING
 12 .debug_pubtypes 00000143  00000000  00000000  000109ee  2**0
                  CONTENTS, READONLY, DEBUGGING

Disassembly of section .text:

00000000 <__vectors>:
       0:	0c 94 71 0d 	jmp	0x1ae2	; 0x1ae2 <__ctors_end>
       4:	0c 94 90 0d 	jmp	0x1b20	; 0x1b20 <__bad_interrupt>
       8:	0c 94 90 0d 	jmp	0x1b20	; 0x1b20 <__bad_interrupt>
       c:	0c 94 90 0d 	jmp	0x1b20	; 0x1b20 <__bad_interrupt>
      10:	0c 94 90 0d 	jmp	0x1b20	; 0x1b20 <__bad_interrupt>
      14:	0c 94 90 0d 	jmp	0x1b20	; 0x1b20 <__bad_interrupt>
      18:	0c 94 90 0d 	jmp	0x1b20	; 0x1b20 <__bad_interrupt>
      1c:	0c 94 90 0d 	jmp	0x1b20	; 0x1b20 <__bad_interrupt>
      20:	0c 94 90 0d 	jmp	0x1b20	; 0x1b20 <__bad_interrupt>
      24:	0c 94 90 0d 	jmp	0x1b20	; 0x1b20 <__bad_interrupt>
      28:	0c 94 2e 12 	jmp	0x245c	; 0x245c <__vector_10>
      2c:	0c 94 90 0d 	jmp	0x1b20	; 0x1b20 <__bad_interrupt>
      30:	0c 94 90 0d 	jmp	0x1b20	; 0x1b20 <__bad_interrupt>
      34:	0c 94 90 0d 	jmp	0x1b20	; 0x1b20 <__bad_interrupt>
      38:	0c 94 ca 11 	jmp	0x2394	; 0x2394 <__vector_14>
      3c:	0c 94 90 0d 	jmp	0x1b20	; 0x1b20 <__bad_interrupt>
      40:	0c 94 32 29 	jmp	0x5264	; 0x5264 <__vector_16>
      44:	0c 94 90 0d 	jmp	0x1b20	; 0x1b20 <__bad_interrupt>
      48:	0c 94 3b 26 	jmp	0x4c76	; 0x4c76 <__vector_18>
      4c:	0c 94 90 0d 	jmp	0x1b20	; 0x1b20 <__bad_interrupt>
      50:	0c 94 90 0d 	jmp	0x1b20	; 0x1b20 <__bad_interrupt>
      54:	0c 94 90 0d 	jmp	0x1b20	; 0x1b20 <__bad_interrupt>
      58:	0c 94 90 0d 	jmp	0x1b20	; 0x1b20 <__bad_interrupt>
      5c:	0c 94 90 0d 	jmp	0x1b20	; 0x1b20 <__bad_interrupt>
      60:	0c 94 90 0d 	jmp	0x1b20	; 0x1b20 <__bad_interrupt>
      64:	0c 94 90 0d 	jmp	0x1b20	; 0x1b20 <__bad_interrupt>
      68:	0c 94 90 0d 	jmp	0x1b20	; 0x1b20 <__bad_interrupt>
      6c:	0c 94 90 0d 	jmp	0x1b20	; 0x1b20 <__bad_interrupt>
      70:	0c 94 90 0d 	jmp	0x1b20	; 0x1b20 <__bad_interrupt>
      74:	0c 94 ff 20 	jmp	0x41fe	; 0x41fe <__vector_29>
      78:	0c 94 34 2a 	jmp	0x5468	; 0x5468 <__vector_30>
      7c:	0c 94 90 0d 	jmp	0x1b20	; 0x1b20 <__bad_interrupt>
      80:	0c 94 90 0d 	jmp	0x1b20	; 0x1b20 <__bad_interrupt>
      84:	0c 94 90 0d 	jmp	0x1b20	; 0x1b20 <__bad_interrupt>
      88:	0c 94 90 0d 	jmp	0x1b20	; 0x1b20 <__bad_interrupt>
      8c:	07 63       	ori	r16, 0x37	; 55
      8e:	42 36       	cpi	r20, 0x62	; 98
      90:	b7 9b       	sbis	0x16, 7	; 22
      92:	d8 a7       	std	Y+40, r29	; 0x28
      94:	1a 39       	cpi	r17, 0x9A	; 154
      96:	68 56       	subi	r22, 0x68	; 104
      98:	18 ae       	std	Y+56, r1	; 0x38
      9a:	ba ab       	std	Y+50, r27	; 0x32
      9c:	55 8c       	ldd	r5, Z+29	; 0x1d
      9e:	1d 3c       	cpi	r17, 0xCD	; 205
      a0:	b7 cc       	rjmp	.-1682   	; 0xfffffa10 <__eeprom_end+0xff7efa10>
      a2:	57 63       	ori	r21, 0x37	; 55
      a4:	bd 6d       	ori	r27, 0xDD	; 221
      a6:	ed fd       	.word	0xfded	; ????
      a8:	75 3e       	cpi	r23, 0xE5	; 229
      aa:	f6 17       	cp	r31, r22
      ac:	72 31       	cpi	r23, 0x12	; 18
      ae:	bf 00       	.word	0x00bf	; ????
      b0:	00 00       	nop
      b2:	80 3f       	cpi	r24, 0xF0	; 240
      b4:	08 00       	.word	0x0008	; ????
      b6:	00 00       	nop
      b8:	be 92       	st	-X, r11
      ba:	24 49       	sbci	r18, 0x94	; 148
      bc:	12 3e       	cpi	r17, 0xE2	; 226
      be:	ab aa       	std	Y+51, r10	; 0x33
      c0:	aa 2a       	or	r10, r26
      c2:	be cd       	rjmp	.-1156   	; 0xfffffc40 <__eeprom_end+0xff7efc40>
      c4:	cc cc       	rjmp	.-1640   	; 0xfffffa5e <__eeprom_end+0xff7efa5e>
      c6:	4c 3e       	cpi	r20, 0xEC	; 236
      c8:	00 00       	nop
      ca:	00 80       	ld	r0, Z
      cc:	be ab       	std	Y+54, r27	; 0x36
      ce:	aa aa       	std	Y+50, r10	; 0x32
      d0:	aa 3e       	cpi	r26, 0xEA	; 234
      d2:	00 00       	nop
      d4:	00 00       	nop
      d6:	bf 00       	.word	0x00bf	; ????
      d8:	00 00       	nop
      da:	80 3f       	cpi	r24, 0xF0	; 240
      dc:	00 00       	nop
      de:	00 00       	nop
      e0:	00 08       	sbc	r0, r0
      e2:	41 78       	andi	r20, 0x81	; 129
      e4:	d3 bb       	out	0x13, r29	; 19
      e6:	43 87       	std	Z+11, r20	; 0x0b
      e8:	d1 13       	cpse	r29, r17
      ea:	3d 19       	sub	r19, r13
      ec:	0e 3c       	cpi	r16, 0xCE	; 206
      ee:	c3 bd       	out	0x23, r28	; 35
      f0:	42 82       	std	Z+2, r4	; 0x02
      f2:	ad 2b       	or	r26, r29
      f4:	3e 68       	ori	r19, 0x8E	; 142
      f6:	ec 82       	std	Y+4, r14	; 0x04
      f8:	76 be       	out	0x36, r7	; 54
      fa:	d9 8f       	std	Y+25, r29	; 0x19
      fc:	e1 a9       	ldd	r30, Z+49	; 0x31
      fe:	3e 4c       	sbci	r19, 0xCE	; 206
     100:	80 ef       	ldi	r24, 0xF0	; 240
     102:	ff be       	out	0x3f, r15	; 63
     104:	01 c4       	rjmp	.+2050   	; 0x908 <ziku+0x7fa>
     106:	ff 7f       	andi	r31, 0xFF	; 255
     108:	3f 00       	.word	0x003f	; ????
     10a:	00 00       	nop
	...

0000010e <ziku>:
	...
     156:	00 00 03 c0 03 c0 03 c0 03 c0 03 c0 03 c0 03 c0     ................
     166:	03 c0 03 c0 03 c0 03 c0 03 c0 03 c0 03 c0 03 c0     ................
     176:	03 c0 03 c0 03 c0 00 00 00 00 00 00 00 00 00 00     ................
     186:	03 c0 03 c0 03 c0 00 00 00 00 00 00 00 00 00 00     ................
     196:	0f be 1f 7c 1e 78 3e f8 3c f0 79 e0 00 00 00 00     ...|.x>.<.y.....
	...
     1da:	0f 1c 0f 3c 0f 3c 0f 3c 0f 3c 0e 3c 0e 38 ff ff     ...<.<.<.<.<.8..
     1ea:	ff ff ff ff 0e 38 1e 38 1e 78 1e 78 1c 78 1c 70     .....8.8.x.x.x.p
     1fa:	1c 70 ff ff ff ff ff ff 3c 70 3c f0 3c f0 3c f0     .p......<p<.<.<.
     20a:	38 f0 38 e0 38 e0 00 00 00 00 00 00 00 00 00 00     8.8.8...........
     21a:	00 00 3f 80 7b c0 71 c0 71 c0 71 c0 7b c0 3f 80     ..?.{.q.q.q.{.?.
	...
     25e:	18 18 7e 38 7e 38 ff 30 e7 30 e7 70 e7 60 e7 60     ..~8~8.0.0.p.`.`
     26e:	e7 e0 e7 c0 ff c0 7f c0 7f c0 3d fc 03 fe 03 fe     ..........=.....
     27e:	03 ef 07 ef 07 ef 06 ef 0e ef 0e ef 0c ef 1c fe     ................
     28e:	1c 7e 18 7c 38 00 00 00 00 00 00 00 00 00 00 00     .~.|8...........
     29e:	00 00 03 80 0f e0 1f f0 1e f0 3c f0 3c f0 3c f0     ..........<.<.<.
     2ae:	1e f0 1f e0 1f e0 1f c0 1f 00 3f 80 3f 80 7f de     ..........?.?...
     2be:	7b de f3 fe f1 fe f0 fe f0 fc f8 7c 78 7e 7c ff     {..........|x~|.
     2ce:	3f ff 1f e6 00 00 00 00 00 00 00 00 00 00 00 00     ?...............
     2de:	00 00 00 00 3c 00 3c 00 3c 00 1c 00 1c 00 38 00     ....<.<.<.....8.
	...
     322:	00 06 00 0f 00 1e 00 3c 00 78 00 70 00 f0 00 e0     .......<.x.p....
     332:	00 e0 01 e0 01 c0 01 c0 01 c0 01 c0 01 c0 01 c0     ................
     342:	01 c0 01 c0 01 c0 01 e0 00 e0 00 e0 00 f0 00 70     ...............p
     352:	00 78 00 3c 00 1e 00 0f 00 06 00 00 00 00 00 00     .x.<............
     362:	00 00 60 00 f0 00 78 00 3c 00 1e 00 1e 00 0f 00     ..`...x.<.......
     372:	0f 00 07 00 07 80 07 80 03 80 03 80 03 80 03 80     ................
     382:	03 80 03 80 03 80 07 80 07 80 07 00 0f 00 0f 00     ................
     392:	1e 00 1e 00 3c 00 78 00 f0 00 60 00 00 00 00 00     ....<.x...`.....
	...
     3b2:	00 00 03 c0 03 c0 03 c0 73 ce ff ff 7f fe 1f f8     ........s.......
     3c2:	07 e0 1f f8 7f fe ff ff 73 ce 03 c0 03 c0 03 c0     ........s.......
     3d2:	03 c0 00 00 00 00 00 00 00 00 00 00 00 00 00 00     ................
	...
     3f6:	03 c0 03 c0 03 c0 03 c0 03 c0 03 c0 ff ff ff ff     ................
     406:	03 c0 03 c0 03 c0 03 c0 03 c0 03 c0 03 c0 00 00     ................
	...
     456:	00 00 3c 00 3c 00 3c 00 1c 00 1c 00 38 00 00 00     ..<.<.<.....8...
	...
     486:	ff ff ff ff 00 00 00 00 00 00 00 00 00 00 00 00     ................
	...
     4da:	00 00 3c 00 3c 00 3c 00 00 00 00 00 00 00 00 00     ..<.<.<.........
     4ea:	00 00 00 00 00 00 00 07 00 0e 00 0e 00 1c 00 1c     ................
     4fa:	00 3c 00 38 00 38 00 70 00 70 00 e0 00 e0 01 c0     .<.8.8.p.p......
     50a:	01 c0 03 80 03 80 07 80 07 00 07 00 0e 00 0e 00     ................
     51a:	1c 00 1c 00 38 00 38 00 70 00 70 00 f0 00 e0 00     ....8.8.p.p.....
	...
     532:	00 00 03 c0 0f f0 1f f8 3e 7c 3c 3c 7c 3e 78 3e     ........>|<<|>x>
     542:	78 1e 78 1e f8 1e f8 1f f8 1f f8 1f f8 1f f8 1f     x.x.............
     552:	f8 1e 78 1e 78 1e 78 3e 7c 3e 3c 3c 3e 7c 1f f8     ..x.x.x>|><<>|..
     562:	0f f0 07 e0 00 00 00 00 00 00 00 00 00 00 00 00     ................
     572:	00 00 00 00 01 e0 01 e0 03 e0 07 e0 3f e0 3f e0     ............?.?.
     582:	03 e0 03 e0 03 e0 03 e0 03 e0 03 e0 03 e0 03 e0     ................
     592:	03 e0 03 e0 03 e0 03 e0 03 e0 03 e0 03 e0 03 e0     ................
     5a2:	03 e0 03 e0 03 e0 00 00 00 00 00 00 00 00 00 00     ................
     5b2:	00 00 00 00 00 00 03 c0 0f f0 1f f8 3e 7c 3c 3c     ............>|<<
     5c2:	3c 3e 7c 3e 7c 3e 00 3c 00 3c 00 7c 00 78 00 f8     <>|>|>.<.<.|.x..
     5d2:	01 f0 03 e0 07 c0 07 80 0f 80 1f 00 1e 00 3c 00     ..............<.
     5e2:	7c 00 7f fe 7f fe 7f fe 00 00 00 00 00 00 00 00     |...............
	...
     5fa:	03 c0 0f f0 1f f8 3e 7c 3c 3c 7c 3c 78 3c 00 3c     ......>|<<|<x<.<
     60a:	00 3c 00 3c 00 f8 03 f0 03 f0 00 f8 00 7c 00 3c     .<.<.........|.<
     61a:	00 3e 78 3e 78 3e 78 3e 78 3c 7c 7c 3f f8 1f f0     .>x>x>x>x<||?...
     62a:	0f e0 00 00 00 00 00 00 00 00 00 00 00 00 00 00     ................
     63a:	00 00 00 78 00 f8 00 f8 01 f8 03 f8 03 f8 07 f8     ...x............
     64a:	07 f8 0f f8 0f 78 1f 78 1e 78 3e 78 3c 78 7c 78     .....x.x.x>x<x|x
     65a:	78 78 f8 78 ff ff ff ff ff ff 00 78 00 78 00 78     xx.x.......x.x.x
     66a:	00 78 00 78 00 00 00 00 00 00 00 00 00 00 00 00     .x.x............
     67a:	00 00 00 00 3f fc 3f fc 3f fc 7c 00 7c 00 7c 00     ....?.?.?.|.|.|.
     68a:	7c 00 7c 00 7c 00 7f f0 7f f8 7e 7c 7c 3c 7c 3e     |.|.|.....~||<|>
     69a:	00 3e 00 3e 00 3e 00 3e 78 3e 78 3c 78 3c 7c 7c     .>.>.>.>x>x<x<||
     6aa:	3f f8 1f f0 0f e0 00 00 00 00 00 00 00 00 00 00     ?...............
     6ba:	00 00 00 00 00 00 01 e0 07 f8 0f fc 1f 3c 1e 3e     .............<.>
     6ca:	3e 3e 3c 00 3c 00 7c 00 7f f0 7f f8 7f 7c 7e 3c     >><.<.|......|~<
     6da:	7c 3e 7c 3e 7c 1e 7c 1e 7c 1e 3c 1e 3c 3e 3c 3c     |>|>|.|.|.<.<><<
     6ea:	1e 3c 1f fc 0f f8 07 f0 00 00 00 00 00 00 00 00     .<..............
	...
     702:	7f fe 7f fe 7f fe 00 3c 00 3c 00 3c 00 3c 00 78     .......<.<.<.<.x
     712:	00 78 00 78 00 78 00 f0 00 f0 00 f0 01 f0 01 e0     .x.x.x..........
     722:	01 e0 01 e0 03 e0 03 c0 03 c0 07 c0 07 c0 07 80     ................
     732:	07 80 00 00 00 00 00 00 00 00 00 00 00 00 00 00     ................
     742:	00 00 03 c0 0f f0 1f f8 3e 7c 3c 3c 7c 3c 7c 3c     ........>|<<|<|<
     752:	7c 3c 7c 3c 3c 3c 3e 78 1f f0 0f f0 1f f8 3c 3c     |<|<<<>x......<<
     762:	78 3e 78 1e 78 1e 78 1e 78 1e 7c 3e 7c 7c 3f fc     x>x.x.x.x.|>||?.
     772:	1f f8 0f f0 00 00 00 00 00 00 00 00 00 00 00 00     ................
     782:	00 00 00 00 03 c0 0f f0 1f f8 3e 78 3c 7c 7c 3c     ..........>x<||<
     792:	78 3c 78 3e 78 3e 78 3e 78 3e 7c 3e 7c 7e 3c 7e     x<x>x>x>x>|>|~<~
     7a2:	3f fe 1f fe 07 be 00 3c 00 3c 7c 7c 7c 78 3c f8     ?......<.<|||x<.
     7b2:	3f f0 1f e0 0f c0 00 00 00 00 00 00 00 00 00 00     ?...............
	...
     7d2:	03 c0 03 c0 03 c0 00 00 00 00 00 00 00 00 00 00     ................
	...
     7ee:	03 c0 03 c0 03 c0 00 00 00 00 00 00 00 00 00 00     ................
	...
     812:	00 00 03 c0 03 c0 03 c0 00 00 00 00 00 00 00 00     ................
	...
     82e:	00 00 03 c0 03 c0 03 c0 01 c0 03 80 03 80 00 00     ................
	...
     846:	00 00 00 02 00 06 00 0e 00 1e 00 3e 00 7e 00 fe     ...........>.~..
     856:	01 fe 03 fe 07 fe 0f fe 1f fe 3f fe 7f fe ff fe     ..........?.....
     866:	7f fe 3f fe 1f fe 0f fe 07 fe 03 fe 01 fe 00 fe     ..?.............
     876:	00 7e 00 3e 00 1e 00 0e 00 06 00 02 00 00 00 00     .~.>............
	...
     89e:	00 00 ff ff ff ff 00 00 00 00 00 00 00 00 00 00     ................
     8ae:	ff ff ff ff 00 00 00 00 00 00 00 00 00 00 00 00     ................
	...
     8ca:	00 00 40 00 60 00 70 00 78 00 7c 00 7e 00 7f 00     ..@.`.p.x.|.~...
     8da:	7f 80 7f c0 7f e0 7f f0 7f f8 7f fc 7f fe 7f ff     ................
     8ea:	7f fe 7f fc 7f f8 7f f0 7f e0 7f c0 7f 80 7f 00     ................
     8fa:	7e 00 7c 00 78 00 70 00 60 00 40 00 00 00 00 00     ~.|.x.p.`.@.....
	...
     912:	07 e0 1f f0 3f f8 3e 7c 7c 3c 7c 3c 78 3c 78 3c     ....?.>||<|<x<x<
     922:	78 3c 00 3c 00 7c 00 78 00 f8 01 f0 03 e0 03 c0     x<.<.|.x........
     932:	03 c0 03 c0 03 c0 03 c0 00 00 00 00 00 00 07 c0     ................
     942:	07 c0 07 c0 00 00 00 00 00 00 00 00 00 00 00 00     ................
     952:	00 00 07 f0 0e 38 1c 1c 18 0e 38 0e 31 86 77 ff     .....8....8.1.w.
     962:	77 ff 6f 7f ee 77 fe 77 fe 77 fc 77 fc 77 fc f7     w.o..w.w.w.w.w..
     972:	fc f7 fc e6 fe ee ff ee ef fc 6f f8 70 00 70 00     ..........o.p.p.
     982:	38 00 1c 18 0e 78 07 e0 00 00 00 00 00 00 00 00     8....x..........
     992:	00 00 00 00 03 c0 03 c0 07 e0 07 e0 07 e0 07 e0     ................
     9a2:	0f f0 0f f0 0f f0 0f f0 1f f8 1f f8 1e 78 1e 78     .............x.x
     9b2:	3e 7c 3f fc 3f fc 3f fc 7c 3e 7c 3e 78 1e 78 1e     >|?.?.?.|>|>x.x.
     9c2:	f8 1f f8 1f f0 0f 00 00 00 00 00 00 00 00 00 00     ................
     9d2:	00 00 00 00 00 00 7f c0 7f f8 7f fc 78 7c 78 3e     ............x|x>
     9e2:	78 1e 78 1e 78 1e 78 3e 78 7c 7f f8 7f f0 7f f8     x.x.x.x>x|......
     9f2:	78 7c 78 3e 78 1e 78 1f 78 1f 78 1f 78 1e 78 3e     x|x>x.x.x.x.x.x>
     a02:	78 7e 7f fc 7f f8 7f f0 00 00 00 00 00 00 00 00     x~..............
	...
     a1a:	01 e0 07 f8 0f fc 1f 3c 3e 1e 3c 1e 7c 1e 78 1f     .......<>.<.|.x.
     a2a:	78 1f 78 00 78 00 78 00 78 00 78 00 78 00 78 1f     x.x.x.x.x.x.x.x.
     a3a:	78 1f 78 1f 7c 1e 7c 1e 3c 3e 3e 7c 1f fc 0f f8     x.x.|.|.<>>|....
     a4a:	07 f0 00 00 00 00 00 00 00 00 00 00 00 00 00 00     ................
     a5a:	00 00 7f 00 7f e0 7f f0 79 f8 78 7c 78 3c 78 3e     ........y.x|x<x>
     a6a:	78 3e 78 1e 78 1e 78 1e 78 1e 78 1e 78 1e 78 1e     x>x.x.x.x.x.x.x.
     a7a:	78 1e 78 1e 78 3e 78 3e 78 3e 78 7c 78 fc 7f f8     x.x.x>x>x>x|x...
     a8a:	7f f0 7f c0 00 00 00 00 00 00 00 00 00 00 00 00     ................
     a9a:	00 00 00 00 7f fe 7f fe 7f fe 7c 00 7c 00 7c 00     ..........|.|.|.
     aaa:	7c 00 7c 00 7c 00 7c 00 7c 00 7f fc 7f fc 7f fc     |.|.|.|.|.......
     aba:	7c 00 7c 00 7c 00 7c 00 7c 00 7c 00 7c 00 7c 00     |.|.|.|.|.|.|.|.
     aca:	7f fe 7f fe 7f fe 00 00 00 00 00 00 00 00 00 00     ................
     ada:	00 00 00 00 00 00 7f ff 7f ff 7f ff 78 00 78 00     ............x.x.
     aea:	78 00 78 00 78 00 78 00 78 00 78 00 7f f8 7f f8     x.x.x.x.x.x.....
     afa:	7f f8 78 00 78 00 78 00 78 00 78 00 78 00 78 00     ..x.x.x.x.x.x.x.
     b0a:	78 00 78 00 78 00 78 00 00 00 00 00 00 00 00 00     x.x.x.x.........
	...
     b22:	01 e0 0f f8 1f fc 1f 3c 3e 3e 3c 1e 7c 1e 78 1e     .......<>><.|.x.
     b32:	78 00 78 00 78 00 79 fe 79 fe 79 fe 78 1e 78 1e     x.x.x.y.y.y.x.x.
     b42:	78 1e 78 1e 78 1e 7c 3e 3c 3e 3e 7e 1f fe 0f fe     x.x.x.|><>>~....
     b52:	07 fe 00 00 00 00 00 00 00 00 00 00 00 00 00 00     ................
     b62:	00 00 78 1e 78 1e 78 1e 78 1e 78 1e 78 1e 78 1e     ..x.x.x.x.x.x.x.
     b72:	78 1e 78 1e 78 1e 7f fe 7f fe 7f fe 78 1e 78 1e     x.x.x.......x.x.
     b82:	78 1e 78 1e 78 1e 78 1e 78 1e 78 1e 78 1e 78 1e     x.x.x.x.x.x.x.x.
     b92:	78 1e 78 1e 00 00 00 00 00 00 00 00 00 00 00 00     x.x.............
     ba2:	00 00 00 00 03 c0 03 c0 03 c0 03 c0 03 c0 03 c0     ................
     bb2:	03 c0 03 c0 03 c0 03 c0 03 c0 03 c0 03 c0 03 c0     ................
     bc2:	03 c0 03 c0 03 c0 03 c0 03 c0 03 c0 03 c0 03 c0     ................
     bd2:	03 c0 03 c0 03 c0 00 00 00 00 00 00 00 00 00 00     ................
     be2:	00 00 00 00 00 00 00 3e 00 3e 00 3e 00 3e 00 3e     .......>.>.>.>.>
     bf2:	00 3e 00 3e 00 3e 00 3e 00 3e 00 3e 00 3e 00 3e     .>.>.>.>.>.>.>.>
     c02:	00 3e 00 3e 78 3e 78 3e 78 3e 78 3e 7c 3e 7c 3c     .>.>x>x>x>x>|>|<
     c12:	3e 7c 3f f8 1f f8 0f e0 00 00 00 00 00 00 00 00     >|?.............
	...
     c2a:	78 1f 78 3e 78 7c 78 78 78 f8 79 f0 7b e0 7b e0     x.x>x|xxx.y.{.{.
     c3a:	7f c0 7f 80 7f 80 7f c0 7f c0 7f e0 7d e0 79 f0     ............}.y.
     c4a:	79 f0 78 f0 78 f8 78 78 78 7c 78 3c 78 3e 78 1e     y.x.x.xxx|x<x>x.
     c5a:	78 1f 00 00 00 00 00 00 00 00 00 00 00 00 00 00     x...............
     c6a:	00 00 78 00 78 00 78 00 78 00 78 00 78 00 78 00     ..x.x.x.x.x.x.x.
     c7a:	78 00 78 00 78 00 78 00 78 00 78 00 78 00 78 00     x.x.x.x.x.x.x.x.
     c8a:	78 00 78 00 78 00 78 00 78 00 78 00 78 00 7f fe     x.x.x.x.x.x.x...
     c9a:	7f fe 7f fe 00 00 00 00 00 00 00 00 00 00 00 00     ................
     caa:	00 00 00 00 fc 3f fc 3f fc 3f fe 7f fe 7f fe 7f     .....?.?.?......
     cba:	fe 7f fe 7f fe 7f ff ff ff ff ff ff ff ff ff ff     ................
     cca:	ff ff ff ff ff ff ff ff ff ff ff ff ff ff fb df     ................
     cda:	fb df fb df fb df 00 00 00 00 00 00 00 00 00 00     ................
     cea:	00 00 00 00 00 00 7c 1e 7c 1e 7c 1e 7e 1e 7e 1e     ......|.|.|.~.~.
     cfa:	7e 1e 7f 1e 7f 1e 7f 9e 7f 9e 7f 9e 7f de 7b de     ~.............{.
     d0a:	7b de 7b fe 79 fe 79 fe 79 fe 78 fe 78 fe 78 fe     {.{.y.y.y.x.x.x.
     d1a:	78 7e 78 7e 78 7e 78 3e 00 00 00 00 00 00 00 00     x~x~x~x>........
	...
     d32:	03 c0 0f f0 1f f8 3e 7c 7c 3c 78 1e 78 1e 78 1e     ......>||<x.x.x.
     d42:	f8 1e f8 1f f8 1f f8 1f f8 1f f8 1f f8 1f f8 1f     ................
     d52:	f8 1e 78 1e 78 1e 78 1e 7c 3c 3e 7c 3f f8 1f f8     ..x.x.x.|<>|?...
     d62:	0f f0 00 00 00 00 00 00 00 00 00 00 00 00 00 00     ................
     d72:	00 00 7f e0 7f f8 7f fc 78 7e 78 1e 78 1e 78 1f     ........x~x.x.x.
     d82:	78 1f 78 1f 78 1e 78 3e 78 7e 7f fc 7f f8 7f e0     x.x.x.x>x~......
     d92:	78 00 78 00 78 00 78 00 78 00 78 00 78 00 78 00     x.x.x.x.x.x.x.x.
     da2:	78 00 78 00 00 00 00 00 00 00 00 00 00 00 00 00     x.x.............
     db2:	00 00 00 00 03 c0 0f f0 1f f8 3e 7c 7c 3c 78 1e     ..........>||<x.
     dc2:	78 1e 78 1e f8 1e f8 1e f8 1f f8 1f f8 1f f8 1f     x.x.............
     dd2:	f8 1f f8 1f f8 fe 79 fe 79 fe 78 fe 7c fe 3e 7c     ......y.y.x.|.>|
     de2:	3f fc 1f fe 0f fc 00 18 00 00 00 00 00 00 00 00     ?...............
     df2:	00 00 00 00 00 00 7f c0 7f f8 7f fc 78 fc 78 3e     ............x.x>
     e02:	78 1e 78 1e 78 1e 78 1e 78 3e 78 7c 7f fc 7f f8     x.x.x.x.x>x|....
     e12:	7f f0 79 f0 78 f0 78 f8 78 f8 78 78 78 7c 78 3c     ..y.x.x.x.xxx|x<
     e22:	78 3c 78 3e 78 1e 78 1f 00 00 00 00 00 00 00 00     x<x>x.x.........
	...
     e3a:	03 c0 0f f8 1f fc 3e 7c 3c 3c 7c 3e 7c 3e 7c 00     ......>|<<|>|>|.
     e4a:	3c 00 3e 00 1f 00 0f c0 07 e0 03 f8 00 fc 00 7e     <.>............~
     e5a:	00 3e f8 1e 78 1e 78 1e 78 3e 7c 3e 3f fc 1f f8     .>..x.x.x>|>?...
     e6a:	0f f0 00 00 00 00 00 00 00 00 00 00 00 00 00 00     ................
     e7a:	00 00 7f fe 7f fe 7f fe 03 c0 03 c0 03 c0 03 c0     ................
     e8a:	03 c0 03 c0 03 c0 03 c0 03 c0 03 c0 03 c0 03 c0     ................
     e9a:	03 c0 03 c0 03 c0 03 c0 03 c0 03 c0 03 c0 03 c0     ................
     eaa:	03 c0 03 c0 00 00 00 00 00 00 00 00 00 00 00 00     ................
     eba:	00 00 00 00 78 1e 78 1e 78 1e 78 1e 78 1e 78 1e     ....x.x.x.x.x.x.
     eca:	78 1e 78 1e 78 1e 78 1e 78 1e 78 1e 78 1e 78 1e     x.x.x.x.x.x.x.x.
     eda:	78 1e 78 1e 78 1e 78 1e 78 1e 78 1e 7c 3e 7c 7e     x.x.x.x.x.x.|>|~
     eea:	3f fc 1f f8 0f f0 00 00 00 00 00 00 00 00 00 00     ?...............
     efa:	00 00 00 00 00 00 f0 1f f8 1f f8 1e 78 1e 78 1e     ............x.x.
     f0a:	78 3e 7c 3c 3c 3c 3c 3c 3c 7c 3e 78 3e 78 1e 78     x>|<<<<<<|>x>x.x
     f1a:	1e f8 1e f8 1f f0 0f f0 0f f0 0f f0 0f e0 07 e0     ................
     f2a:	07 e0 07 e0 07 c0 03 c0 00 00 00 00 00 00 00 00     ................
	...
     f42:	f3 cf f3 cf f7 cf f7 cf f7 cf f7 ef f7 ef f7 ee     ................
     f52:	f7 fe 77 fe 7f fe 7f fe 7f fe 7f fe 7f fe 7e fe     ..w...........~.
     f62:	7e fc 7e 7c 7e 7c 3e 7c 3e 7c 3e 7c 3e 7c 3c 7c     ~.~|~|>|>|>|>|<|
     f72:	3c 7c 00 00 00 00 00 00 00 00 00 00 00 00 00 00     <|..............
     f82:	00 00 78 1e 78 3e 7c 3c 3c 3c 3e 78 1e 78 1e f8     ..x.x>|<<<>x.x..
     f92:	0f f0 0f f0 0f e0 07 e0 07 c0 07 c0 07 e0 0f e0     ................
     fa2:	0f f0 0f f0 1e f8 1e 78 3e 78 3c 7c 7c 3c 78 3e     .......x>x<||<x>
     fb2:	78 1e f8 1f 00 00 00 00 00 00 00 00 00 00 00 00     x...............
     fc2:	00 00 00 00 f0 0f f8 1f 78 1e 7c 3e 3c 3c 3e 7c     ........x.|><<>|
     fd2:	1e 78 1e f8 1f f0 0f f0 0f f0 07 e0 07 e0 03 c0     .x..............
     fe2:	03 c0 03 c0 03 c0 03 c0 03 c0 03 c0 03 c0 03 c0     ................
     ff2:	03 c0 03 c0 03 c0 00 00 00 00 00 00 00 00 00 00     ................
    1002:	00 00 00 00 00 00 7f fe 7f fe 7f fe 00 1e 00 3c     ...............<
    1012:	00 7c 00 78 00 f8 00 f0 01 f0 01 e0 03 c0 03 c0     .|.x............
    1022:	07 80 07 80 0f 00 0f 00 1e 00 1e 00 3c 00 7c 00     ............<.|.
    1032:	78 00 ff fe ff fe ff fe 00 00 00 00 00 00 00 00     x...............
    1042:	00 00 00 00 00 00 03 fe 03 fe 03 80 03 80 03 80     ................
    1052:	03 80 03 80 03 80 03 80 03 80 03 80 03 80 03 80     ................
    1062:	03 80 03 80 03 80 03 80 03 80 03 80 03 80 03 80     ................
    1072:	03 80 03 80 03 80 03 80 03 80 03 80 03 fe 03 fe     ................
	...
    108a:	00 00 f0 0f f8 1f f8 1e 78 3e 7c 3c 3c 3c 3e 78     ........x>|<<<>x
    109a:	1e 78 1e f0 0f f0 0f f0 07 e0 7f fe 7f fe 07 c0     .x..............
    10aa:	07 c0 7f fe 7f fe 07 c0 07 c0 07 c0 07 c0 07 c0     ................
    10ba:	07 c0 07 c0 00 00 00 00 00 00 00 00 00 00 00 00     ................
    10ca:	00 00 7f c0 7f c0 01 c0 01 c0 01 c0 01 c0 01 c0     ................
    10da:	01 c0 01 c0 01 c0 01 c0 01 c0 01 c0 01 c0 01 c0     ................
    10ea:	01 c0 01 c0 01 c0 01 c0 01 c0 01 c0 01 c0 01 c0     ................
    10fa:	01 c0 01 c0 01 c0 01 c0 7f c0 7f c0 00 00 00 00     ................
    110a:	00 00 03 c0 07 e0 0f f0 1e f8 3c 3c 78 1e 00 00     ..........<<x...
	...
    1186:	00 00 ff ff ff ff 00 00 00 00 0f 80 07 80 03 c0     ................
    1196:	03 e0 01 e0 00 f0 00 00 00 00 00 00 00 00 00 00     ................
	...
    11e6:	0f f8 1f fc 3e 3c 3c 3c 7c 3c 00 7c 01 fc 0f fc     ....><<<|<.|....
    11f6:	1f bc 3e 3c 7c 3c 78 3c 78 7c 7c 7c 7f fc 3f fc     ..><|<x<x|||..?.
    1206:	1f fe 00 00 00 00 00 00 00 00 00 00 00 00 00 00     ................
    1216:	00 00 f8 00 f8 00 f8 00 f8 00 f8 00 f8 00 f8 00     ................
    1226:	f8 00 ff f0 ff f8 fe 7c fc 3c f8 1e f8 1e f8 1e     .......|.<......
    1236:	f8 1e f8 1e f8 1e f8 1e f8 1e f8 3c fc 3c ff f8     ...........<.<..
    1246:	ff f0 ff e0 00 00 00 00 00 00 00 00 00 00 00 00     ................
	...
    126a:	0f f0 1f f8 3e 7c 3c 3c 7c 3e 78 3e 78 00 78 00     ....>|<<|>x>x.x.
    127a:	78 00 78 1e 78 1e 78 1e 7c 3e 3e 3c 1f fc 1f f8     x.x.x.x.|>><....
    128a:	07 f0 00 00 00 00 00 00 00 00 00 00 00 00 00 00     ................
    129a:	00 00 00 3e 00 3e 00 3e 00 3e 00 3e 00 3e 00 3e     ...>.>.>.>.>.>.>
    12aa:	00 3e 0f fe 1f fe 3e 7e 7c 3e 78 3e 78 1e 78 1e     .>....>~|>x>x.x.
    12ba:	78 1e 78 1e 78 1e 78 1e 78 3e 78 3e 3c 7e 3f fe     x.x.x.x.x>x><~?.
    12ca:	1f fe 0f fe 00 00 00 00 00 00 00 00 00 00 00 00     ................
	...
    12ee:	0f f0 1f f8 3e 7c 3c 3c 78 1e 78 1e 7f fe 7f fe     ....>|<<x.x.....
    12fe:	78 00 78 00 78 00 78 1e 3c 3e 3e 3c 1f fc 0f f8     x.x.x.x.<>><....
    130e:	07 f0 00 00 00 00 00 00 00 00 00 00 00 00 00 00     ................
    131e:	00 00 00 f8 03 fe 07 fe 07 80 07 80 07 80 07 80     ................
    132e:	07 80 7f fc 7f fc 07 80 07 80 07 80 07 80 07 80     ................
    133e:	07 80 07 80 07 80 07 80 07 80 07 80 07 80 07 80     ................
    134e:	07 80 07 80 00 00 00 00 00 00 00 00 00 00 00 00     ................
	...
    1372:	0f ff 1f ff 3e f8 3c 78 3c 78 3c 78 3c 78 3c 78     ....>.<x<x<x<x<x
    1382:	1f f0 1f e0 38 00 78 00 7c 00 3f f8 1f fc 78 3e     ....8.x.|.?...x>
    1392:	78 1e 70 1e 78 1e 3f fc 1f f0 00 00 00 00 00 00     x.p.x.?.........
    13a2:	00 00 78 00 78 00 78 00 78 00 78 00 78 00 78 00     ..x.x.x.x.x.x.x.
    13b2:	78 00 7b f8 7f fc 7e 3e 7c 3e 7c 3e 78 3e 78 3e     x.{...~>|>|>x>x>
    13c2:	78 3e 78 3e 78 3e 78 3e 78 3e 78 3e 78 3e 78 3e     x>x>x>x>x>x>x>x>
    13d2:	78 3e 78 3e 00 00 00 00 00 00 00 00 00 00 00 00     x>x>............
    13e2:	00 00 00 00 07 c0 07 c0 07 c0 07 c0 00 00 00 00     ................
    13f2:	00 00 00 00 07 c0 07 c0 07 c0 07 c0 07 c0 07 c0     ................
    1402:	07 c0 07 c0 07 c0 07 c0 07 c0 07 c0 07 c0 07 c0     ................
    1412:	07 c0 07 c0 07 c0 00 00 00 00 00 00 00 00 00 00     ................
    1422:	00 00 00 00 00 00 00 f0 00 f0 00 f0 00 f0 00 00     ................
    1432:	00 00 00 00 00 00 00 f0 00 f0 00 f0 00 f0 00 f0     ................
    1442:	00 f0 00 f0 00 f0 00 f0 00 f0 00 f0 00 f0 00 f0     ................
    1452:	00 f0 00 f0 00 f0 00 f0 00 f0 39 f0 3f f0 3f c0     ..........9.?.?.
	...
    146a:	78 00 78 00 78 00 78 00 78 00 78 00 78 00 78 00     x.x.x.x.x.x.x.x.
    147a:	78 7c 78 f8 78 f0 79 e0 7b e0 7f c0 7f c0 7f e0     x|x.x.y.{.......
    148a:	7f e0 7d f0 78 f0 78 f8 78 78 78 7c 78 3c 78 3e     ..}.x.x.xxx|x<x>
    149a:	78 1e 00 00 00 00 00 00 00 00 00 00 00 00 00 00     x...............
    14aa:	00 00 03 c0 03 c0 03 c0 03 c0 03 c0 03 c0 03 c0     ................
    14ba:	03 c0 03 c0 03 c0 03 c0 03 c0 03 c0 03 c0 03 c0     ................
    14ca:	03 c0 03 c0 03 c0 03 c0 03 c0 03 c0 03 c0 03 c0     ................
    14da:	03 c0 03 c0 00 00 00 00 00 00 00 00 00 00 00 00     ................
	...
    14fe:	ff fe ff ff ff ff f7 df f7 df f7 df f7 df f7 df     ................
    150e:	f7 df f7 df f7 df f7 df f7 df f7 df f7 df f7 df     ................
    151e:	f7 df 00 00 00 00 00 00 00 00 00 00 00 00 00 00     ................
	...
    153e:	00 00 7b f8 7f fc 7f 3e 7e 3e 7c 3e 78 3e 78 3e     ..{....>~>|>x>x>
    154e:	78 3e 78 3e 78 3e 78 3e 78 3e 78 3e 78 3e 78 3e     x>x>x>x>x>x>x>x>
    155e:	78 3e 78 3e 00 00 00 00 00 00 00 00 00 00 00 00     x>x>............
	...
    1582:	0f f0 1f f8 3e 7c 7c 3e 78 1e 78 1e 78 1e 78 1e     ....>||>x.x.x.x.
    1592:	78 1e 78 1e 78 1e 78 1e 7c 3e 3c 3c 3f fc 1f f8     x.x.x.x.|><<?...
    15a2:	0f f0 00 00 00 00 00 00 00 00 00 00 00 00 00 00     ................
	...
    15c2:	00 00 ff f0 ff f8 fe 7c fc 3e f8 1e f8 1e f8 1e     .......|.>......
    15d2:	f8 1e f8 1e f8 1e f8 1e f8 1e fc 3e fe 3c ff f8     ...........>.<..
    15e2:	ff f8 ff f0 f8 00 f8 00 f8 00 f8 00 f8 00 00 00     ................
	...
    1606:	0f fe 1f fe 3e 7e 7c 3e 78 3e 78 1e f8 1e f8 1e     ....>~|>x>x.....
    1616:	f8 1e f8 1e f8 3e 78 3e 78 3e 7c 7e 3f fe 1f fe     .....>x>x>|~?...
    1626:	0f fe 00 3e 00 3e 00 3e 00 3e 00 3e 00 00 00 00     ...>.>.>.>.>....
	...
    1646:	00 00 3e f8 3f f8 3f f8 3f 80 3f 00 3f 00 3e 00     ..>.?.?.?.?.?.>.
    1656:	3e 00 3e 00 3e 00 3e 00 3e 00 3e 00 3e 00 3e 00     >.>.>.>.>.>.>.>.
    1666:	3e 00 3e 00 00 00 00 00 00 00 00 00 00 00 00 00     >.>.............
	...
    168a:	0f f0 1f f8 3e 7c 3c 3c 3c 3c 3e 00 1f 00 0f e0     ....>|<<<<>.....
    169a:	03 f8 00 fc 78 3c 78 3c 78 3c 3c 3c 3f fc 1f f8     ....x<x<x<<<?...
    16aa:	0f f0 00 00 00 00 00 00 00 00 00 00 00 00 00 00     ................
    16ba:	00 00 00 00 00 00 0f 80 0f 80 0f 80 0f 80 0f 80     ................
    16ca:	0f 80 ff fc ff fc 0f 80 0f 80 0f 80 0f 80 0f 80     ................
    16da:	0f 80 0f 80 0f 80 0f 80 0f 80 0f 80 0f 86 0f fe     ................
    16ea:	0f fe 07 fc 00 00 00 00 00 00 00 00 00 00 00 00     ................
	...
    170e:	78 3e 78 3e 78 3e 78 3e 78 3e 78 3e 78 3e 78 3e     x>x>x>x>x>x>x>x>
    171e:	78 3e 78 3e 78 3e 78 3e 78 3e 78 7e 7f fe 3f fe     x>x>x>x>x>x~..?.
    172e:	1f fe 00 00 00 00 00 00 00 00 00 00 00 00 00 00     ................
	...
    174e:	00 00 78 1e 78 1e 78 3c 3c 3c 3c 3c 3c 7c 1e 78     ..x.x.x<<<<<<|.x
    175e:	1e 78 1e f8 1f f0 0f f0 0f f0 0f e0 07 e0 07 e0     .x..............
    176e:	07 e0 07 c0 00 00 00 00 00 00 00 00 00 00 00 00     ................
	...
    1792:	f3 cf f7 cf f7 cf f7 ff f7 fe 7f fe 7f fe 7f fe     ................
    17a2:	7f fe 7f fc 7f fc 3f fc 3e fc 3e 7c 3e 7c 3e 78     ......?.>.>|>|>x
    17b2:	1e 78 00 00 00 00 00 00 00 00 00 00 00 00 00 00     .x..............
	...
    17d2:	00 00 7c 3e 3c 7c 1e 78 1e f8 0f f0 0f f0 07 e0     ..|><|.x........
    17e2:	07 c0 07 c0 07 e0 0f e0 0f f0 1e f8 1e 78 3c 7c     .............x<|
    17f2:	3c 3c 78 3e 00 00 00 00 00 00 00 00 00 00 00 00     <<x>............
	...
    1816:	78 1e 78 1e 7c 3c 3c 3c 3c 3c 1e 78 1e 78 1e 78     x.x.|<<<<<.x.x.x
    1826:	0f f8 0f f0 0f f0 07 f0 07 e0 03 e0 03 e0 03 c0     ................
    1836:	03 c0 03 c0 37 80 3f 80 3f 00 00 00 00 00 00 00     ....7.?.?.......
	...
    1856:	00 00 3f fc 3f fc 00 78 00 f8 00 f0 01 e0 03 e0     ..?.?..x........
    1866:	03 c0 07 80 0f 80 0f 00 1e 00 3e 00 3c 00 78 00     ..........>.<.x.
    1876:	7f fe 7f fe 00 00 00 00 00 00 00 00 00 00 00 00     ................
    1886:	1f 0c 3f 8e 3f de 79 fc 70 fc 00 78 00 00 00 00     ..?.?.y.p..x....
	...

000018c6 <logo>:
	...
    18da:	00 7f ff 80 7f f0 f0 7f f0 38 7f f0 1c 7f f0 0c     .........8......
    18ea:	7f f0 0e 7f f0 06 7f f0 06 7f f0 0e 7f f0 0e 7f     ................
    18fa:	f0 0c 7f f7 38 7f f3 f0 7f f0 38 7f f0 1c 7f f0     ....8.....8.....
    190a:	0c 7f f0 0c 7f f0 0c 7f f0 1c 7f f0 38 7f f0 70     ............8..p
    191a:	7f ff c0 00 00 00 00 00 00 00 00 00 00 00 00 00     ................
	...
    1946:	00 03 fc 00 1f c7 00 3f c1 80 7f c0 00 7f e0 00     .......?........
    1956:	ff f0 00 ff f8 00 7f fc 00 7f fe 00 7f fe 00 3f     ...............?
    1966:	ff 00 1f ff 80 1f ff c0 0f ff c0 07 ff e0 03 ff     ................
    1976:	e0 01 ff e0 00 ff e0 e0 7f c0 70 7f 80 3c 7f 00     ..........p..<..
    1986:	07 fc 00 00 00 00 00 00 00 00 00 00 00 00 00 00     ................
	...
    19b2:	00 ff ff fe 03 ff 80 03 ff 80 03 ff 80 03 ff 80     ................
    19c2:	03 ff 80 03 ff 80 03 ff 80 03 ff 80 03 ff 80 03     ................
    19d2:	ff 80 03 ff 80 03 ff 80 03 ff 80 03 ff 80 03 ff     ................
    19e2:	80 03 ff 80 03 ff 80 03 ff 80 03 ff 80 03 ff 80     ................
    19f2:	03 ff 80 00 00 00 00 00 00 00 00 00 00 00 00 00     ................
	...
    1a1e:	00 00 0c 00 00 1e 00 00 1e 00 00 3f 00 00 7f 00     ...........?....
    1a2e:	00 7f 80 00 ff 80 00 ff c0 01 ff e0 03 ff e0 03     ................
    1a3e:	ff f0 07 ff f0 0e 7f f8 0e 7f f8 1c 3f fc 18 3f     ............?..?
    1a4e:	fc 38 1f fe 70 1f fe 7f ff fe e0 0f fe c0 07 fe     .8..p...........
    1a5e:	c0 03 fe 00 00 00 00 00 00 00 00 00 00 00 00 00     ................
	...
    1a8a:	00 7f ff 80 7f f1 e0 7f f0 38 7f f0 1c 7f f0 0c     .........8......
    1a9a:	7f f0 0e 7f f0 06 7f f0 06 7f f0 06 7f f0 06 7f     ................
    1aaa:	f0 06 7f f0 06 7f f0 0e 7f f0 0e 7f f0 1c 7f f0     ................
    1aba:	38 7f f8 f0 7f ff c0 7f f7 00 7f f3 c0 7f f0 f0     8...............
    1aca:	7f f0 3e 00 00 00 00 00 00 00 00 00 00 00 00 00     ..>.............
	...

00001ae2 <__ctors_end>:
    1ae2:	11 24       	eor	r1, r1
    1ae4:	1f be       	out	0x3f, r1	; 63
    1ae6:	cf ef       	ldi	r28, 0xFF	; 255
    1ae8:	d0 e1       	ldi	r29, 0x10	; 16
    1aea:	de bf       	out	0x3e, r29	; 62
    1aec:	cd bf       	out	0x3d, r28	; 61

00001aee <__do_copy_data>:
    1aee:	12 e0       	ldi	r17, 0x02	; 2
    1af0:	a0 e0       	ldi	r26, 0x00	; 0
    1af2:	b1 e0       	ldi	r27, 0x01	; 1
    1af4:	ea e6       	ldi	r30, 0x6A	; 106
    1af6:	f1 e6       	ldi	r31, 0x61	; 97
    1af8:	00 e0       	ldi	r16, 0x00	; 0
    1afa:	0b bf       	out	0x3b, r16	; 59
    1afc:	02 c0       	rjmp	.+4      	; 0x1b02 <__do_copy_data+0x14>
    1afe:	07 90       	elpm	r0, Z+
    1b00:	0d 92       	st	X+, r0
    1b02:	ac 3b       	cpi	r26, 0xBC	; 188
    1b04:	b1 07       	cpc	r27, r17
    1b06:	d9 f7       	brne	.-10     	; 0x1afe <__do_copy_data+0x10>

00001b08 <__do_clear_bss>:
    1b08:	13 e0       	ldi	r17, 0x03	; 3
    1b0a:	ac eb       	ldi	r26, 0xBC	; 188
    1b0c:	b2 e0       	ldi	r27, 0x02	; 2
    1b0e:	01 c0       	rjmp	.+2      	; 0x1b12 <.do_clear_bss_start>

00001b10 <.do_clear_bss_loop>:
    1b10:	1d 92       	st	X+, r1

00001b12 <.do_clear_bss_start>:
    1b12:	a3 3d       	cpi	r26, 0xD3	; 211
    1b14:	b1 07       	cpc	r27, r17
    1b16:	e1 f7       	brne	.-8      	; 0x1b10 <.do_clear_bss_loop>
    1b18:	0e 94 04 1f 	call	0x3e08	; 0x3e08 <main>
    1b1c:	0c 94 b3 30 	jmp	0x6166	; 0x6166 <_exit>

00001b20 <__bad_interrupt>:
    1b20:	0c 94 00 00 	jmp	0	; 0x0 <__vectors>

00001b24 <del>:
#include"config.h"

void del(unsigned int u)
{
    1b24:	df 93       	push	r29
    1b26:	cf 93       	push	r28
    1b28:	00 d0       	rcall	.+0      	; 0x1b2a <del+0x6>
    1b2a:	00 d0       	rcall	.+0      	; 0x1b2c <del+0x8>
    1b2c:	00 d0       	rcall	.+0      	; 0x1b2e <del+0xa>
    1b2e:	cd b7       	in	r28, 0x3d	; 61
    1b30:	de b7       	in	r29, 0x3e	; 62
    1b32:	9e 83       	std	Y+6, r25	; 0x06
    1b34:	8d 83       	std	Y+5, r24	; 0x05
 	 int j,k=0;
    1b36:	1c 82       	std	Y+4, r1	; 0x04
    1b38:	1b 82       	std	Y+3, r1	; 0x03
	 for(j=u;j>0;j--)
    1b3a:	8d 81       	ldd	r24, Y+5	; 0x05
    1b3c:	9e 81       	ldd	r25, Y+6	; 0x06
    1b3e:	9a 83       	std	Y+2, r25	; 0x02
    1b40:	89 83       	std	Y+1, r24	; 0x01
    1b42:	13 c0       	rjmp	.+38     	; 0x1b6a <del+0x46>
	 for(k=0;k<1140;k++);
    1b44:	1c 82       	std	Y+4, r1	; 0x04
    1b46:	1b 82       	std	Y+3, r1	; 0x03
    1b48:	05 c0       	rjmp	.+10     	; 0x1b54 <del+0x30>
    1b4a:	8b 81       	ldd	r24, Y+3	; 0x03
    1b4c:	9c 81       	ldd	r25, Y+4	; 0x04
    1b4e:	01 96       	adiw	r24, 0x01	; 1
    1b50:	9c 83       	std	Y+4, r25	; 0x04
    1b52:	8b 83       	std	Y+3, r24	; 0x03
    1b54:	8b 81       	ldd	r24, Y+3	; 0x03
    1b56:	9c 81       	ldd	r25, Y+4	; 0x04
    1b58:	24 e0       	ldi	r18, 0x04	; 4
    1b5a:	84 37       	cpi	r24, 0x74	; 116
    1b5c:	92 07       	cpc	r25, r18
    1b5e:	ac f3       	brlt	.-22     	; 0x1b4a <del+0x26>
#include"config.h"

void del(unsigned int u)
{
 	 int j,k=0;
	 for(j=u;j>0;j--)
    1b60:	89 81       	ldd	r24, Y+1	; 0x01
    1b62:	9a 81       	ldd	r25, Y+2	; 0x02
    1b64:	01 97       	sbiw	r24, 0x01	; 1
    1b66:	9a 83       	std	Y+2, r25	; 0x02
    1b68:	89 83       	std	Y+1, r24	; 0x01
    1b6a:	89 81       	ldd	r24, Y+1	; 0x01
    1b6c:	9a 81       	ldd	r25, Y+2	; 0x02
    1b6e:	18 16       	cp	r1, r24
    1b70:	19 06       	cpc	r1, r25
    1b72:	44 f3       	brlt	.-48     	; 0x1b44 <del+0x20>
	 for(k=0;k<1140;k++);
}
    1b74:	26 96       	adiw	r28, 0x06	; 6
    1b76:	0f b6       	in	r0, 0x3f	; 63
    1b78:	f8 94       	cli
    1b7a:	de bf       	out	0x3e, r29	; 62
    1b7c:	0f be       	out	0x3f, r0	; 63
    1b7e:	cd bf       	out	0x3d, r28	; 61
    1b80:	cf 91       	pop	r28
    1b82:	df 91       	pop	r29
    1b84:	08 95       	ret

00001b86 <delayus>:

void delayus(unsigned int t)
{
    1b86:	df 93       	push	r29
    1b88:	cf 93       	push	r28
    1b8a:	00 d0       	rcall	.+0      	; 0x1b8c <delayus+0x6>
    1b8c:	00 d0       	rcall	.+0      	; 0x1b8e <delayus+0x8>
    1b8e:	cd b7       	in	r28, 0x3d	; 61
    1b90:	de b7       	in	r29, 0x3e	; 62
    1b92:	9c 83       	std	Y+4, r25	; 0x04
    1b94:	8b 83       	std	Y+3, r24	; 0x03
 	 unsigned int i;
	 for(i=0;i<t;i++)
    1b96:	1a 82       	std	Y+2, r1	; 0x02
    1b98:	19 82       	std	Y+1, r1	; 0x01
    1b9a:	15 c0       	rjmp	.+42     	; 0x1bc6 <delayus+0x40>
	...
    1bbc:	89 81       	ldd	r24, Y+1	; 0x01
    1bbe:	9a 81       	ldd	r25, Y+2	; 0x02
    1bc0:	01 96       	adiw	r24, 0x01	; 1
    1bc2:	9a 83       	std	Y+2, r25	; 0x02
    1bc4:	89 83       	std	Y+1, r24	; 0x01
    1bc6:	29 81       	ldd	r18, Y+1	; 0x01
    1bc8:	3a 81       	ldd	r19, Y+2	; 0x02
    1bca:	8b 81       	ldd	r24, Y+3	; 0x03
    1bcc:	9c 81       	ldd	r25, Y+4	; 0x04
    1bce:	28 17       	cp	r18, r24
    1bd0:	39 07       	cpc	r19, r25
    1bd2:	20 f3       	brcs	.-56     	; 0x1b9c <delayus+0x16>
	 {
	  	asm("nop");asm("nop");asm("nop");asm("nop");asm("nop");asm("nop");asm("nop");asm("nop");
		asm("nop");asm("nop");asm("nop");asm("nop");asm("nop");asm("nop");asm("nop");asm("nop");
	 }
}
    1bd4:	0f 90       	pop	r0
    1bd6:	0f 90       	pop	r0
    1bd8:	0f 90       	pop	r0
    1bda:	0f 90       	pop	r0
    1bdc:	cf 91       	pop	r28
    1bde:	df 91       	pop	r29
    1be0:	08 95       	ret

00001be2 <delayms>:

void delayms(unsigned int t)
{
    1be2:	df 93       	push	r29
    1be4:	cf 93       	push	r28
    1be6:	00 d0       	rcall	.+0      	; 0x1be8 <delayms+0x6>
    1be8:	00 d0       	rcall	.+0      	; 0x1bea <delayms+0x8>
    1bea:	00 d0       	rcall	.+0      	; 0x1bec <delayms+0xa>
    1bec:	cd b7       	in	r28, 0x3d	; 61
    1bee:	de b7       	in	r29, 0x3e	; 62
    1bf0:	9e 83       	std	Y+6, r25	; 0x06
    1bf2:	8d 83       	std	Y+5, r24	; 0x05
 	 unsigned int i,j;
	 for(i=0;i<t;i++)
    1bf4:	1a 82       	std	Y+2, r1	; 0x02
    1bf6:	19 82       	std	Y+1, r1	; 0x01
    1bf8:	13 c0       	rjmp	.+38     	; 0x1c20 <delayms+0x3e>
	 {
	  	for(j=0;j<2288;j++);
    1bfa:	1c 82       	std	Y+4, r1	; 0x04
    1bfc:	1b 82       	std	Y+3, r1	; 0x03
    1bfe:	05 c0       	rjmp	.+10     	; 0x1c0a <delayms+0x28>
    1c00:	8b 81       	ldd	r24, Y+3	; 0x03
    1c02:	9c 81       	ldd	r25, Y+4	; 0x04
    1c04:	01 96       	adiw	r24, 0x01	; 1
    1c06:	9c 83       	std	Y+4, r25	; 0x04
    1c08:	8b 83       	std	Y+3, r24	; 0x03
    1c0a:	8b 81       	ldd	r24, Y+3	; 0x03
    1c0c:	9c 81       	ldd	r25, Y+4	; 0x04
    1c0e:	28 e0       	ldi	r18, 0x08	; 8
    1c10:	80 3f       	cpi	r24, 0xF0	; 240
    1c12:	92 07       	cpc	r25, r18
    1c14:	a8 f3       	brcs	.-22     	; 0x1c00 <delayms+0x1e>
}

void delayms(unsigned int t)
{
 	 unsigned int i,j;
	 for(i=0;i<t;i++)
    1c16:	89 81       	ldd	r24, Y+1	; 0x01
    1c18:	9a 81       	ldd	r25, Y+2	; 0x02
    1c1a:	01 96       	adiw	r24, 0x01	; 1
    1c1c:	9a 83       	std	Y+2, r25	; 0x02
    1c1e:	89 83       	std	Y+1, r24	; 0x01
    1c20:	29 81       	ldd	r18, Y+1	; 0x01
    1c22:	3a 81       	ldd	r19, Y+2	; 0x02
    1c24:	8d 81       	ldd	r24, Y+5	; 0x05
    1c26:	9e 81       	ldd	r25, Y+6	; 0x06
    1c28:	28 17       	cp	r18, r24
    1c2a:	39 07       	cpc	r19, r25
    1c2c:	30 f3       	brcs	.-52     	; 0x1bfa <delayms+0x18>
	 {
	  	for(j=0;j<2288;j++);
	 }
}
    1c2e:	26 96       	adiw	r28, 0x06	; 6
    1c30:	0f b6       	in	r0, 0x3f	; 63
    1c32:	f8 94       	cli
    1c34:	de bf       	out	0x3e, r29	; 62
    1c36:	0f be       	out	0x3f, r0	; 63
    1c38:	cd bf       	out	0x3d, r28	; 61
    1c3a:	cf 91       	pop	r28
    1c3c:	df 91       	pop	r29
    1c3e:	08 95       	ret

00001c40 <timer0_init>:

void timer0_init(void)
{
    1c40:	df 93       	push	r29
    1c42:	cf 93       	push	r28
    1c44:	cd b7       	in	r28, 0x3d	; 61
    1c46:	de b7       	in	r29, 0x3e	; 62
 	 TCCR0 = 0x00; //stop
    1c48:	83 e5       	ldi	r24, 0x53	; 83
    1c4a:	90 e0       	ldi	r25, 0x00	; 0
    1c4c:	fc 01       	movw	r30, r24
    1c4e:	10 82       	st	Z, r1
 	 ASSR  = 0x00; //set async mode
    1c50:	80 e5       	ldi	r24, 0x50	; 80
    1c52:	90 e0       	ldi	r25, 0x00	; 0
    1c54:	fc 01       	movw	r30, r24
    1c56:	10 82       	st	Z, r1
 	 TCNT0 = 0x64; //set count
    1c58:	82 e5       	ldi	r24, 0x52	; 82
    1c5a:	90 e0       	ldi	r25, 0x00	; 0
    1c5c:	24 e6       	ldi	r18, 0x64	; 100
    1c5e:	fc 01       	movw	r30, r24
    1c60:	20 83       	st	Z, r18
 	 OCR0  = 0x9C;
    1c62:	81 e5       	ldi	r24, 0x51	; 81
    1c64:	90 e0       	ldi	r25, 0x00	; 0
    1c66:	2c e9       	ldi	r18, 0x9C	; 156
    1c68:	fc 01       	movw	r30, r24
    1c6a:	20 83       	st	Z, r18
 	 TCCR0 = 0x07; //start timer
    1c6c:	83 e5       	ldi	r24, 0x53	; 83
    1c6e:	90 e0       	ldi	r25, 0x00	; 0
    1c70:	27 e0       	ldi	r18, 0x07	; 7
    1c72:	fc 01       	movw	r30, r24
    1c74:	20 83       	st	Z, r18
}
    1c76:	cf 91       	pop	r28
    1c78:	df 91       	pop	r29
    1c7a:	08 95       	ret

00001c7c <timer1_init>:

void timer1_init(void)
{
    1c7c:	df 93       	push	r29
    1c7e:	cf 93       	push	r28
    1c80:	cd b7       	in	r28, 0x3d	; 61
    1c82:	de b7       	in	r29, 0x3e	; 62
 	 TCCR1B = 0x00; //stop
    1c84:	8e e4       	ldi	r24, 0x4E	; 78
    1c86:	90 e0       	ldi	r25, 0x00	; 0
    1c88:	fc 01       	movw	r30, r24
    1c8a:	10 82       	st	Z, r1
 	 TCNT1H = 0xC2; //setup
    1c8c:	8d e4       	ldi	r24, 0x4D	; 77
    1c8e:	90 e0       	ldi	r25, 0x00	; 0
    1c90:	22 ec       	ldi	r18, 0xC2	; 194
    1c92:	fc 01       	movw	r30, r24
    1c94:	20 83       	st	Z, r18
 	 TCNT1L = 0xF7;
    1c96:	8c e4       	ldi	r24, 0x4C	; 76
    1c98:	90 e0       	ldi	r25, 0x00	; 0
    1c9a:	27 ef       	ldi	r18, 0xF7	; 247
    1c9c:	fc 01       	movw	r30, r24
    1c9e:	20 83       	st	Z, r18
 	 OCR1AH = 0x3D;
    1ca0:	8b e4       	ldi	r24, 0x4B	; 75
    1ca2:	90 e0       	ldi	r25, 0x00	; 0
    1ca4:	2d e3       	ldi	r18, 0x3D	; 61
    1ca6:	fc 01       	movw	r30, r24
    1ca8:	20 83       	st	Z, r18
 	 OCR1AL = 0x09;
    1caa:	8a e4       	ldi	r24, 0x4A	; 74
    1cac:	90 e0       	ldi	r25, 0x00	; 0
    1cae:	29 e0       	ldi	r18, 0x09	; 9
    1cb0:	fc 01       	movw	r30, r24
    1cb2:	20 83       	st	Z, r18
 	 OCR1BH = 0x3D;
    1cb4:	89 e4       	ldi	r24, 0x49	; 73
    1cb6:	90 e0       	ldi	r25, 0x00	; 0
    1cb8:	2d e3       	ldi	r18, 0x3D	; 61
    1cba:	fc 01       	movw	r30, r24
    1cbc:	20 83       	st	Z, r18
 	 OCR1BL = 0x09;
    1cbe:	88 e4       	ldi	r24, 0x48	; 72
    1cc0:	90 e0       	ldi	r25, 0x00	; 0
    1cc2:	29 e0       	ldi	r18, 0x09	; 9
    1cc4:	fc 01       	movw	r30, r24
    1cc6:	20 83       	st	Z, r18
 	 OCR1CH = 0x3D;
    1cc8:	89 e7       	ldi	r24, 0x79	; 121
    1cca:	90 e0       	ldi	r25, 0x00	; 0
    1ccc:	2d e3       	ldi	r18, 0x3D	; 61
    1cce:	fc 01       	movw	r30, r24
    1cd0:	20 83       	st	Z, r18
 	 OCR1CL = 0x09;
    1cd2:	88 e7       	ldi	r24, 0x78	; 120
    1cd4:	90 e0       	ldi	r25, 0x00	; 0
    1cd6:	29 e0       	ldi	r18, 0x09	; 9
    1cd8:	fc 01       	movw	r30, r24
    1cda:	20 83       	st	Z, r18
 	 ICR1H  = 0x3D;
    1cdc:	87 e4       	ldi	r24, 0x47	; 71
    1cde:	90 e0       	ldi	r25, 0x00	; 0
    1ce0:	2d e3       	ldi	r18, 0x3D	; 61
    1ce2:	fc 01       	movw	r30, r24
    1ce4:	20 83       	st	Z, r18
 	 ICR1L  = 0x09;
    1ce6:	86 e4       	ldi	r24, 0x46	; 70
    1ce8:	90 e0       	ldi	r25, 0x00	; 0
    1cea:	29 e0       	ldi	r18, 0x09	; 9
    1cec:	fc 01       	movw	r30, r24
    1cee:	20 83       	st	Z, r18
 	 TCCR1A = 0x00;
    1cf0:	8f e4       	ldi	r24, 0x4F	; 79
    1cf2:	90 e0       	ldi	r25, 0x00	; 0
    1cf4:	fc 01       	movw	r30, r24
    1cf6:	10 82       	st	Z, r1
 	 TCCR1B = 0x05; //start Timer
    1cf8:	8e e4       	ldi	r24, 0x4E	; 78
    1cfa:	90 e0       	ldi	r25, 0x00	; 0
    1cfc:	25 e0       	ldi	r18, 0x05	; 5
    1cfe:	fc 01       	movw	r30, r24
    1d00:	20 83       	st	Z, r18
}
    1d02:	cf 91       	pop	r28
    1d04:	df 91       	pop	r29
    1d06:	08 95       	ret

00001d08 <timer2_init>:

void timer2_init(void)
{
    1d08:	df 93       	push	r29
    1d0a:	cf 93       	push	r28
    1d0c:	cd b7       	in	r28, 0x3d	; 61
    1d0e:	de b7       	in	r29, 0x3e	; 62
 	 TCCR2 = 0x00; //stop
    1d10:	85 e4       	ldi	r24, 0x45	; 69
    1d12:	90 e0       	ldi	r25, 0x00	; 0
    1d14:	fc 01       	movw	r30, r24
    1d16:	10 82       	st	Z, r1
 	 TCNT2 = 0x64; //setup
    1d18:	84 e4       	ldi	r24, 0x44	; 68
    1d1a:	90 e0       	ldi	r25, 0x00	; 0
    1d1c:	24 e6       	ldi	r18, 0x64	; 100
    1d1e:	fc 01       	movw	r30, r24
    1d20:	20 83       	st	Z, r18
 	 OCR2  = 0x9C;
    1d22:	83 e4       	ldi	r24, 0x43	; 67
    1d24:	90 e0       	ldi	r25, 0x00	; 0
    1d26:	2c e9       	ldi	r18, 0x9C	; 156
    1d28:	fc 01       	movw	r30, r24
    1d2a:	20 83       	st	Z, r18
 	// TCCR2 = 0x05; //start
}
    1d2c:	cf 91       	pop	r28
    1d2e:	df 91       	pop	r29
    1d30:	08 95       	ret

00001d32 <timer3_init>:

void timer3_init(void)
{
    1d32:	df 93       	push	r29
    1d34:	cf 93       	push	r28
    1d36:	cd b7       	in	r28, 0x3d	; 61
    1d38:	de b7       	in	r29, 0x3e	; 62
 TCCR3B = 0x00; //stop
    1d3a:	8a e8       	ldi	r24, 0x8A	; 138
    1d3c:	90 e0       	ldi	r25, 0x00	; 0
    1d3e:	fc 01       	movw	r30, r24
    1d40:	10 82       	st	Z, r1
 TCNT3H = 0xFF; //setup
    1d42:	89 e8       	ldi	r24, 0x89	; 137
    1d44:	90 e0       	ldi	r25, 0x00	; 0
    1d46:	2f ef       	ldi	r18, 0xFF	; 255
    1d48:	fc 01       	movw	r30, r24
    1d4a:	20 83       	st	Z, r18
 TCNT3L = 0xF6;
    1d4c:	88 e8       	ldi	r24, 0x88	; 136
    1d4e:	90 e0       	ldi	r25, 0x00	; 0
    1d50:	26 ef       	ldi	r18, 0xF6	; 246
    1d52:	fc 01       	movw	r30, r24
    1d54:	20 83       	st	Z, r18
 OCR3AH = 0x00;
    1d56:	87 e8       	ldi	r24, 0x87	; 135
    1d58:	90 e0       	ldi	r25, 0x00	; 0
    1d5a:	fc 01       	movw	r30, r24
    1d5c:	10 82       	st	Z, r1
 OCR3AL = 0x0A;
    1d5e:	86 e8       	ldi	r24, 0x86	; 134
    1d60:	90 e0       	ldi	r25, 0x00	; 0
    1d62:	2a e0       	ldi	r18, 0x0A	; 10
    1d64:	fc 01       	movw	r30, r24
    1d66:	20 83       	st	Z, r18
 OCR3BH = 0x00;
    1d68:	85 e8       	ldi	r24, 0x85	; 133
    1d6a:	90 e0       	ldi	r25, 0x00	; 0
    1d6c:	fc 01       	movw	r30, r24
    1d6e:	10 82       	st	Z, r1
 OCR3BL = 0x0A;
    1d70:	84 e8       	ldi	r24, 0x84	; 132
    1d72:	90 e0       	ldi	r25, 0x00	; 0
    1d74:	2a e0       	ldi	r18, 0x0A	; 10
    1d76:	fc 01       	movw	r30, r24
    1d78:	20 83       	st	Z, r18
 OCR3CH = 0x00;
    1d7a:	83 e8       	ldi	r24, 0x83	; 131
    1d7c:	90 e0       	ldi	r25, 0x00	; 0
    1d7e:	fc 01       	movw	r30, r24
    1d80:	10 82       	st	Z, r1
 OCR3CL = 0x0A;
    1d82:	82 e8       	ldi	r24, 0x82	; 130
    1d84:	90 e0       	ldi	r25, 0x00	; 0
    1d86:	2a e0       	ldi	r18, 0x0A	; 10
    1d88:	fc 01       	movw	r30, r24
    1d8a:	20 83       	st	Z, r18
 ICR3H  = 0x00;
    1d8c:	81 e8       	ldi	r24, 0x81	; 129
    1d8e:	90 e0       	ldi	r25, 0x00	; 0
    1d90:	fc 01       	movw	r30, r24
    1d92:	10 82       	st	Z, r1
 ICR3L  = 0x0A;
    1d94:	80 e8       	ldi	r24, 0x80	; 128
    1d96:	90 e0       	ldi	r25, 0x00	; 0
    1d98:	2a e0       	ldi	r18, 0x0A	; 10
    1d9a:	fc 01       	movw	r30, r24
    1d9c:	20 83       	st	Z, r18
 TCCR3A = 0x00;
    1d9e:	8b e8       	ldi	r24, 0x8B	; 139
    1da0:	90 e0       	ldi	r25, 0x00	; 0
    1da2:	fc 01       	movw	r30, r24
    1da4:	10 82       	st	Z, r1
 TCCR3B = 0x03; //start Timer
    1da6:	8a e8       	ldi	r24, 0x8A	; 138
    1da8:	90 e0       	ldi	r25, 0x00	; 0
    1daa:	23 e0       	ldi	r18, 0x03	; 3
    1dac:	fc 01       	movw	r30, r24
    1dae:	20 83       	st	Z, r18
}
    1db0:	cf 91       	pop	r28
    1db2:	df 91       	pop	r29
    1db4:	08 95       	ret

00001db6 <usarS>:
unsigned int starflag=0,starcount=0,starfinflag=0;
char ss[6];
char touchcase=0,touchflag=0,waitcount=0;

void usarS(void)
{
    1db6:	df 93       	push	r29
    1db8:	cf 93       	push	r28
    1dba:	cd b7       	in	r28, 0x3d	; 61
    1dbc:	de b7       	in	r29, 0x3e	; 62
	 sendtype=0;
    1dbe:	10 92 e6 02 	sts	0x02E6, r1
}
    1dc2:	cf 91       	pop	r28
    1dc4:	df 91       	pop	r29
    1dc6:	08 95       	ret

00001dc8 <usarP>:

void usarP(unsigned int data1,unsigned int data2,unsigned int data3,unsigned int data4,unsigned int data5,unsigned int data6,unsigned int data7,unsigned int data8,unsigned int data9,unsigned int data10,unsigned int data11,unsigned int data12)
{
    1dc8:	8f 92       	push	r8
    1dca:	9f 92       	push	r9
    1dcc:	af 92       	push	r10
    1dce:	bf 92       	push	r11
    1dd0:	cf 92       	push	r12
    1dd2:	df 92       	push	r13
    1dd4:	ef 92       	push	r14
    1dd6:	ff 92       	push	r15
    1dd8:	0f 93       	push	r16
    1dda:	1f 93       	push	r17
    1ddc:	df 93       	push	r29
    1dde:	cf 93       	push	r28
    1de0:	cd b7       	in	r28, 0x3d	; 61
    1de2:	de b7       	in	r29, 0x3e	; 62
    1de4:	62 97       	sbiw	r28, 0x12	; 18
    1de6:	0f b6       	in	r0, 0x3f	; 63
    1de8:	f8 94       	cli
    1dea:	de bf       	out	0x3e, r29	; 62
    1dec:	0f be       	out	0x3f, r0	; 63
    1dee:	cd bf       	out	0x3d, r28	; 61
    1df0:	9a 83       	std	Y+2, r25	; 0x02
    1df2:	89 83       	std	Y+1, r24	; 0x01
    1df4:	7c 83       	std	Y+4, r23	; 0x04
    1df6:	6b 83       	std	Y+3, r22	; 0x03
    1df8:	5e 83       	std	Y+6, r21	; 0x06
    1dfa:	4d 83       	std	Y+5, r20	; 0x05
    1dfc:	38 87       	std	Y+8, r19	; 0x08
    1dfe:	2f 83       	std	Y+7, r18	; 0x07
    1e00:	1a 87       	std	Y+10, r17	; 0x0a
    1e02:	09 87       	std	Y+9, r16	; 0x09
    1e04:	fc 86       	std	Y+12, r15	; 0x0c
    1e06:	eb 86       	std	Y+11, r14	; 0x0b
    1e08:	de 86       	std	Y+14, r13	; 0x0e
    1e0a:	cd 86       	std	Y+13, r12	; 0x0d
    1e0c:	b8 8a       	std	Y+16, r11	; 0x10
    1e0e:	af 86       	std	Y+15, r10	; 0x0f
    1e10:	9a 8a       	std	Y+18, r9	; 0x12
    1e12:	89 8a       	std	Y+17, r8	; 0x11
 	 send_data0(3);
    1e14:	83 e0       	ldi	r24, 0x03	; 3
    1e16:	90 e0       	ldi	r25, 0x00	; 0
    1e18:	0e 94 1a 27 	call	0x4e34	; 0x4e34 <send_data0>
	 ST2data1=data1;
    1e1c:	89 81       	ldd	r24, Y+1	; 0x01
    1e1e:	80 93 f9 02 	sts	0x02F9, r24
	 ST2data2=data2;
    1e22:	8b 81       	ldd	r24, Y+3	; 0x03
    1e24:	80 93 fa 02 	sts	0x02FA, r24
	 ST2data3=data3;
    1e28:	8d 81       	ldd	r24, Y+5	; 0x05
    1e2a:	80 93 fb 02 	sts	0x02FB, r24
	 ST2data4=data4;
    1e2e:	8f 81       	ldd	r24, Y+7	; 0x07
    1e30:	80 93 fc 02 	sts	0x02FC, r24
	 ST2data5=data5;
    1e34:	89 85       	ldd	r24, Y+9	; 0x09
    1e36:	80 93 fd 02 	sts	0x02FD, r24
	 ST2data6=data6;
    1e3a:	8b 85       	ldd	r24, Y+11	; 0x0b
    1e3c:	80 93 fe 02 	sts	0x02FE, r24
	 ST2data7=data7;
    1e40:	8d 85       	ldd	r24, Y+13	; 0x0d
    1e42:	80 93 ff 02 	sts	0x02FF, r24
	 ST2data8=data8;
    1e46:	8f 85       	ldd	r24, Y+15	; 0x0f
    1e48:	80 93 00 03 	sts	0x0300, r24
	 ST2data9=data9;
    1e4c:	89 89       	ldd	r24, Y+17	; 0x11
    1e4e:	80 93 01 03 	sts	0x0301, r24
	 ST2data10=data10;
    1e52:	89 a1       	ldd	r24, Y+33	; 0x21
    1e54:	80 93 02 03 	sts	0x0302, r24
	 ST2data11=data11;
    1e58:	8b a1       	ldd	r24, Y+35	; 0x23
    1e5a:	80 93 03 03 	sts	0x0303, r24
	 ST2data12=data12;
    1e5e:	8d a1       	ldd	r24, Y+37	; 0x25
    1e60:	80 93 04 03 	sts	0x0304, r24
	 sendtype=3;
    1e64:	83 e0       	ldi	r24, 0x03	; 3
    1e66:	80 93 e6 02 	sts	0x02E6, r24
}
    1e6a:	62 96       	adiw	r28, 0x12	; 18
    1e6c:	0f b6       	in	r0, 0x3f	; 63
    1e6e:	f8 94       	cli
    1e70:	de bf       	out	0x3e, r29	; 62
    1e72:	0f be       	out	0x3f, r0	; 63
    1e74:	cd bf       	out	0x3d, r28	; 61
    1e76:	cf 91       	pop	r28
    1e78:	df 91       	pop	r29
    1e7a:	1f 91       	pop	r17
    1e7c:	0f 91       	pop	r16
    1e7e:	ff 90       	pop	r15
    1e80:	ef 90       	pop	r14
    1e82:	df 90       	pop	r13
    1e84:	cf 90       	pop	r12
    1e86:	bf 90       	pop	r11
    1e88:	af 90       	pop	r10
    1e8a:	9f 90       	pop	r9
    1e8c:	8f 90       	pop	r8
    1e8e:	08 95       	ret

00001e90 <usarH>:

void usarH(unsigned int data1,unsigned int data2,unsigned int data3,unsigned int data4,unsigned int data5,unsigned int data6,unsigned int data7,unsigned int data8,unsigned int data9,unsigned int data10,unsigned int data11,unsigned int data12)
{
    1e90:	8f 92       	push	r8
    1e92:	9f 92       	push	r9
    1e94:	af 92       	push	r10
    1e96:	bf 92       	push	r11
    1e98:	cf 92       	push	r12
    1e9a:	df 92       	push	r13
    1e9c:	ef 92       	push	r14
    1e9e:	ff 92       	push	r15
    1ea0:	0f 93       	push	r16
    1ea2:	1f 93       	push	r17
    1ea4:	df 93       	push	r29
    1ea6:	cf 93       	push	r28
    1ea8:	cd b7       	in	r28, 0x3d	; 61
    1eaa:	de b7       	in	r29, 0x3e	; 62
    1eac:	62 97       	sbiw	r28, 0x12	; 18
    1eae:	0f b6       	in	r0, 0x3f	; 63
    1eb0:	f8 94       	cli
    1eb2:	de bf       	out	0x3e, r29	; 62
    1eb4:	0f be       	out	0x3f, r0	; 63
    1eb6:	cd bf       	out	0x3d, r28	; 61
    1eb8:	9a 83       	std	Y+2, r25	; 0x02
    1eba:	89 83       	std	Y+1, r24	; 0x01
    1ebc:	7c 83       	std	Y+4, r23	; 0x04
    1ebe:	6b 83       	std	Y+3, r22	; 0x03
    1ec0:	5e 83       	std	Y+6, r21	; 0x06
    1ec2:	4d 83       	std	Y+5, r20	; 0x05
    1ec4:	38 87       	std	Y+8, r19	; 0x08
    1ec6:	2f 83       	std	Y+7, r18	; 0x07
    1ec8:	1a 87       	std	Y+10, r17	; 0x0a
    1eca:	09 87       	std	Y+9, r16	; 0x09
    1ecc:	fc 86       	std	Y+12, r15	; 0x0c
    1ece:	eb 86       	std	Y+11, r14	; 0x0b
    1ed0:	de 86       	std	Y+14, r13	; 0x0e
    1ed2:	cd 86       	std	Y+13, r12	; 0x0d
    1ed4:	b8 8a       	std	Y+16, r11	; 0x10
    1ed6:	af 86       	std	Y+15, r10	; 0x0f
    1ed8:	9a 8a       	std	Y+18, r9	; 0x12
    1eda:	89 8a       	std	Y+17, r8	; 0x11
   send_data0(1);
    1edc:	81 e0       	ldi	r24, 0x01	; 1
    1ede:	90 e0       	ldi	r25, 0x00	; 0
    1ee0:	0e 94 1a 27 	call	0x4e34	; 0x4e34 <send_data0>
   if((data1==1)&&(UserSetFlag==0))
    1ee4:	89 81       	ldd	r24, Y+1	; 0x01
    1ee6:	9a 81       	ldd	r25, Y+2	; 0x02
    1ee8:	81 30       	cpi	r24, 0x01	; 1
    1eea:	91 05       	cpc	r25, r1
    1eec:	a9 f5       	brne	.+106    	; 0x1f58 <usarH+0xc8>
    1eee:	80 91 be 02 	lds	r24, 0x02BE
    1ef2:	88 23       	and	r24, r24
    1ef4:	89 f5       	brne	.+98     	; 0x1f58 <usarH+0xc8>
   {
   		ST1data1=1;
    1ef6:	81 e0       	ldi	r24, 0x01	; 1
    1ef8:	80 93 ed 02 	sts	0x02ED, r24
		ST1data2=data2;
    1efc:	8b 81       	ldd	r24, Y+3	; 0x03
    1efe:	80 93 ee 02 	sts	0x02EE, r24
   		ST1data3=data3;
    1f02:	8d 81       	ldd	r24, Y+5	; 0x05
    1f04:	80 93 ef 02 	sts	0x02EF, r24
   		ST1data4=data4;
    1f08:	8f 81       	ldd	r24, Y+7	; 0x07
    1f0a:	80 93 f0 02 	sts	0x02F0, r24
   		ST1data5=data5;
    1f0e:	89 85       	ldd	r24, Y+9	; 0x09
    1f10:	80 93 f1 02 	sts	0x02F1, r24
   		ST1data6=data6;
    1f14:	8b 85       	ldd	r24, Y+11	; 0x0b
    1f16:	80 93 f2 02 	sts	0x02F2, r24
   		ST1data7=data7;
    1f1a:	8d 85       	ldd	r24, Y+13	; 0x0d
    1f1c:	80 93 f3 02 	sts	0x02F3, r24
   		ST1data8=data8;
    1f20:	8f 85       	ldd	r24, Y+15	; 0x0f
    1f22:	80 93 f4 02 	sts	0x02F4, r24
   		ST1data9=data9;
    1f26:	89 89       	ldd	r24, Y+17	; 0x11
    1f28:	80 93 f5 02 	sts	0x02F5, r24
   		ST1data10=data10;
    1f2c:	89 a1       	ldd	r24, Y+33	; 0x21
    1f2e:	80 93 f6 02 	sts	0x02F6, r24
   		ST1data11=data11;
    1f32:	8b a1       	ldd	r24, Y+35	; 0x23
    1f34:	80 93 f7 02 	sts	0x02F7, r24
   		ST1data12=data12;
    1f38:	8d a1       	ldd	r24, Y+37	; 0x25
    1f3a:	80 93 f8 02 	sts	0x02F8, r24
   		sendtype=1;
    1f3e:	81 e0       	ldi	r24, 0x01	; 1
    1f40:	80 93 e6 02 	sts	0x02E6, r24
		LCD_BG_H;
    1f44:	85 e6       	ldi	r24, 0x65	; 101
    1f46:	90 e0       	ldi	r25, 0x00	; 0
    1f48:	25 e6       	ldi	r18, 0x65	; 101
    1f4a:	30 e0       	ldi	r19, 0x00	; 0
    1f4c:	f9 01       	movw	r30, r18
    1f4e:	20 81       	ld	r18, Z
    1f50:	28 60       	ori	r18, 0x08	; 8
    1f52:	fc 01       	movw	r30, r24
    1f54:	20 83       	st	Z, r18
    1f56:	2a c0       	rjmp	.+84     	; 0x1fac <usarH+0x11c>
   }
   else if(data1==0)
    1f58:	89 81       	ldd	r24, Y+1	; 0x01
    1f5a:	9a 81       	ldd	r25, Y+2	; 0x02
    1f5c:	00 97       	sbiw	r24, 0x00	; 0
    1f5e:	31 f5       	brne	.+76     	; 0x1fac <usarH+0x11c>
   {
   		ST1data1=0;
    1f60:	10 92 ed 02 	sts	0x02ED, r1
		ST1data2=0;
    1f64:	10 92 ee 02 	sts	0x02EE, r1
   		ST1data3=0;
    1f68:	10 92 ef 02 	sts	0x02EF, r1
   		ST1data4=0;
    1f6c:	10 92 f0 02 	sts	0x02F0, r1
   		ST1data5=0;
    1f70:	10 92 f1 02 	sts	0x02F1, r1
   		ST1data6=0;
    1f74:	10 92 f2 02 	sts	0x02F2, r1
   		ST1data7=0;
    1f78:	10 92 f3 02 	sts	0x02F3, r1
   		ST1data8=0;
    1f7c:	10 92 f4 02 	sts	0x02F4, r1
   		ST1data9=0;
    1f80:	10 92 f5 02 	sts	0x02F5, r1
   		ST1data10=0;
    1f84:	10 92 f6 02 	sts	0x02F6, r1
   		ST1data11=0;
    1f88:	10 92 f7 02 	sts	0x02F7, r1
   		ST1data12=0;
    1f8c:	10 92 f8 02 	sts	0x02F8, r1
   		sendtype=1;
    1f90:	81 e0       	ldi	r24, 0x01	; 1
    1f92:	80 93 e6 02 	sts	0x02E6, r24
		UserSetFlag=0;
    1f96:	10 92 be 02 	sts	0x02BE, r1
		LCD_BG_L;
    1f9a:	85 e6       	ldi	r24, 0x65	; 101
    1f9c:	90 e0       	ldi	r25, 0x00	; 0
    1f9e:	25 e6       	ldi	r18, 0x65	; 101
    1fa0:	30 e0       	ldi	r19, 0x00	; 0
    1fa2:	f9 01       	movw	r30, r18
    1fa4:	20 81       	ld	r18, Z
    1fa6:	27 7f       	andi	r18, 0xF7	; 247
    1fa8:	fc 01       	movw	r30, r24
    1faa:	20 83       	st	Z, r18
   }
}
    1fac:	62 96       	adiw	r28, 0x12	; 18
    1fae:	0f b6       	in	r0, 0x3f	; 63
    1fb0:	f8 94       	cli
    1fb2:	de bf       	out	0x3e, r29	; 62
    1fb4:	0f be       	out	0x3f, r0	; 63
    1fb6:	cd bf       	out	0x3d, r28	; 61
    1fb8:	cf 91       	pop	r28
    1fba:	df 91       	pop	r29
    1fbc:	1f 91       	pop	r17
    1fbe:	0f 91       	pop	r16
    1fc0:	ff 90       	pop	r15
    1fc2:	ef 90       	pop	r14
    1fc4:	df 90       	pop	r13
    1fc6:	cf 90       	pop	r12
    1fc8:	bf 90       	pop	r11
    1fca:	af 90       	pop	r10
    1fcc:	9f 90       	pop	r9
    1fce:	8f 90       	pop	r8
    1fd0:	08 95       	ret

00001fd2 <usarT>:

void usarT(unsigned int data1)
{
    1fd2:	df 93       	push	r29
    1fd4:	cf 93       	push	r28
    1fd6:	00 d0       	rcall	.+0      	; 0x1fd8 <usarT+0x6>
    1fd8:	cd b7       	in	r28, 0x3d	; 61
    1fda:	de b7       	in	r29, 0x3e	; 62
    1fdc:	9a 83       	std	Y+2, r25	; 0x02
    1fde:	89 83       	std	Y+1, r24	; 0x01
   SetTemperature=data1;
    1fe0:	89 81       	ldd	r24, Y+1	; 0x01
    1fe2:	9a 81       	ldd	r25, Y+2	; 0x02
    1fe4:	90 93 02 01 	sts	0x0102, r25
    1fe8:	80 93 01 01 	sts	0x0101, r24
   send_data0(2);
    1fec:	82 e0       	ldi	r24, 0x02	; 2
    1fee:	90 e0       	ldi	r25, 0x00	; 0
    1ff0:	0e 94 1a 27 	call	0x4e34	; 0x4e34 <send_data0>
   delayms(10);
    1ff4:	8a e0       	ldi	r24, 0x0A	; 10
    1ff6:	90 e0       	ldi	r25, 0x00	; 0
    1ff8:	0e 94 f1 0d 	call	0x1be2	; 0x1be2 <delayms>
   sendtype=2;
    1ffc:	82 e0       	ldi	r24, 0x02	; 2
    1ffe:	80 93 e6 02 	sts	0x02E6, r24
}
    2002:	0f 90       	pop	r0
    2004:	0f 90       	pop	r0
    2006:	cf 91       	pop	r28
    2008:	df 91       	pop	r29
    200a:	08 95       	ret

0000200c <usarSD>:

void usarSD(void)
{
    200c:	df 93       	push	r29
    200e:	cf 93       	push	r28
    2010:	cd b7       	in	r28, 0x3d	; 61
    2012:	de b7       	in	r29, 0x3e	; 62
}
    2014:	cf 91       	pop	r28
    2016:	df 91       	pop	r29
    2018:	08 95       	ret

0000201a <usarHD>:

void usarHD(void)
{}
    201a:	df 93       	push	r29
    201c:	cf 93       	push	r28
    201e:	cd b7       	in	r28, 0x3d	; 61
    2020:	de b7       	in	r29, 0x3e	; 62
    2022:	cf 91       	pop	r28
    2024:	df 91       	pop	r29
    2026:	08 95       	ret

00002028 <usarTD>:

void usarTD(void)
{}
    2028:	df 93       	push	r29
    202a:	cf 93       	push	r28
    202c:	cd b7       	in	r28, 0x3d	; 61
    202e:	de b7       	in	r29, 0x3e	; 62
    2030:	cf 91       	pop	r28
    2032:	df 91       	pop	r29
    2034:	08 95       	ret

00002036 <getTandH>:

void getTandH(unsigned int T,unsigned int H)
{
    2036:	ef 92       	push	r14
    2038:	ff 92       	push	r15
    203a:	0f 93       	push	r16
    203c:	1f 93       	push	r17
    203e:	df 93       	push	r29
    2040:	cf 93       	push	r28
    2042:	cd b7       	in	r28, 0x3d	; 61
    2044:	de b7       	in	r29, 0x3e	; 62
    2046:	2c 97       	sbiw	r28, 0x0c	; 12
    2048:	0f b6       	in	r0, 0x3f	; 63
    204a:	f8 94       	cli
    204c:	de bf       	out	0x3e, r29	; 62
    204e:	0f be       	out	0x3f, r0	; 63
    2050:	cd bf       	out	0x3d, r28	; 61
    2052:	9a 87       	std	Y+10, r25	; 0x0a
    2054:	89 87       	std	Y+9, r24	; 0x09
    2056:	7c 87       	std	Y+12, r23	; 0x0c
    2058:	6b 87       	std	Y+11, r22	; 0x0b
    double Pa=0,Dewpoint=0;
    205a:	80 e0       	ldi	r24, 0x00	; 0
    205c:	90 e0       	ldi	r25, 0x00	; 0
    205e:	dc 01       	movw	r26, r24
    2060:	89 83       	std	Y+1, r24	; 0x01
    2062:	9a 83       	std	Y+2, r25	; 0x02
    2064:	ab 83       	std	Y+3, r26	; 0x03
    2066:	bc 83       	std	Y+4, r27	; 0x04
    2068:	80 e0       	ldi	r24, 0x00	; 0
    206a:	90 e0       	ldi	r25, 0x00	; 0
    206c:	dc 01       	movw	r26, r24
    206e:	8d 83       	std	Y+5, r24	; 0x05
    2070:	9e 83       	std	Y+6, r25	; 0x06
    2072:	af 83       	std	Y+7, r26	; 0x07
    2074:	b8 87       	std	Y+8, r27	; 0x08
	GetTemperature=T,GetHumidity=H;
    2076:	89 85       	ldd	r24, Y+9	; 0x09
    2078:	9a 85       	ldd	r25, Y+10	; 0x0a
    207a:	cc 01       	movw	r24, r24
    207c:	a0 e0       	ldi	r26, 0x00	; 0
    207e:	b0 e0       	ldi	r27, 0x00	; 0
    2080:	bc 01       	movw	r22, r24
    2082:	cd 01       	movw	r24, r26
    2084:	0e 94 4a 2e 	call	0x5c94	; 0x5c94 <__floatunsisf>
    2088:	dc 01       	movw	r26, r24
    208a:	cb 01       	movw	r24, r22
    208c:	80 93 d8 02 	sts	0x02D8, r24
    2090:	90 93 d9 02 	sts	0x02D9, r25
    2094:	a0 93 da 02 	sts	0x02DA, r26
    2098:	b0 93 db 02 	sts	0x02DB, r27
    209c:	8b 85       	ldd	r24, Y+11	; 0x0b
    209e:	9c 85       	ldd	r25, Y+12	; 0x0c
    20a0:	cc 01       	movw	r24, r24
    20a2:	a0 e0       	ldi	r26, 0x00	; 0
    20a4:	b0 e0       	ldi	r27, 0x00	; 0
    20a6:	bc 01       	movw	r22, r24
    20a8:	cd 01       	movw	r24, r26
    20aa:	0e 94 4a 2e 	call	0x5c94	; 0x5c94 <__floatunsisf>
    20ae:	dc 01       	movw	r26, r24
    20b0:	cb 01       	movw	r24, r22
    20b2:	80 93 dc 02 	sts	0x02DC, r24
    20b6:	90 93 dd 02 	sts	0x02DD, r25
    20ba:	a0 93 de 02 	sts	0x02DE, r26
    20be:	b0 93 df 02 	sts	0x02DF, r27
	getsensor(T*10,H*10,LocFlag);
    20c2:	89 85       	ldd	r24, Y+9	; 0x09
    20c4:	9a 85       	ldd	r25, Y+10	; 0x0a
    20c6:	88 0f       	add	r24, r24
    20c8:	99 1f       	adc	r25, r25
    20ca:	9c 01       	movw	r18, r24
    20cc:	22 0f       	add	r18, r18
    20ce:	33 1f       	adc	r19, r19
    20d0:	22 0f       	add	r18, r18
    20d2:	33 1f       	adc	r19, r19
    20d4:	bc 01       	movw	r22, r24
    20d6:	62 0f       	add	r22, r18
    20d8:	73 1f       	adc	r23, r19
    20da:	8b 85       	ldd	r24, Y+11	; 0x0b
    20dc:	9c 85       	ldd	r25, Y+12	; 0x0c
    20de:	88 0f       	add	r24, r24
    20e0:	99 1f       	adc	r25, r25
    20e2:	9c 01       	movw	r18, r24
    20e4:	22 0f       	add	r18, r18
    20e6:	33 1f       	adc	r19, r19
    20e8:	22 0f       	add	r18, r18
    20ea:	33 1f       	adc	r19, r19
    20ec:	ac 01       	movw	r20, r24
    20ee:	42 0f       	add	r20, r18
    20f0:	53 1f       	adc	r21, r19
    20f2:	80 91 bd 02 	lds	r24, 0x02BD
    20f6:	28 2f       	mov	r18, r24
    20f8:	30 e0       	ldi	r19, 0x00	; 0
    20fa:	cb 01       	movw	r24, r22
    20fc:	ba 01       	movw	r22, r20
    20fe:	a9 01       	movw	r20, r18
    2100:	0e 94 83 29 	call	0x5306	; 0x5306 <getsensor>
	Pa=GetHumidity*exp(17.368*GetTemperature/(238.88+GetTemperature));
    2104:	80 91 d8 02 	lds	r24, 0x02D8
    2108:	90 91 d9 02 	lds	r25, 0x02D9
    210c:	a0 91 da 02 	lds	r26, 0x02DA
    2110:	b0 91 db 02 	lds	r27, 0x02DB
    2114:	bc 01       	movw	r22, r24
    2116:	cd 01       	movw	r24, r26
    2118:	2a ea       	ldi	r18, 0xAA	; 170
    211a:	31 ef       	ldi	r19, 0xF1	; 241
    211c:	4a e8       	ldi	r20, 0x8A	; 138
    211e:	51 e4       	ldi	r21, 0x41	; 65
    2120:	0e 94 da 2f 	call	0x5fb4	; 0x5fb4 <__mulsf3>
    2124:	dc 01       	movw	r26, r24
    2126:	cb 01       	movw	r24, r22
    2128:	7c 01       	movw	r14, r24
    212a:	8d 01       	movw	r16, r26
    212c:	80 91 d8 02 	lds	r24, 0x02D8
    2130:	90 91 d9 02 	lds	r25, 0x02D9
    2134:	a0 91 da 02 	lds	r26, 0x02DA
    2138:	b0 91 db 02 	lds	r27, 0x02DB
    213c:	bc 01       	movw	r22, r24
    213e:	cd 01       	movw	r24, r26
    2140:	28 e4       	ldi	r18, 0x48	; 72
    2142:	31 ee       	ldi	r19, 0xE1	; 225
    2144:	4e e6       	ldi	r20, 0x6E	; 110
    2146:	53 e4       	ldi	r21, 0x43	; 67
    2148:	0e 94 1d 2d 	call	0x5a3a	; 0x5a3a <__addsf3>
    214c:	dc 01       	movw	r26, r24
    214e:	cb 01       	movw	r24, r22
    2150:	9c 01       	movw	r18, r24
    2152:	ad 01       	movw	r20, r26
    2154:	c8 01       	movw	r24, r16
    2156:	b7 01       	movw	r22, r14
    2158:	0e 94 85 2d 	call	0x5b0a	; 0x5b0a <__divsf3>
    215c:	dc 01       	movw	r26, r24
    215e:	cb 01       	movw	r24, r22
    2160:	bc 01       	movw	r22, r24
    2162:	cd 01       	movw	r24, r26
    2164:	0e 94 f2 2d 	call	0x5be4	; 0x5be4 <exp>
    2168:	dc 01       	movw	r26, r24
    216a:	cb 01       	movw	r24, r22
    216c:	20 91 dc 02 	lds	r18, 0x02DC
    2170:	30 91 dd 02 	lds	r19, 0x02DD
    2174:	40 91 de 02 	lds	r20, 0x02DE
    2178:	50 91 df 02 	lds	r21, 0x02DF
    217c:	bc 01       	movw	r22, r24
    217e:	cd 01       	movw	r24, r26
    2180:	0e 94 da 2f 	call	0x5fb4	; 0x5fb4 <__mulsf3>
    2184:	dc 01       	movw	r26, r24
    2186:	cb 01       	movw	r24, r22
    2188:	89 83       	std	Y+1, r24	; 0x01
    218a:	9a 83       	std	Y+2, r25	; 0x02
    218c:	ab 83       	std	Y+3, r26	; 0x03
    218e:	bc 83       	std	Y+4, r27	; 0x04
    Dewpoint=238.88*log(Pa/6.1121)/(17.368-log(Pa/6.1121));
    2190:	69 81       	ldd	r22, Y+1	; 0x01
    2192:	7a 81       	ldd	r23, Y+2	; 0x02
    2194:	8b 81       	ldd	r24, Y+3	; 0x03
    2196:	9c 81       	ldd	r25, Y+4	; 0x04
    2198:	23 e5       	ldi	r18, 0x53	; 83
    219a:	36 e9       	ldi	r19, 0x96	; 150
    219c:	43 ec       	ldi	r20, 0xC3	; 195
    219e:	50 e4       	ldi	r21, 0x40	; 64
    21a0:	0e 94 85 2d 	call	0x5b0a	; 0x5b0a <__divsf3>
    21a4:	dc 01       	movw	r26, r24
    21a6:	cb 01       	movw	r24, r22
    21a8:	bc 01       	movw	r22, r24
    21aa:	cd 01       	movw	r24, r26
    21ac:	0e 94 67 2f 	call	0x5ece	; 0x5ece <log>
    21b0:	dc 01       	movw	r26, r24
    21b2:	cb 01       	movw	r24, r22
    21b4:	bc 01       	movw	r22, r24
    21b6:	cd 01       	movw	r24, r26
    21b8:	28 e4       	ldi	r18, 0x48	; 72
    21ba:	31 ee       	ldi	r19, 0xE1	; 225
    21bc:	4e e6       	ldi	r20, 0x6E	; 110
    21be:	53 e4       	ldi	r21, 0x43	; 67
    21c0:	0e 94 da 2f 	call	0x5fb4	; 0x5fb4 <__mulsf3>
    21c4:	dc 01       	movw	r26, r24
    21c6:	cb 01       	movw	r24, r22
    21c8:	7c 01       	movw	r14, r24
    21ca:	8d 01       	movw	r16, r26
    21cc:	69 81       	ldd	r22, Y+1	; 0x01
    21ce:	7a 81       	ldd	r23, Y+2	; 0x02
    21d0:	8b 81       	ldd	r24, Y+3	; 0x03
    21d2:	9c 81       	ldd	r25, Y+4	; 0x04
    21d4:	23 e5       	ldi	r18, 0x53	; 83
    21d6:	36 e9       	ldi	r19, 0x96	; 150
    21d8:	43 ec       	ldi	r20, 0xC3	; 195
    21da:	50 e4       	ldi	r21, 0x40	; 64
    21dc:	0e 94 85 2d 	call	0x5b0a	; 0x5b0a <__divsf3>
    21e0:	dc 01       	movw	r26, r24
    21e2:	cb 01       	movw	r24, r22
    21e4:	bc 01       	movw	r22, r24
    21e6:	cd 01       	movw	r24, r26
    21e8:	0e 94 67 2f 	call	0x5ece	; 0x5ece <log>
    21ec:	9b 01       	movw	r18, r22
    21ee:	ac 01       	movw	r20, r24
    21f0:	6a ea       	ldi	r22, 0xAA	; 170
    21f2:	71 ef       	ldi	r23, 0xF1	; 241
    21f4:	8a e8       	ldi	r24, 0x8A	; 138
    21f6:	91 e4       	ldi	r25, 0x41	; 65
    21f8:	0e 94 1c 2d 	call	0x5a38	; 0x5a38 <__subsf3>
    21fc:	dc 01       	movw	r26, r24
    21fe:	cb 01       	movw	r24, r22
    2200:	9c 01       	movw	r18, r24
    2202:	ad 01       	movw	r20, r26
    2204:	c8 01       	movw	r24, r16
    2206:	b7 01       	movw	r22, r14
    2208:	0e 94 85 2d 	call	0x5b0a	; 0x5b0a <__divsf3>
    220c:	dc 01       	movw	r26, r24
    220e:	cb 01       	movw	r24, r22
    2210:	8d 83       	std	Y+5, r24	; 0x05
    2212:	9e 83       	std	Y+6, r25	; 0x06
    2214:	af 83       	std	Y+7, r26	; 0x07
    2216:	b8 87       	std	Y+8, r27	; 0x08
	
	if(StartFlag==1)
    2218:	80 91 bc 02 	lds	r24, 0x02BC
    221c:	81 30       	cpi	r24, 0x01	; 1
    221e:	09 f0       	breq	.+2      	; 0x2222 <getTandH+0x1ec>
    2220:	ac c0       	rjmp	.+344    	; 0x237a <getTandH+0x344>
	{
		if(Dewpoint>(Chillwatertem+2))
    2222:	11 e0       	ldi	r17, 0x01	; 1
    2224:	6d 81       	ldd	r22, Y+5	; 0x05
    2226:	7e 81       	ldd	r23, Y+6	; 0x06
    2228:	8f 81       	ldd	r24, Y+7	; 0x07
    222a:	98 85       	ldd	r25, Y+8	; 0x08
    222c:	20 e0       	ldi	r18, 0x00	; 0
    222e:	30 e0       	ldi	r19, 0x00	; 0
    2230:	40 e4       	ldi	r20, 0x40	; 64
    2232:	51 e4       	ldi	r21, 0x41	; 65
    2234:	0e 94 21 2f 	call	0x5e42	; 0x5e42 <__gesf2>
    2238:	18 16       	cp	r1, r24
    223a:	0c f0       	brlt	.+2      	; 0x223e <getTandH+0x208>
    223c:	10 e0       	ldi	r17, 0x00	; 0
    223e:	11 23       	and	r17, r17
    2240:	09 f4       	brne	.+2      	; 0x2244 <getTandH+0x20e>
    2242:	70 c0       	rjmp	.+224    	; 0x2324 <getTandH+0x2ee>
		{
			if(GetTemperature>((SetTemperature+1)*10))
    2244:	80 91 01 01 	lds	r24, 0x0101
    2248:	90 91 02 01 	lds	r25, 0x0102
    224c:	01 96       	adiw	r24, 0x01	; 1
    224e:	88 0f       	add	r24, r24
    2250:	99 1f       	adc	r25, r25
    2252:	9c 01       	movw	r18, r24
    2254:	22 0f       	add	r18, r18
    2256:	33 1f       	adc	r19, r19
    2258:	22 0f       	add	r18, r18
    225a:	33 1f       	adc	r19, r19
    225c:	82 0f       	add	r24, r18
    225e:	93 1f       	adc	r25, r19
    2260:	cc 01       	movw	r24, r24
    2262:	a0 e0       	ldi	r26, 0x00	; 0
    2264:	b0 e0       	ldi	r27, 0x00	; 0
    2266:	bc 01       	movw	r22, r24
    2268:	cd 01       	movw	r24, r26
    226a:	0e 94 4a 2e 	call	0x5c94	; 0x5c94 <__floatunsisf>
    226e:	dc 01       	movw	r26, r24
    2270:	cb 01       	movw	r24, r22
    2272:	20 91 d8 02 	lds	r18, 0x02D8
    2276:	30 91 d9 02 	lds	r19, 0x02D9
    227a:	40 91 da 02 	lds	r20, 0x02DA
    227e:	50 91 db 02 	lds	r21, 0x02DB
    2282:	11 e0       	ldi	r17, 0x01	; 1
    2284:	bc 01       	movw	r22, r24
    2286:	cd 01       	movw	r24, r26
    2288:	0e 94 81 2d 	call	0x5b02	; 0x5b02 <__cmpsf2>
    228c:	88 23       	and	r24, r24
    228e:	0c f0       	brlt	.+2      	; 0x2292 <getTandH+0x25c>
    2290:	10 e0       	ldi	r17, 0x00	; 0
    2292:	11 23       	and	r17, r17
    2294:	81 f0       	breq	.+32     	; 0x22b6 <getTandH+0x280>
			{
				RELAY1_ON;
    2296:	83 e2       	ldi	r24, 0x23	; 35
    2298:	90 e0       	ldi	r25, 0x00	; 0
    229a:	23 e2       	ldi	r18, 0x23	; 35
    229c:	30 e0       	ldi	r19, 0x00	; 0
    229e:	f9 01       	movw	r30, r18
    22a0:	20 81       	ld	r18, Z
    22a2:	20 64       	ori	r18, 0x40	; 64
    22a4:	fc 01       	movw	r30, r24
    22a6:	20 83       	st	Z, r18
				DO1=1;
    22a8:	81 e0       	ldi	r24, 0x01	; 1
    22aa:	90 e0       	ldi	r25, 0x00	; 0
    22ac:	90 93 d5 02 	sts	0x02D5, r25
    22b0:	80 93 d4 02 	sts	0x02D4, r24
    22b4:	54 c0       	rjmp	.+168    	; 0x235e <getTandH+0x328>
			}
			else if(GetTemperature<((SetTemperature-1)*10))
    22b6:	80 91 01 01 	lds	r24, 0x0101
    22ba:	90 91 02 01 	lds	r25, 0x0102
    22be:	88 0f       	add	r24, r24
    22c0:	99 1f       	adc	r25, r25
    22c2:	9c 01       	movw	r18, r24
    22c4:	22 0f       	add	r18, r18
    22c6:	33 1f       	adc	r19, r19
    22c8:	22 0f       	add	r18, r18
    22ca:	33 1f       	adc	r19, r19
    22cc:	82 0f       	add	r24, r18
    22ce:	93 1f       	adc	r25, r19
    22d0:	0a 97       	sbiw	r24, 0x0a	; 10
    22d2:	cc 01       	movw	r24, r24
    22d4:	a0 e0       	ldi	r26, 0x00	; 0
    22d6:	b0 e0       	ldi	r27, 0x00	; 0
    22d8:	bc 01       	movw	r22, r24
    22da:	cd 01       	movw	r24, r26
    22dc:	0e 94 4a 2e 	call	0x5c94	; 0x5c94 <__floatunsisf>
    22e0:	dc 01       	movw	r26, r24
    22e2:	cb 01       	movw	r24, r22
    22e4:	20 91 d8 02 	lds	r18, 0x02D8
    22e8:	30 91 d9 02 	lds	r19, 0x02D9
    22ec:	40 91 da 02 	lds	r20, 0x02DA
    22f0:	50 91 db 02 	lds	r21, 0x02DB
    22f4:	11 e0       	ldi	r17, 0x01	; 1
    22f6:	bc 01       	movw	r22, r24
    22f8:	cd 01       	movw	r24, r26
    22fa:	0e 94 21 2f 	call	0x5e42	; 0x5e42 <__gesf2>
    22fe:	18 16       	cp	r1, r24
    2300:	0c f0       	brlt	.+2      	; 0x2304 <getTandH+0x2ce>
    2302:	10 e0       	ldi	r17, 0x00	; 0
    2304:	11 23       	and	r17, r17
    2306:	59 f1       	breq	.+86     	; 0x235e <getTandH+0x328>
			{
				RELAY1_OFF;
    2308:	83 e2       	ldi	r24, 0x23	; 35
    230a:	90 e0       	ldi	r25, 0x00	; 0
    230c:	23 e2       	ldi	r18, 0x23	; 35
    230e:	30 e0       	ldi	r19, 0x00	; 0
    2310:	f9 01       	movw	r30, r18
    2312:	20 81       	ld	r18, Z
    2314:	2f 7b       	andi	r18, 0xBF	; 191
    2316:	fc 01       	movw	r30, r24
    2318:	20 83       	st	Z, r18
				DO1=0;
    231a:	10 92 d5 02 	sts	0x02D5, r1
    231e:	10 92 d4 02 	sts	0x02D4, r1
    2322:	1d c0       	rjmp	.+58     	; 0x235e <getTandH+0x328>
			}
		}
		else if(Dewpoint<(Chillwatertem+2))
    2324:	11 e0       	ldi	r17, 0x01	; 1
    2326:	6d 81       	ldd	r22, Y+5	; 0x05
    2328:	7e 81       	ldd	r23, Y+6	; 0x06
    232a:	8f 81       	ldd	r24, Y+7	; 0x07
    232c:	98 85       	ldd	r25, Y+8	; 0x08
    232e:	20 e0       	ldi	r18, 0x00	; 0
    2330:	30 e0       	ldi	r19, 0x00	; 0
    2332:	40 e4       	ldi	r20, 0x40	; 64
    2334:	51 e4       	ldi	r21, 0x41	; 65
    2336:	0e 94 81 2d 	call	0x5b02	; 0x5b02 <__cmpsf2>
    233a:	88 23       	and	r24, r24
    233c:	0c f0       	brlt	.+2      	; 0x2340 <getTandH+0x30a>
    233e:	10 e0       	ldi	r17, 0x00	; 0
    2340:	11 23       	and	r17, r17
    2342:	69 f0       	breq	.+26     	; 0x235e <getTandH+0x328>
		{
			RELAY1_OFF;
    2344:	83 e2       	ldi	r24, 0x23	; 35
    2346:	90 e0       	ldi	r25, 0x00	; 0
    2348:	23 e2       	ldi	r18, 0x23	; 35
    234a:	30 e0       	ldi	r19, 0x00	; 0
    234c:	f9 01       	movw	r30, r18
    234e:	20 81       	ld	r18, Z
    2350:	2f 7b       	andi	r18, 0xBF	; 191
    2352:	fc 01       	movw	r30, r24
    2354:	20 83       	st	Z, r18
			DO1=0;
    2356:	10 92 d5 02 	sts	0x02D5, r1
    235a:	10 92 d4 02 	sts	0x02D4, r1
		}
		getdo(DO1,DO2);
    235e:	80 91 d4 02 	lds	r24, 0x02D4
    2362:	90 91 d5 02 	lds	r25, 0x02D5
    2366:	28 2f       	mov	r18, r24
    2368:	80 91 d6 02 	lds	r24, 0x02D6
    236c:	90 91 d7 02 	lds	r25, 0x02D7
    2370:	98 2f       	mov	r25, r24
    2372:	82 2f       	mov	r24, r18
    2374:	69 2f       	mov	r22, r25
    2376:	0e 94 e4 29 	call	0x53c8	; 0x53c8 <getdo>
	}	
}
    237a:	2c 96       	adiw	r28, 0x0c	; 12
    237c:	0f b6       	in	r0, 0x3f	; 63
    237e:	f8 94       	cli
    2380:	de bf       	out	0x3e, r29	; 62
    2382:	0f be       	out	0x3f, r0	; 63
    2384:	cd bf       	out	0x3d, r28	; 61
    2386:	cf 91       	pop	r28
    2388:	df 91       	pop	r29
    238a:	1f 91       	pop	r17
    238c:	0f 91       	pop	r16
    238e:	ff 90       	pop	r15
    2390:	ef 90       	pop	r14
    2392:	08 95       	ret

00002394 <__vector_14>:


SIGNAL(SIG_OVERFLOW1)
{
    2394:	1f 92       	push	r1
    2396:	0f 92       	push	r0
    2398:	0f b6       	in	r0, 0x3f	; 63
    239a:	0f 92       	push	r0
    239c:	00 90 5b 00 	lds	r0, 0x005B
    23a0:	0f 92       	push	r0
    23a2:	11 24       	eor	r1, r1
    23a4:	2f 93       	push	r18
    23a6:	3f 93       	push	r19
    23a8:	8f 93       	push	r24
    23aa:	9f 93       	push	r25
    23ac:	ef 93       	push	r30
    23ae:	ff 93       	push	r31
    23b0:	df 93       	push	r29
    23b2:	cf 93       	push	r28
    23b4:	cd b7       	in	r28, 0x3d	; 61
    23b6:	de b7       	in	r29, 0x3e	; 62
	TCNT1H = 0xC2; //reload counter high value
    23b8:	8d e4       	ldi	r24, 0x4D	; 77
    23ba:	90 e0       	ldi	r25, 0x00	; 0
    23bc:	22 ec       	ldi	r18, 0xC2	; 194
    23be:	fc 01       	movw	r30, r24
    23c0:	20 83       	st	Z, r18
	TCNT1L = 0xF7; //reload counter low value
    23c2:	8c e4       	ldi	r24, 0x4C	; 76
    23c4:	90 e0       	ldi	r25, 0x00	; 0
    23c6:	27 ef       	ldi	r18, 0xF7	; 247
    23c8:	fc 01       	movw	r30, r24
    23ca:	20 83       	st	Z, r18
	getdataflag=1;
    23cc:	81 e0       	ldi	r24, 0x01	; 1
    23ce:	80 93 e4 02 	sts	0x02E4, r24
	if(starflag==1)starcount++;
    23d2:	80 91 21 03 	lds	r24, 0x0321
    23d6:	90 91 22 03 	lds	r25, 0x0322
    23da:	81 30       	cpi	r24, 0x01	; 1
    23dc:	91 05       	cpc	r25, r1
    23de:	49 f4       	brne	.+18     	; 0x23f2 <__vector_14+0x5e>
    23e0:	80 91 23 03 	lds	r24, 0x0323
    23e4:	90 91 24 03 	lds	r25, 0x0324
    23e8:	01 96       	adiw	r24, 0x01	; 1
    23ea:	90 93 24 03 	sts	0x0324, r25
    23ee:	80 93 23 03 	sts	0x0323, r24
	if(starcount==3600)starfinflag=1;
    23f2:	80 91 23 03 	lds	r24, 0x0323
    23f6:	90 91 24 03 	lds	r25, 0x0324
    23fa:	fe e0       	ldi	r31, 0x0E	; 14
    23fc:	80 31       	cpi	r24, 0x10	; 16
    23fe:	9f 07       	cpc	r25, r31
    2400:	31 f4       	brne	.+12     	; 0x240e <__vector_14+0x7a>
    2402:	81 e0       	ldi	r24, 0x01	; 1
    2404:	90 e0       	ldi	r25, 0x00	; 0
    2406:	90 93 26 03 	sts	0x0326, r25
    240a:	80 93 25 03 	sts	0x0325, r24
	waitcount++;
    240e:	80 91 29 03 	lds	r24, 0x0329
    2412:	8f 5f       	subi	r24, 0xFF	; 255
    2414:	80 93 29 03 	sts	0x0329, r24
	if(waitcount==60)
    2418:	80 91 29 03 	lds	r24, 0x0329
    241c:	8c 33       	cpi	r24, 0x3C	; 60
    241e:	71 f4       	brne	.+28     	; 0x243c <__vector_14+0xa8>
	{
		waitcount=0;
    2420:	10 92 29 03 	sts	0x0329, r1
		LCD_BG_L;
    2424:	85 e6       	ldi	r24, 0x65	; 101
    2426:	90 e0       	ldi	r25, 0x00	; 0
    2428:	25 e6       	ldi	r18, 0x65	; 101
    242a:	30 e0       	ldi	r19, 0x00	; 0
    242c:	f9 01       	movw	r30, r18
    242e:	20 81       	ld	r18, Z
    2430:	27 7f       	andi	r18, 0xF7	; 247
    2432:	fc 01       	movw	r30, r24
    2434:	20 83       	st	Z, r18
		touchflag=1;		
    2436:	81 e0       	ldi	r24, 0x01	; 1
    2438:	80 93 28 03 	sts	0x0328, r24
	}
}
    243c:	cf 91       	pop	r28
    243e:	df 91       	pop	r29
    2440:	ff 91       	pop	r31
    2442:	ef 91       	pop	r30
    2444:	9f 91       	pop	r25
    2446:	8f 91       	pop	r24
    2448:	3f 91       	pop	r19
    244a:	2f 91       	pop	r18
    244c:	0f 90       	pop	r0
    244e:	00 92 5b 00 	sts	0x005B, r0
    2452:	0f 90       	pop	r0
    2454:	0f be       	out	0x3f, r0	; 63
    2456:	0f 90       	pop	r0
    2458:	1f 90       	pop	r1
    245a:	18 95       	reti

0000245c <__vector_10>:

SIGNAL(SIG_OVERFLOW2)
{
    245c:	1f 92       	push	r1
    245e:	0f 92       	push	r0
    2460:	0f b6       	in	r0, 0x3f	; 63
    2462:	0f 92       	push	r0
    2464:	00 90 5b 00 	lds	r0, 0x005B
    2468:	0f 92       	push	r0
    246a:	11 24       	eor	r1, r1
    246c:	8f 93       	push	r24
    246e:	9f 93       	push	r25
    2470:	ef 93       	push	r30
    2472:	ff 93       	push	r31
    2474:	df 93       	push	r29
    2476:	cf 93       	push	r28
    2478:	cd b7       	in	r28, 0x3d	; 61
    247a:	de b7       	in	r29, 0x3e	; 62
	Tflag++;
    247c:	80 91 1d 03 	lds	r24, 0x031D
    2480:	90 91 1e 03 	lds	r25, 0x031E
    2484:	01 96       	adiw	r24, 0x01	; 1
    2486:	90 93 1e 03 	sts	0x031E, r25
    248a:	80 93 1d 03 	sts	0x031D, r24
	if(Tflag==10)
    248e:	80 91 1d 03 	lds	r24, 0x031D
    2492:	90 91 1e 03 	lds	r25, 0x031E
    2496:	8a 30       	cpi	r24, 0x0A	; 10
    2498:	91 05       	cpc	r25, r1
    249a:	39 f4       	brne	.+14     	; 0x24aa <__vector_10+0x4e>
	{
		Oflag=1;
    249c:	81 e0       	ldi	r24, 0x01	; 1
    249e:	90 e0       	ldi	r25, 0x00	; 0
    24a0:	90 93 20 03 	sts	0x0320, r25
    24a4:	80 93 1f 03 	sts	0x031F, r24
    24a8:	17 c0       	rjmp	.+46     	; 0x24d8 <__vector_10+0x7c>
	}
	else if(Tflag==40)
    24aa:	80 91 1d 03 	lds	r24, 0x031D
    24ae:	90 91 1e 03 	lds	r25, 0x031E
    24b2:	88 32       	cpi	r24, 0x28	; 40
    24b4:	91 05       	cpc	r25, r1
    24b6:	81 f4       	brne	.+32     	; 0x24d8 <__vector_10+0x7c>
	{
		TCCR2 = 0x0;
    24b8:	85 e4       	ldi	r24, 0x45	; 69
    24ba:	90 e0       	ldi	r25, 0x00	; 0
    24bc:	fc 01       	movw	r30, r24
    24be:	10 82       	st	Z, r1
		TCNT2 = 0;
    24c0:	84 e4       	ldi	r24, 0x44	; 68
    24c2:	90 e0       	ldi	r25, 0x00	; 0
    24c4:	fc 01       	movw	r30, r24
    24c6:	10 82       	st	Z, r1
		Oflag=0;
    24c8:	10 92 20 03 	sts	0x0320, r1
    24cc:	10 92 1f 03 	sts	0x031F, r1
		Tflag=0;
    24d0:	10 92 1e 03 	sts	0x031E, r1
    24d4:	10 92 1d 03 	sts	0x031D, r1
	}
}
    24d8:	cf 91       	pop	r28
    24da:	df 91       	pop	r29
    24dc:	ff 91       	pop	r31
    24de:	ef 91       	pop	r30
    24e0:	9f 91       	pop	r25
    24e2:	8f 91       	pop	r24
    24e4:	0f 90       	pop	r0
    24e6:	00 92 5b 00 	sts	0x005B, r0
    24ea:	0f 90       	pop	r0
    24ec:	0f be       	out	0x3f, r0	; 63
    24ee:	0f 90       	pop	r0
    24f0:	1f 90       	pop	r1
    24f2:	18 95       	reti

000024f4 <getflag>:

void getflag(void)
{
    24f4:	df 93       	push	r29
    24f6:	cf 93       	push	r28
    24f8:	cd b7       	in	r28, 0x3d	; 61
    24fa:	de b7       	in	r29, 0x3e	; 62
	port1flag=1;
    24fc:	81 e0       	ldi	r24, 0x01	; 1
    24fe:	90 e0       	ldi	r25, 0x00	; 0
    2500:	90 93 ea 02 	sts	0x02EA, r25
    2504:	80 93 e9 02 	sts	0x02E9, r24
}
    2508:	cf 91       	pop	r28
    250a:	df 91       	pop	r29
    250c:	08 95       	ret

0000250e <Mainfunction>:

void Mainfunction(void)
{
    250e:	4f 92       	push	r4
    2510:	5f 92       	push	r5
    2512:	6f 92       	push	r6
    2514:	7f 92       	push	r7
    2516:	8f 92       	push	r8
    2518:	9f 92       	push	r9
    251a:	af 92       	push	r10
    251c:	bf 92       	push	r11
    251e:	cf 92       	push	r12
    2520:	df 92       	push	r13
    2522:	ef 92       	push	r14
    2524:	ff 92       	push	r15
    2526:	0f 93       	push	r16
    2528:	1f 93       	push	r17
    252a:	df 93       	push	r29
    252c:	cf 93       	push	r28
    252e:	00 d0       	rcall	.+0      	; 0x2530 <Mainfunction+0x22>
    2530:	cd b7       	in	r28, 0x3d	; 61
    2532:	de b7       	in	r29, 0x3e	; 62
    2534:	01 c0       	rjmp	.+2      	; 0x2538 <Mainfunction+0x2a>
				case 3:send_data1(3,ST2data1,ST2data2,ST2data3,ST2data4,ST2data5,ST2data6,ST2data7,ST2data8,ST2data9,ST2data10,ST2data11,ST2data12);sendtype=0;break;
				case 4:send_data1(4,0,0,0,0,0,0,0,0,0,0,0,0);sendtype=0;break;
				default:break;
			}
		}
	}
    2536:	00 00       	nop

void Mainfunction(void)
{
	while(1)
	{
		if(starfinflag==1)
    2538:	80 91 25 03 	lds	r24, 0x0325
    253c:	90 91 26 03 	lds	r25, 0x0326
    2540:	81 30       	cpi	r24, 0x01	; 1
    2542:	91 05       	cpc	r25, r1
    2544:	21 f4       	brne	.+8      	; 0x254e <Mainfunction+0x40>
		{
			starflag=0;
    2546:	10 92 22 03 	sts	0x0322, r1
    254a:	10 92 21 03 	sts	0x0321, r1
		}
	 	if((PIND&0x02)==0)
    254e:	80 e3       	ldi	r24, 0x30	; 48
    2550:	90 e0       	ldi	r25, 0x00	; 0
    2552:	fc 01       	movw	r30, r24
    2554:	80 81       	ld	r24, Z
    2556:	88 2f       	mov	r24, r24
    2558:	90 e0       	ldi	r25, 0x00	; 0
    255a:	82 70       	andi	r24, 0x02	; 2
    255c:	90 70       	andi	r25, 0x00	; 0
    255e:	00 97       	sbiw	r24, 0x00	; 0
    2560:	09 f0       	breq	.+2      	; 0x2564 <Mainfunction+0x56>
    2562:	22 c1       	rjmp	.+580    	; 0x27a8 <Mainfunction+0x29a>
		{
			waitcount=0;
    2564:	10 92 29 03 	sts	0x0329, r1
			if (touchflag==1)
    2568:	80 91 28 03 	lds	r24, 0x0328
    256c:	81 30       	cpi	r24, 0x01	; 1
    256e:	51 f4       	brne	.+20     	; 0x2584 <Mainfunction+0x76>
			{
				LCD_BG_H;
    2570:	85 e6       	ldi	r24, 0x65	; 101
    2572:	90 e0       	ldi	r25, 0x00	; 0
    2574:	25 e6       	ldi	r18, 0x65	; 101
    2576:	30 e0       	ldi	r19, 0x00	; 0
    2578:	f9 01       	movw	r30, r18
    257a:	20 81       	ld	r18, Z
    257c:	28 60       	ori	r18, 0x08	; 8
    257e:	fc 01       	movw	r30, r24
    2580:	20 83       	st	Z, r18
    2582:	10 c1       	rjmp	.+544    	; 0x27a4 <Mainfunction+0x296>
			} 
			else
			{
				if(Oflag==2)
    2584:	80 91 1f 03 	lds	r24, 0x031F
    2588:	90 91 20 03 	lds	r25, 0x0320
    258c:	82 30       	cpi	r24, 0x02	; 2
    258e:	91 05       	cpc	r25, r1
    2590:	29 f4       	brne	.+10     	; 0x259c <Mainfunction+0x8e>
				{
					touchcase=function();
    2592:	0e 94 d3 24 	call	0x49a6	; 0x49a6 <function>
    2596:	80 93 27 03 	sts	0x0327, r24
    259a:	04 c1       	rjmp	.+520    	; 0x27a4 <Mainfunction+0x296>
				}
				else if(Oflag==0)
    259c:	80 91 1f 03 	lds	r24, 0x031F
    25a0:	90 91 20 03 	lds	r25, 0x0320
    25a4:	00 97       	sbiw	r24, 0x00	; 0
    25a6:	89 f4       	brne	.+34     	; 0x25ca <Mainfunction+0xbc>
				{
					Oflag=2;
    25a8:	82 e0       	ldi	r24, 0x02	; 2
    25aa:	90 e0       	ldi	r25, 0x00	; 0
    25ac:	90 93 20 03 	sts	0x0320, r25
    25b0:	80 93 1f 03 	sts	0x031F, r24
					TCNT2 = 0x64;TCCR2 = 0x05;
    25b4:	84 e4       	ldi	r24, 0x44	; 68
    25b6:	90 e0       	ldi	r25, 0x00	; 0
    25b8:	24 e6       	ldi	r18, 0x64	; 100
    25ba:	fc 01       	movw	r30, r24
    25bc:	20 83       	st	Z, r18
    25be:	85 e4       	ldi	r24, 0x45	; 69
    25c0:	90 e0       	ldi	r25, 0x00	; 0
    25c2:	25 e0       	ldi	r18, 0x05	; 5
    25c4:	fc 01       	movw	r30, r24
    25c6:	20 83       	st	Z, r18
    25c8:	ed c0       	rjmp	.+474    	; 0x27a4 <Mainfunction+0x296>
				}
				else if(Oflag==1)
    25ca:	80 91 1f 03 	lds	r24, 0x031F
    25ce:	90 91 20 03 	lds	r25, 0x0320
    25d2:	81 30       	cpi	r24, 0x01	; 1
    25d4:	91 05       	cpc	r25, r1
    25d6:	09 f0       	breq	.+2      	; 0x25da <Mainfunction+0xcc>
    25d8:	e5 c0       	rjmp	.+458    	; 0x27a4 <Mainfunction+0x296>
				{
					switch(touchcase)
    25da:	80 91 27 03 	lds	r24, 0x0327
    25de:	88 2f       	mov	r24, r24
    25e0:	90 e0       	ldi	r25, 0x00	; 0
    25e2:	82 30       	cpi	r24, 0x02	; 2
    25e4:	91 05       	cpc	r25, r1
    25e6:	41 f1       	breq	.+80     	; 0x2638 <Mainfunction+0x12a>
    25e8:	83 30       	cpi	r24, 0x03	; 3
    25ea:	91 05       	cpc	r25, r1
    25ec:	09 f4       	brne	.+2      	; 0x25f0 <Mainfunction+0xe2>
    25ee:	44 c0       	rjmp	.+136    	; 0x2678 <Mainfunction+0x16a>
    25f0:	81 30       	cpi	r24, 0x01	; 1
    25f2:	91 05       	cpc	r25, r1
    25f4:	09 f0       	breq	.+2      	; 0x25f8 <Mainfunction+0xea>
    25f6:	ce c0       	rjmp	.+412    	; 0x2794 <Mainfunction+0x286>
					{
						case 1:SetTemperature--;inttostrC(SetTemperature,ss);showzifustr(180,220,ss,0,0xffff);break;
    25f8:	80 91 01 01 	lds	r24, 0x0101
    25fc:	90 91 02 01 	lds	r25, 0x0102
    2600:	01 97       	sbiw	r24, 0x01	; 1
    2602:	90 93 02 01 	sts	0x0102, r25
    2606:	80 93 01 01 	sts	0x0101, r24
    260a:	80 91 01 01 	lds	r24, 0x0101
    260e:	90 91 02 01 	lds	r25, 0x0102
    2612:	25 ea       	ldi	r18, 0xA5	; 165
    2614:	33 e0       	ldi	r19, 0x03	; 3
    2616:	b9 01       	movw	r22, r18
    2618:	0e 94 02 1e 	call	0x3c04	; 0x3c04 <inttostrC>
    261c:	25 ea       	ldi	r18, 0xA5	; 165
    261e:	33 e0       	ldi	r19, 0x03	; 3
    2620:	84 eb       	ldi	r24, 0xB4	; 180
    2622:	90 e0       	ldi	r25, 0x00	; 0
    2624:	6c ed       	ldi	r22, 0xDC	; 220
    2626:	70 e0       	ldi	r23, 0x00	; 0
    2628:	a9 01       	movw	r20, r18
    262a:	20 e0       	ldi	r18, 0x00	; 0
    262c:	30 e0       	ldi	r19, 0x00	; 0
    262e:	0f ef       	ldi	r16, 0xFF	; 255
    2630:	1f ef       	ldi	r17, 0xFF	; 255
    2632:	0e 94 4c 1b 	call	0x3698	; 0x3698 <showzifustr>
    2636:	b1 c0       	rjmp	.+354    	; 0x279a <Mainfunction+0x28c>
						case 2:SetTemperature++;inttostrC(SetTemperature,ss);showzifustr(180,220,ss,0,0xffff);break;
    2638:	80 91 01 01 	lds	r24, 0x0101
    263c:	90 91 02 01 	lds	r25, 0x0102
    2640:	01 96       	adiw	r24, 0x01	; 1
    2642:	90 93 02 01 	sts	0x0102, r25
    2646:	80 93 01 01 	sts	0x0101, r24
    264a:	80 91 01 01 	lds	r24, 0x0101
    264e:	90 91 02 01 	lds	r25, 0x0102
    2652:	25 ea       	ldi	r18, 0xA5	; 165
    2654:	33 e0       	ldi	r19, 0x03	; 3
    2656:	b9 01       	movw	r22, r18
    2658:	0e 94 02 1e 	call	0x3c04	; 0x3c04 <inttostrC>
    265c:	25 ea       	ldi	r18, 0xA5	; 165
    265e:	33 e0       	ldi	r19, 0x03	; 3
    2660:	84 eb       	ldi	r24, 0xB4	; 180
    2662:	90 e0       	ldi	r25, 0x00	; 0
    2664:	6c ed       	ldi	r22, 0xDC	; 220
    2666:	70 e0       	ldi	r23, 0x00	; 0
    2668:	a9 01       	movw	r20, r18
    266a:	20 e0       	ldi	r18, 0x00	; 0
    266c:	30 e0       	ldi	r19, 0x00	; 0
    266e:	0f ef       	ldi	r16, 0xFF	; 255
    2670:	1f ef       	ldi	r17, 0xFF	; 255
    2672:	0e 94 4c 1b 	call	0x3698	; 0x3698 <showzifustr>
    2676:	91 c0       	rjmp	.+290    	; 0x279a <Mainfunction+0x28c>
						case 3:
						if (StartFlag==0)
    2678:	80 91 bc 02 	lds	r24, 0x02BC
    267c:	88 23       	and	r24, r24
    267e:	e9 f5       	brne	.+122    	; 0x26fa <Mainfunction+0x1ec>
						{
							showzifustr(355,198,"ON",0xffff,0x012C);
    2680:	23 e0       	ldi	r18, 0x03	; 3
    2682:	31 e0       	ldi	r19, 0x01	; 1
    2684:	83 e6       	ldi	r24, 0x63	; 99
    2686:	91 e0       	ldi	r25, 0x01	; 1
    2688:	66 ec       	ldi	r22, 0xC6	; 198
    268a:	70 e0       	ldi	r23, 0x00	; 0
    268c:	a9 01       	movw	r20, r18
    268e:	2f ef       	ldi	r18, 0xFF	; 255
    2690:	3f ef       	ldi	r19, 0xFF	; 255
    2692:	0c e2       	ldi	r16, 0x2C	; 44
    2694:	11 e0       	ldi	r17, 0x01	; 1
    2696:	0e 94 4c 1b 	call	0x3698	; 0x3698 <showzifustr>
							showzifustr(410,198,"OFF",0x8410,0x012C);
    269a:	26 e0       	ldi	r18, 0x06	; 6
    269c:	31 e0       	ldi	r19, 0x01	; 1
    269e:	8a e9       	ldi	r24, 0x9A	; 154
    26a0:	91 e0       	ldi	r25, 0x01	; 1
    26a2:	66 ec       	ldi	r22, 0xC6	; 198
    26a4:	70 e0       	ldi	r23, 0x00	; 0
    26a6:	a9 01       	movw	r20, r18
    26a8:	20 e1       	ldi	r18, 0x10	; 16
    26aa:	34 e8       	ldi	r19, 0x84	; 132
    26ac:	0c e2       	ldi	r16, 0x2C	; 44
    26ae:	11 e0       	ldi	r17, 0x01	; 1
    26b0:	0e 94 4c 1b 	call	0x3698	; 0x3698 <showzifustr>
							StartFlag=1;
    26b4:	81 e0       	ldi	r24, 0x01	; 1
    26b6:	80 93 bc 02 	sts	0x02BC, r24
							LocFlag=0;
    26ba:	10 92 bd 02 	sts	0x02BD, r1
							RELAY2_ON;
    26be:	83 e2       	ldi	r24, 0x23	; 35
    26c0:	90 e0       	ldi	r25, 0x00	; 0
    26c2:	23 e2       	ldi	r18, 0x23	; 35
    26c4:	30 e0       	ldi	r19, 0x00	; 0
    26c6:	f9 01       	movw	r30, r18
    26c8:	20 81       	ld	r18, Z
    26ca:	20 68       	ori	r18, 0x80	; 128
    26cc:	fc 01       	movw	r30, r24
    26ce:	20 83       	st	Z, r18
							DO2=1;
    26d0:	81 e0       	ldi	r24, 0x01	; 1
    26d2:	90 e0       	ldi	r25, 0x00	; 0
    26d4:	90 93 d7 02 	sts	0x02D7, r25
    26d8:	80 93 d6 02 	sts	0x02D6, r24
							getdo(DO1,DO2);
    26dc:	80 91 d4 02 	lds	r24, 0x02D4
    26e0:	90 91 d5 02 	lds	r25, 0x02D5
    26e4:	28 2f       	mov	r18, r24
    26e6:	80 91 d6 02 	lds	r24, 0x02D6
    26ea:	90 91 d7 02 	lds	r25, 0x02D7
    26ee:	98 2f       	mov	r25, r24
    26f0:	82 2f       	mov	r24, r18
    26f2:	69 2f       	mov	r22, r25
    26f4:	0e 94 e4 29 	call	0x53c8	; 0x53c8 <getdo>
							DO1=0;
							RELAY2_OFF;
							DO2=0;
							getdo(DO1,DO2);
						}
						default:break;
    26f8:	50 c0       	rjmp	.+160    	; 0x279a <Mainfunction+0x28c>
							LocFlag=0;
							RELAY2_ON;
							DO2=1;
							getdo(DO1,DO2);
						}
						else if(StartFlag==1)
    26fa:	80 91 bc 02 	lds	r24, 0x02BC
    26fe:	81 30       	cpi	r24, 0x01	; 1
    2700:	09 f0       	breq	.+2      	; 0x2704 <Mainfunction+0x1f6>
    2702:	4a c0       	rjmp	.+148    	; 0x2798 <Mainfunction+0x28a>
						{
							showzifustr(355,198,"ON",0x8410,0x012C);
    2704:	23 e0       	ldi	r18, 0x03	; 3
    2706:	31 e0       	ldi	r19, 0x01	; 1
    2708:	83 e6       	ldi	r24, 0x63	; 99
    270a:	91 e0       	ldi	r25, 0x01	; 1
    270c:	66 ec       	ldi	r22, 0xC6	; 198
    270e:	70 e0       	ldi	r23, 0x00	; 0
    2710:	a9 01       	movw	r20, r18
    2712:	20 e1       	ldi	r18, 0x10	; 16
    2714:	34 e8       	ldi	r19, 0x84	; 132
    2716:	0c e2       	ldi	r16, 0x2C	; 44
    2718:	11 e0       	ldi	r17, 0x01	; 1
    271a:	0e 94 4c 1b 	call	0x3698	; 0x3698 <showzifustr>
							showzifustr(410,198,"OFF",0xffff,0x012C); 
    271e:	26 e0       	ldi	r18, 0x06	; 6
    2720:	31 e0       	ldi	r19, 0x01	; 1
    2722:	8a e9       	ldi	r24, 0x9A	; 154
    2724:	91 e0       	ldi	r25, 0x01	; 1
    2726:	66 ec       	ldi	r22, 0xC6	; 198
    2728:	70 e0       	ldi	r23, 0x00	; 0
    272a:	a9 01       	movw	r20, r18
    272c:	2f ef       	ldi	r18, 0xFF	; 255
    272e:	3f ef       	ldi	r19, 0xFF	; 255
    2730:	0c e2       	ldi	r16, 0x2C	; 44
    2732:	11 e0       	ldi	r17, 0x01	; 1
    2734:	0e 94 4c 1b 	call	0x3698	; 0x3698 <showzifustr>
							StartFlag=0;
    2738:	10 92 bc 02 	sts	0x02BC, r1
							LocFlag=1;
    273c:	81 e0       	ldi	r24, 0x01	; 1
    273e:	80 93 bd 02 	sts	0x02BD, r24
							RELAY1_OFF;
    2742:	83 e2       	ldi	r24, 0x23	; 35
    2744:	90 e0       	ldi	r25, 0x00	; 0
    2746:	23 e2       	ldi	r18, 0x23	; 35
    2748:	30 e0       	ldi	r19, 0x00	; 0
    274a:	f9 01       	movw	r30, r18
    274c:	20 81       	ld	r18, Z
    274e:	2f 7b       	andi	r18, 0xBF	; 191
    2750:	fc 01       	movw	r30, r24
    2752:	20 83       	st	Z, r18
							DO1=0;
    2754:	10 92 d5 02 	sts	0x02D5, r1
    2758:	10 92 d4 02 	sts	0x02D4, r1
							RELAY2_OFF;
    275c:	83 e2       	ldi	r24, 0x23	; 35
    275e:	90 e0       	ldi	r25, 0x00	; 0
    2760:	23 e2       	ldi	r18, 0x23	; 35
    2762:	30 e0       	ldi	r19, 0x00	; 0
    2764:	f9 01       	movw	r30, r18
    2766:	20 81       	ld	r18, Z
    2768:	2f 77       	andi	r18, 0x7F	; 127
    276a:	fc 01       	movw	r30, r24
    276c:	20 83       	st	Z, r18
							DO2=0;
    276e:	10 92 d7 02 	sts	0x02D7, r1
    2772:	10 92 d6 02 	sts	0x02D6, r1
							getdo(DO1,DO2);
    2776:	80 91 d4 02 	lds	r24, 0x02D4
    277a:	90 91 d5 02 	lds	r25, 0x02D5
    277e:	28 2f       	mov	r18, r24
    2780:	80 91 d6 02 	lds	r24, 0x02D6
    2784:	90 91 d7 02 	lds	r25, 0x02D7
    2788:	98 2f       	mov	r25, r24
    278a:	82 2f       	mov	r24, r18
    278c:	69 2f       	mov	r22, r25
    278e:	0e 94 e4 29 	call	0x53c8	; 0x53c8 <getdo>
						}
						default:break;
    2792:	03 c0       	rjmp	.+6      	; 0x279a <Mainfunction+0x28c>
    2794:	00 00       	nop
    2796:	01 c0       	rjmp	.+2      	; 0x279a <Mainfunction+0x28c>
    2798:	00 00       	nop
					}
					touchcase=0;
    279a:	10 92 27 03 	sts	0x0327, r1
					UserSetFlag=1;
    279e:	81 e0       	ldi	r24, 0x01	; 1
    27a0:	80 93 be 02 	sts	0x02BE, r24
				}
			}
			touchflag=0;
    27a4:	10 92 28 03 	sts	0x0328, r1
		}
		if(port1flag==1)
    27a8:	80 91 e9 02 	lds	r24, 0x02E9
    27ac:	90 91 ea 02 	lds	r25, 0x02EA
    27b0:	81 30       	cpi	r24, 0x01	; 1
    27b2:	91 05       	cpc	r25, r1
    27b4:	31 f4       	brne	.+12     	; 0x27c2 <Mainfunction+0x2b4>
		{
			Reciver_process1();
    27b6:	0e 94 75 2c 	call	0x58ea	; 0x58ea <Reciver_process1>
			port1flag=0;
    27ba:	10 92 ea 02 	sts	0x02EA, r1
    27be:	10 92 e9 02 	sts	0x02E9, r1
		}
		if(getdataflag==1)
    27c2:	80 91 e4 02 	lds	r24, 0x02E4
    27c6:	81 30       	cpi	r24, 0x01	; 1
    27c8:	09 f0       	breq	.+2      	; 0x27cc <Mainfunction+0x2be>
    27ca:	b5 ce       	rjmp	.-662    	; 0x2536 <Mainfunction+0x28>
		{
		 	DHTReadData();
    27cc:	0e 94 9c 1f 	call	0x3f38	; 0x3f38 <DHTReadData>
			getdataflag=0;
    27d0:	10 92 e4 02 	sts	0x02E4, r1
			switch(sendtype)
    27d4:	80 91 e6 02 	lds	r24, 0x02E6
    27d8:	88 2f       	mov	r24, r24
    27da:	90 e0       	ldi	r25, 0x00	; 0
    27dc:	82 30       	cpi	r24, 0x02	; 2
    27de:	91 05       	cpc	r25, r1
    27e0:	09 f4       	brne	.+2      	; 0x27e4 <Mainfunction+0x2d6>
    27e2:	a2 c0       	rjmp	.+324    	; 0x2928 <Mainfunction+0x41a>
    27e4:	83 30       	cpi	r24, 0x03	; 3
    27e6:	91 05       	cpc	r25, r1
    27e8:	3c f4       	brge	.+14     	; 0x27f8 <Mainfunction+0x2ea>
    27ea:	00 97       	sbiw	r24, 0x00	; 0
    27ec:	71 f0       	breq	.+28     	; 0x280a <Mainfunction+0x2fc>
    27ee:	81 30       	cpi	r24, 0x01	; 1
    27f0:	91 05       	cpc	r25, r1
    27f2:	09 f4       	brne	.+2      	; 0x27f6 <Mainfunction+0x2e8>
    27f4:	3e c0       	rjmp	.+124    	; 0x2872 <Mainfunction+0x364>
    27f6:	62 c1       	rjmp	.+708    	; 0x2abc <Mainfunction+0x5ae>
    27f8:	83 30       	cpi	r24, 0x03	; 3
    27fa:	91 05       	cpc	r25, r1
    27fc:	09 f4       	brne	.+2      	; 0x2800 <Mainfunction+0x2f2>
    27fe:	cd c0       	rjmp	.+410    	; 0x299a <Mainfunction+0x48c>
    2800:	84 30       	cpi	r24, 0x04	; 4
    2802:	91 05       	cpc	r25, r1
    2804:	09 f4       	brne	.+2      	; 0x2808 <Mainfunction+0x2fa>
    2806:	24 c1       	rjmp	.+584    	; 0x2a50 <Mainfunction+0x542>
    2808:	59 c1       	rjmp	.+690    	; 0x2abc <Mainfunction+0x5ae>
			{
			 	case 0:send_data1(0,0,0,0,0,0,0,0,0,0,0,0,0);break;
    280a:	8d b7       	in	r24, 0x3d	; 61
    280c:	9e b7       	in	r25, 0x3e	; 62
    280e:	08 97       	sbiw	r24, 0x08	; 8
    2810:	0f b6       	in	r0, 0x3f	; 63
    2812:	f8 94       	cli
    2814:	9e bf       	out	0x3e, r25	; 62
    2816:	0f be       	out	0x3f, r0	; 63
    2818:	8d bf       	out	0x3d, r24	; 61
    281a:	8d b7       	in	r24, 0x3d	; 61
    281c:	9e b7       	in	r25, 0x3e	; 62
    281e:	01 96       	adiw	r24, 0x01	; 1
    2820:	fc 01       	movw	r30, r24
    2822:	11 82       	std	Z+1, r1	; 0x01
    2824:	10 82       	st	Z, r1
    2826:	fc 01       	movw	r30, r24
    2828:	13 82       	std	Z+3, r1	; 0x03
    282a:	12 82       	std	Z+2, r1	; 0x02
    282c:	fc 01       	movw	r30, r24
    282e:	15 82       	std	Z+5, r1	; 0x05
    2830:	14 82       	std	Z+4, r1	; 0x04
    2832:	fc 01       	movw	r30, r24
    2834:	17 82       	std	Z+7, r1	; 0x07
    2836:	16 82       	std	Z+6, r1	; 0x06
    2838:	80 e0       	ldi	r24, 0x00	; 0
    283a:	90 e0       	ldi	r25, 0x00	; 0
    283c:	60 e0       	ldi	r22, 0x00	; 0
    283e:	70 e0       	ldi	r23, 0x00	; 0
    2840:	40 e0       	ldi	r20, 0x00	; 0
    2842:	50 e0       	ldi	r21, 0x00	; 0
    2844:	20 e0       	ldi	r18, 0x00	; 0
    2846:	30 e0       	ldi	r19, 0x00	; 0
    2848:	00 e0       	ldi	r16, 0x00	; 0
    284a:	10 e0       	ldi	r17, 0x00	; 0
    284c:	ee 24       	eor	r14, r14
    284e:	ff 24       	eor	r15, r15
    2850:	cc 24       	eor	r12, r12
    2852:	dd 24       	eor	r13, r13
    2854:	aa 24       	eor	r10, r10
    2856:	bb 24       	eor	r11, r11
    2858:	88 24       	eor	r8, r8
    285a:	99 24       	eor	r9, r9
    285c:	0e 94 fe 2a 	call	0x55fc	; 0x55fc <send_data1>
    2860:	8d b7       	in	r24, 0x3d	; 61
    2862:	9e b7       	in	r25, 0x3e	; 62
    2864:	08 96       	adiw	r24, 0x08	; 8
    2866:	0f b6       	in	r0, 0x3f	; 63
    2868:	f8 94       	cli
    286a:	9e bf       	out	0x3e, r25	; 62
    286c:	0f be       	out	0x3f, r0	; 63
    286e:	8d bf       	out	0x3d, r24	; 61
    2870:	26 c1       	rjmp	.+588    	; 0x2abe <Mainfunction+0x5b0>
				case 1:send_data1(1,ST1data1,ST1data2,ST1data3,ST1data4,ST1data5,ST1data6,ST1data7,ST1data8,ST1data9,ST1data10,ST1data11,ST1data12);sendtype=0;break;
    2872:	80 91 ed 02 	lds	r24, 0x02ED
    2876:	68 2f       	mov	r22, r24
    2878:	70 e0       	ldi	r23, 0x00	; 0
    287a:	80 91 ee 02 	lds	r24, 0x02EE
    287e:	48 2f       	mov	r20, r24
    2880:	50 e0       	ldi	r21, 0x00	; 0
    2882:	80 91 ef 02 	lds	r24, 0x02EF
    2886:	28 2f       	mov	r18, r24
    2888:	30 e0       	ldi	r19, 0x00	; 0
    288a:	80 91 f0 02 	lds	r24, 0x02F0
    288e:	08 2f       	mov	r16, r24
    2890:	10 e0       	ldi	r17, 0x00	; 0
    2892:	80 91 f1 02 	lds	r24, 0x02F1
    2896:	e8 2e       	mov	r14, r24
    2898:	ff 24       	eor	r15, r15
    289a:	80 91 f2 02 	lds	r24, 0x02F2
    289e:	c8 2e       	mov	r12, r24
    28a0:	dd 24       	eor	r13, r13
    28a2:	80 91 f3 02 	lds	r24, 0x02F3
    28a6:	a8 2f       	mov	r26, r24
    28a8:	b0 e0       	ldi	r27, 0x00	; 0
    28aa:	80 91 f4 02 	lds	r24, 0x02F4
    28ae:	e8 2f       	mov	r30, r24
    28b0:	f0 e0       	ldi	r31, 0x00	; 0
    28b2:	fa 83       	std	Y+2, r31	; 0x02
    28b4:	e9 83       	std	Y+1, r30	; 0x01
    28b6:	80 91 f5 02 	lds	r24, 0x02F5
    28ba:	48 2e       	mov	r4, r24
    28bc:	55 24       	eor	r5, r5
    28be:	80 91 f6 02 	lds	r24, 0x02F6
    28c2:	68 2e       	mov	r6, r24
    28c4:	77 24       	eor	r7, r7
    28c6:	80 91 f7 02 	lds	r24, 0x02F7
    28ca:	88 2e       	mov	r8, r24
    28cc:	99 24       	eor	r9, r9
    28ce:	80 91 f8 02 	lds	r24, 0x02F8
    28d2:	a8 2e       	mov	r10, r24
    28d4:	bb 24       	eor	r11, r11
    28d6:	8d b7       	in	r24, 0x3d	; 61
    28d8:	9e b7       	in	r25, 0x3e	; 62
    28da:	08 97       	sbiw	r24, 0x08	; 8
    28dc:	0f b6       	in	r0, 0x3f	; 63
    28de:	f8 94       	cli
    28e0:	9e bf       	out	0x3e, r25	; 62
    28e2:	0f be       	out	0x3f, r0	; 63
    28e4:	8d bf       	out	0x3d, r24	; 61
    28e6:	8d b7       	in	r24, 0x3d	; 61
    28e8:	9e b7       	in	r25, 0x3e	; 62
    28ea:	01 96       	adiw	r24, 0x01	; 1
    28ec:	fc 01       	movw	r30, r24
    28ee:	51 82       	std	Z+1, r5	; 0x01
    28f0:	40 82       	st	Z, r4
    28f2:	fc 01       	movw	r30, r24
    28f4:	73 82       	std	Z+3, r7	; 0x03
    28f6:	62 82       	std	Z+2, r6	; 0x02
    28f8:	fc 01       	movw	r30, r24
    28fa:	95 82       	std	Z+5, r9	; 0x05
    28fc:	84 82       	std	Z+4, r8	; 0x04
    28fe:	fc 01       	movw	r30, r24
    2900:	b7 82       	std	Z+7, r11	; 0x07
    2902:	a6 82       	std	Z+6, r10	; 0x06
    2904:	81 e0       	ldi	r24, 0x01	; 1
    2906:	90 e0       	ldi	r25, 0x00	; 0
    2908:	5d 01       	movw	r10, r26
    290a:	89 80       	ldd	r8, Y+1	; 0x01
    290c:	9a 80       	ldd	r9, Y+2	; 0x02
    290e:	0e 94 fe 2a 	call	0x55fc	; 0x55fc <send_data1>
    2912:	8d b7       	in	r24, 0x3d	; 61
    2914:	9e b7       	in	r25, 0x3e	; 62
    2916:	08 96       	adiw	r24, 0x08	; 8
    2918:	0f b6       	in	r0, 0x3f	; 63
    291a:	f8 94       	cli
    291c:	9e bf       	out	0x3e, r25	; 62
    291e:	0f be       	out	0x3f, r0	; 63
    2920:	8d bf       	out	0x3d, r24	; 61
    2922:	10 92 e6 02 	sts	0x02E6, r1
    2926:	cb c0       	rjmp	.+406    	; 0x2abe <Mainfunction+0x5b0>
				case 2:send_data1(2,SetTemperature,0,0,0,0,0,0,0,0,0,0,0);sendtype=0;break;
    2928:	20 91 01 01 	lds	r18, 0x0101
    292c:	30 91 02 01 	lds	r19, 0x0102
    2930:	ed b7       	in	r30, 0x3d	; 61
    2932:	fe b7       	in	r31, 0x3e	; 62
    2934:	38 97       	sbiw	r30, 0x08	; 8
    2936:	0f b6       	in	r0, 0x3f	; 63
    2938:	f8 94       	cli
    293a:	fe bf       	out	0x3e, r31	; 62
    293c:	0f be       	out	0x3f, r0	; 63
    293e:	ed bf       	out	0x3d, r30	; 61
    2940:	8d b7       	in	r24, 0x3d	; 61
    2942:	9e b7       	in	r25, 0x3e	; 62
    2944:	01 96       	adiw	r24, 0x01	; 1
    2946:	fc 01       	movw	r30, r24
    2948:	11 82       	std	Z+1, r1	; 0x01
    294a:	10 82       	st	Z, r1
    294c:	fc 01       	movw	r30, r24
    294e:	13 82       	std	Z+3, r1	; 0x03
    2950:	12 82       	std	Z+2, r1	; 0x02
    2952:	fc 01       	movw	r30, r24
    2954:	15 82       	std	Z+5, r1	; 0x05
    2956:	14 82       	std	Z+4, r1	; 0x04
    2958:	fc 01       	movw	r30, r24
    295a:	17 82       	std	Z+7, r1	; 0x07
    295c:	16 82       	std	Z+6, r1	; 0x06
    295e:	82 e0       	ldi	r24, 0x02	; 2
    2960:	90 e0       	ldi	r25, 0x00	; 0
    2962:	b9 01       	movw	r22, r18
    2964:	40 e0       	ldi	r20, 0x00	; 0
    2966:	50 e0       	ldi	r21, 0x00	; 0
    2968:	20 e0       	ldi	r18, 0x00	; 0
    296a:	30 e0       	ldi	r19, 0x00	; 0
    296c:	00 e0       	ldi	r16, 0x00	; 0
    296e:	10 e0       	ldi	r17, 0x00	; 0
    2970:	ee 24       	eor	r14, r14
    2972:	ff 24       	eor	r15, r15
    2974:	cc 24       	eor	r12, r12
    2976:	dd 24       	eor	r13, r13
    2978:	aa 24       	eor	r10, r10
    297a:	bb 24       	eor	r11, r11
    297c:	88 24       	eor	r8, r8
    297e:	99 24       	eor	r9, r9
    2980:	0e 94 fe 2a 	call	0x55fc	; 0x55fc <send_data1>
    2984:	8d b7       	in	r24, 0x3d	; 61
    2986:	9e b7       	in	r25, 0x3e	; 62
    2988:	08 96       	adiw	r24, 0x08	; 8
    298a:	0f b6       	in	r0, 0x3f	; 63
    298c:	f8 94       	cli
    298e:	9e bf       	out	0x3e, r25	; 62
    2990:	0f be       	out	0x3f, r0	; 63
    2992:	8d bf       	out	0x3d, r24	; 61
    2994:	10 92 e6 02 	sts	0x02E6, r1
    2998:	92 c0       	rjmp	.+292    	; 0x2abe <Mainfunction+0x5b0>
				case 3:send_data1(3,ST2data1,ST2data2,ST2data3,ST2data4,ST2data5,ST2data6,ST2data7,ST2data8,ST2data9,ST2data10,ST2data11,ST2data12);sendtype=0;break;
    299a:	80 91 f9 02 	lds	r24, 0x02F9
    299e:	68 2f       	mov	r22, r24
    29a0:	70 e0       	ldi	r23, 0x00	; 0
    29a2:	80 91 fa 02 	lds	r24, 0x02FA
    29a6:	48 2f       	mov	r20, r24
    29a8:	50 e0       	ldi	r21, 0x00	; 0
    29aa:	80 91 fb 02 	lds	r24, 0x02FB
    29ae:	28 2f       	mov	r18, r24
    29b0:	30 e0       	ldi	r19, 0x00	; 0
    29b2:	80 91 fc 02 	lds	r24, 0x02FC
    29b6:	08 2f       	mov	r16, r24
    29b8:	10 e0       	ldi	r17, 0x00	; 0
    29ba:	80 91 fd 02 	lds	r24, 0x02FD
    29be:	e8 2e       	mov	r14, r24
    29c0:	ff 24       	eor	r15, r15
    29c2:	80 91 fe 02 	lds	r24, 0x02FE
    29c6:	c8 2e       	mov	r12, r24
    29c8:	dd 24       	eor	r13, r13
    29ca:	80 91 ff 02 	lds	r24, 0x02FF
    29ce:	a8 2f       	mov	r26, r24
    29d0:	b0 e0       	ldi	r27, 0x00	; 0
    29d2:	80 91 00 03 	lds	r24, 0x0300
    29d6:	e8 2f       	mov	r30, r24
    29d8:	f0 e0       	ldi	r31, 0x00	; 0
    29da:	fa 83       	std	Y+2, r31	; 0x02
    29dc:	e9 83       	std	Y+1, r30	; 0x01
    29de:	80 91 01 03 	lds	r24, 0x0301
    29e2:	48 2e       	mov	r4, r24
    29e4:	55 24       	eor	r5, r5
    29e6:	80 91 02 03 	lds	r24, 0x0302
    29ea:	68 2e       	mov	r6, r24
    29ec:	77 24       	eor	r7, r7
    29ee:	80 91 03 03 	lds	r24, 0x0303
    29f2:	88 2e       	mov	r8, r24
    29f4:	99 24       	eor	r9, r9
    29f6:	80 91 04 03 	lds	r24, 0x0304
    29fa:	a8 2e       	mov	r10, r24
    29fc:	bb 24       	eor	r11, r11
    29fe:	8d b7       	in	r24, 0x3d	; 61
    2a00:	9e b7       	in	r25, 0x3e	; 62
    2a02:	08 97       	sbiw	r24, 0x08	; 8
    2a04:	0f b6       	in	r0, 0x3f	; 63
    2a06:	f8 94       	cli
    2a08:	9e bf       	out	0x3e, r25	; 62
    2a0a:	0f be       	out	0x3f, r0	; 63
    2a0c:	8d bf       	out	0x3d, r24	; 61
    2a0e:	8d b7       	in	r24, 0x3d	; 61
    2a10:	9e b7       	in	r25, 0x3e	; 62
    2a12:	01 96       	adiw	r24, 0x01	; 1
    2a14:	fc 01       	movw	r30, r24
    2a16:	51 82       	std	Z+1, r5	; 0x01
    2a18:	40 82       	st	Z, r4
    2a1a:	fc 01       	movw	r30, r24
    2a1c:	73 82       	std	Z+3, r7	; 0x03
    2a1e:	62 82       	std	Z+2, r6	; 0x02
    2a20:	fc 01       	movw	r30, r24
    2a22:	95 82       	std	Z+5, r9	; 0x05
    2a24:	84 82       	std	Z+4, r8	; 0x04
    2a26:	fc 01       	movw	r30, r24
    2a28:	b7 82       	std	Z+7, r11	; 0x07
    2a2a:	a6 82       	std	Z+6, r10	; 0x06
    2a2c:	83 e0       	ldi	r24, 0x03	; 3
    2a2e:	90 e0       	ldi	r25, 0x00	; 0
    2a30:	5d 01       	movw	r10, r26
    2a32:	89 80       	ldd	r8, Y+1	; 0x01
    2a34:	9a 80       	ldd	r9, Y+2	; 0x02
    2a36:	0e 94 fe 2a 	call	0x55fc	; 0x55fc <send_data1>
    2a3a:	8d b7       	in	r24, 0x3d	; 61
    2a3c:	9e b7       	in	r25, 0x3e	; 62
    2a3e:	08 96       	adiw	r24, 0x08	; 8
    2a40:	0f b6       	in	r0, 0x3f	; 63
    2a42:	f8 94       	cli
    2a44:	9e bf       	out	0x3e, r25	; 62
    2a46:	0f be       	out	0x3f, r0	; 63
    2a48:	8d bf       	out	0x3d, r24	; 61
    2a4a:	10 92 e6 02 	sts	0x02E6, r1
    2a4e:	37 c0       	rjmp	.+110    	; 0x2abe <Mainfunction+0x5b0>
				case 4:send_data1(4,0,0,0,0,0,0,0,0,0,0,0,0);sendtype=0;break;
    2a50:	ed b7       	in	r30, 0x3d	; 61
    2a52:	fe b7       	in	r31, 0x3e	; 62
    2a54:	38 97       	sbiw	r30, 0x08	; 8
    2a56:	0f b6       	in	r0, 0x3f	; 63
    2a58:	f8 94       	cli
    2a5a:	fe bf       	out	0x3e, r31	; 62
    2a5c:	0f be       	out	0x3f, r0	; 63
    2a5e:	ed bf       	out	0x3d, r30	; 61
    2a60:	8d b7       	in	r24, 0x3d	; 61
    2a62:	9e b7       	in	r25, 0x3e	; 62
    2a64:	01 96       	adiw	r24, 0x01	; 1
    2a66:	fc 01       	movw	r30, r24
    2a68:	11 82       	std	Z+1, r1	; 0x01
    2a6a:	10 82       	st	Z, r1
    2a6c:	fc 01       	movw	r30, r24
    2a6e:	13 82       	std	Z+3, r1	; 0x03
    2a70:	12 82       	std	Z+2, r1	; 0x02
    2a72:	fc 01       	movw	r30, r24
    2a74:	15 82       	std	Z+5, r1	; 0x05
    2a76:	14 82       	std	Z+4, r1	; 0x04
    2a78:	fc 01       	movw	r30, r24
    2a7a:	17 82       	std	Z+7, r1	; 0x07
    2a7c:	16 82       	std	Z+6, r1	; 0x06
    2a7e:	84 e0       	ldi	r24, 0x04	; 4
    2a80:	90 e0       	ldi	r25, 0x00	; 0
    2a82:	60 e0       	ldi	r22, 0x00	; 0
    2a84:	70 e0       	ldi	r23, 0x00	; 0
    2a86:	40 e0       	ldi	r20, 0x00	; 0
    2a88:	50 e0       	ldi	r21, 0x00	; 0
    2a8a:	20 e0       	ldi	r18, 0x00	; 0
    2a8c:	30 e0       	ldi	r19, 0x00	; 0
    2a8e:	00 e0       	ldi	r16, 0x00	; 0
    2a90:	10 e0       	ldi	r17, 0x00	; 0
    2a92:	ee 24       	eor	r14, r14
    2a94:	ff 24       	eor	r15, r15
    2a96:	cc 24       	eor	r12, r12
    2a98:	dd 24       	eor	r13, r13
    2a9a:	aa 24       	eor	r10, r10
    2a9c:	bb 24       	eor	r11, r11
    2a9e:	88 24       	eor	r8, r8
    2aa0:	99 24       	eor	r9, r9
    2aa2:	0e 94 fe 2a 	call	0x55fc	; 0x55fc <send_data1>
    2aa6:	8d b7       	in	r24, 0x3d	; 61
    2aa8:	9e b7       	in	r25, 0x3e	; 62
    2aaa:	08 96       	adiw	r24, 0x08	; 8
    2aac:	0f b6       	in	r0, 0x3f	; 63
    2aae:	f8 94       	cli
    2ab0:	9e bf       	out	0x3e, r25	; 62
    2ab2:	0f be       	out	0x3f, r0	; 63
    2ab4:	8d bf       	out	0x3d, r24	; 61
    2ab6:	10 92 e6 02 	sts	0x02E6, r1
    2aba:	01 c0       	rjmp	.+2      	; 0x2abe <Mainfunction+0x5b0>
				default:break;
    2abc:	00 00       	nop
			}
		}
	}
    2abe:	3c cd       	rjmp	.-1416   	; 0x2538 <Mainfunction+0x2a>

00002ac0 <returnT>:
}

unsigned int returnT(void)
{return GetTemperature*10;}
    2ac0:	df 93       	push	r29
    2ac2:	cf 93       	push	r28
    2ac4:	cd b7       	in	r28, 0x3d	; 61
    2ac6:	de b7       	in	r29, 0x3e	; 62
    2ac8:	80 91 d8 02 	lds	r24, 0x02D8
    2acc:	90 91 d9 02 	lds	r25, 0x02D9
    2ad0:	a0 91 da 02 	lds	r26, 0x02DA
    2ad4:	b0 91 db 02 	lds	r27, 0x02DB
    2ad8:	bc 01       	movw	r22, r24
    2ada:	cd 01       	movw	r24, r26
    2adc:	20 e0       	ldi	r18, 0x00	; 0
    2ade:	30 e0       	ldi	r19, 0x00	; 0
    2ae0:	40 e2       	ldi	r20, 0x20	; 32
    2ae2:	51 e4       	ldi	r21, 0x41	; 65
    2ae4:	0e 94 da 2f 	call	0x5fb4	; 0x5fb4 <__mulsf3>
    2ae8:	dc 01       	movw	r26, r24
    2aea:	cb 01       	movw	r24, r22
    2aec:	bc 01       	movw	r22, r24
    2aee:	cd 01       	movw	r24, r26
    2af0:	0e 94 1e 2e 	call	0x5c3c	; 0x5c3c <__fixunssfsi>
    2af4:	dc 01       	movw	r26, r24
    2af6:	cb 01       	movw	r24, r22
    2af8:	cf 91       	pop	r28
    2afa:	df 91       	pop	r29
    2afc:	08 95       	ret

00002afe <returnH>:

unsigned int returnH(void)
{return GetHumidity*10;}
    2afe:	df 93       	push	r29
    2b00:	cf 93       	push	r28
    2b02:	cd b7       	in	r28, 0x3d	; 61
    2b04:	de b7       	in	r29, 0x3e	; 62
    2b06:	80 91 dc 02 	lds	r24, 0x02DC
    2b0a:	90 91 dd 02 	lds	r25, 0x02DD
    2b0e:	a0 91 de 02 	lds	r26, 0x02DE
    2b12:	b0 91 df 02 	lds	r27, 0x02DF
    2b16:	bc 01       	movw	r22, r24
    2b18:	cd 01       	movw	r24, r26
    2b1a:	20 e0       	ldi	r18, 0x00	; 0
    2b1c:	30 e0       	ldi	r19, 0x00	; 0
    2b1e:	40 e2       	ldi	r20, 0x20	; 32
    2b20:	51 e4       	ldi	r21, 0x41	; 65
    2b22:	0e 94 da 2f 	call	0x5fb4	; 0x5fb4 <__mulsf3>
    2b26:	dc 01       	movw	r26, r24
    2b28:	cb 01       	movw	r24, r22
    2b2a:	bc 01       	movw	r22, r24
    2b2c:	cd 01       	movw	r24, r26
    2b2e:	0e 94 1e 2e 	call	0x5c3c	; 0x5c3c <__fixunssfsi>
    2b32:	dc 01       	movw	r26, r24
    2b34:	cb 01       	movw	r24, r22
    2b36:	cf 91       	pop	r28
    2b38:	df 91       	pop	r29
    2b3a:	08 95       	ret

00002b3c <ACBinit>:
	
void ACBinit(void)
{
    2b3c:	df 93       	push	r29
    2b3e:	cf 93       	push	r28
    2b40:	cd b7       	in	r28, 0x3d	; 61
    2b42:	de b7       	in	r29, 0x3e	; 62
	UI();
    2b44:	0e 94 3d 25 	call	0x4a7a	; 0x4a7a <UI>
	starflag=1;
    2b48:	81 e0       	ldi	r24, 0x01	; 1
    2b4a:	90 e0       	ldi	r25, 0x00	; 0
    2b4c:	90 93 22 03 	sts	0x0322, r25
    2b50:	80 93 21 03 	sts	0x0321, r24
	sendtype=4;
    2b54:	84 e0       	ldi	r24, 0x04	; 4
    2b56:	80 93 e6 02 	sts	0x02E6, r24
//	RELAY2_ON;
//  pid_Init(1,1,1,&pidData);
}
    2b5a:	cf 91       	pop	r28
    2b5c:	df 91       	pop	r29
    2b5e:	08 95       	ret

00002b60 <pid_Init>:

void pid_Init(int P, int I, int D, struct PID_DATA *pid)
{
    2b60:	df 93       	push	r29
    2b62:	cf 93       	push	r28
    2b64:	cd b7       	in	r28, 0x3d	; 61
    2b66:	de b7       	in	r29, 0x3e	; 62
    2b68:	28 97       	sbiw	r28, 0x08	; 8
    2b6a:	0f b6       	in	r0, 0x3f	; 63
    2b6c:	f8 94       	cli
    2b6e:	de bf       	out	0x3e, r29	; 62
    2b70:	0f be       	out	0x3f, r0	; 63
    2b72:	cd bf       	out	0x3d, r28	; 61
    2b74:	9a 83       	std	Y+2, r25	; 0x02
    2b76:	89 83       	std	Y+1, r24	; 0x01
    2b78:	7c 83       	std	Y+4, r23	; 0x04
    2b7a:	6b 83       	std	Y+3, r22	; 0x03
    2b7c:	5e 83       	std	Y+6, r21	; 0x06
    2b7e:	4d 83       	std	Y+5, r20	; 0x05
    2b80:	38 87       	std	Y+8, r19	; 0x08
    2b82:	2f 83       	std	Y+7, r18	; 0x07
	pid->Proportion=P;
    2b84:	89 81       	ldd	r24, Y+1	; 0x01
    2b86:	9a 81       	ldd	r25, Y+2	; 0x02
    2b88:	aa 27       	eor	r26, r26
    2b8a:	97 fd       	sbrc	r25, 7
    2b8c:	a0 95       	com	r26
    2b8e:	ba 2f       	mov	r27, r26
    2b90:	bc 01       	movw	r22, r24
    2b92:	cd 01       	movw	r24, r26
    2b94:	0e 94 4c 2e 	call	0x5c98	; 0x5c98 <__floatsisf>
    2b98:	dc 01       	movw	r26, r24
    2b9a:	cb 01       	movw	r24, r22
    2b9c:	2f 81       	ldd	r18, Y+7	; 0x07
    2b9e:	38 85       	ldd	r19, Y+8	; 0x08
    2ba0:	f9 01       	movw	r30, r18
    2ba2:	84 83       	std	Z+4, r24	; 0x04
    2ba4:	95 83       	std	Z+5, r25	; 0x05
    2ba6:	a6 83       	std	Z+6, r26	; 0x06
    2ba8:	b7 83       	std	Z+7, r27	; 0x07
	pid->Integral=I;
    2baa:	8b 81       	ldd	r24, Y+3	; 0x03
    2bac:	9c 81       	ldd	r25, Y+4	; 0x04
    2bae:	aa 27       	eor	r26, r26
    2bb0:	97 fd       	sbrc	r25, 7
    2bb2:	a0 95       	com	r26
    2bb4:	ba 2f       	mov	r27, r26
    2bb6:	bc 01       	movw	r22, r24
    2bb8:	cd 01       	movw	r24, r26
    2bba:	0e 94 4c 2e 	call	0x5c98	; 0x5c98 <__floatsisf>
    2bbe:	dc 01       	movw	r26, r24
    2bc0:	cb 01       	movw	r24, r22
    2bc2:	2f 81       	ldd	r18, Y+7	; 0x07
    2bc4:	38 85       	ldd	r19, Y+8	; 0x08
    2bc6:	f9 01       	movw	r30, r18
    2bc8:	80 87       	std	Z+8, r24	; 0x08
    2bca:	91 87       	std	Z+9, r25	; 0x09
    2bcc:	a2 87       	std	Z+10, r26	; 0x0a
    2bce:	b3 87       	std	Z+11, r27	; 0x0b
	pid->Derivative=D;
    2bd0:	8d 81       	ldd	r24, Y+5	; 0x05
    2bd2:	9e 81       	ldd	r25, Y+6	; 0x06
    2bd4:	aa 27       	eor	r26, r26
    2bd6:	97 fd       	sbrc	r25, 7
    2bd8:	a0 95       	com	r26
    2bda:	ba 2f       	mov	r27, r26
    2bdc:	bc 01       	movw	r22, r24
    2bde:	cd 01       	movw	r24, r26
    2be0:	0e 94 4c 2e 	call	0x5c98	; 0x5c98 <__floatsisf>
    2be4:	dc 01       	movw	r26, r24
    2be6:	cb 01       	movw	r24, r22
    2be8:	2f 81       	ldd	r18, Y+7	; 0x07
    2bea:	38 85       	ldd	r19, Y+8	; 0x08
    2bec:	f9 01       	movw	r30, r18
    2bee:	84 87       	std	Z+12, r24	; 0x0c
    2bf0:	95 87       	std	Z+13, r25	; 0x0d
    2bf2:	a6 87       	std	Z+14, r26	; 0x0e
    2bf4:	b7 87       	std	Z+15, r27	; 0x0f
}
    2bf6:	28 96       	adiw	r28, 0x08	; 8
    2bf8:	0f b6       	in	r0, 0x3f	; 63
    2bfa:	f8 94       	cli
    2bfc:	de bf       	out	0x3e, r29	; 62
    2bfe:	0f be       	out	0x3f, r0	; 63
    2c00:	cd bf       	out	0x3d, r28	; 61
    2c02:	cf 91       	pop	r28
    2c04:	df 91       	pop	r29
    2c06:	08 95       	ret

00002c08 <pid_Calc>:

double pid_Calc(struct PID_DATA *pid,double NextPoint)
{
    2c08:	ef 92       	push	r14
    2c0a:	ff 92       	push	r15
    2c0c:	0f 93       	push	r16
    2c0e:	1f 93       	push	r17
    2c10:	df 93       	push	r29
    2c12:	cf 93       	push	r28
    2c14:	cd b7       	in	r28, 0x3d	; 61
    2c16:	de b7       	in	r29, 0x3e	; 62
    2c18:	2e 97       	sbiw	r28, 0x0e	; 14
    2c1a:	0f b6       	in	r0, 0x3f	; 63
    2c1c:	f8 94       	cli
    2c1e:	de bf       	out	0x3e, r29	; 62
    2c20:	0f be       	out	0x3f, r0	; 63
    2c22:	cd bf       	out	0x3d, r28	; 61
    2c24:	9a 87       	std	Y+10, r25	; 0x0a
    2c26:	89 87       	std	Y+9, r24	; 0x09
    2c28:	4b 87       	std	Y+11, r20	; 0x0b
    2c2a:	5c 87       	std	Y+12, r21	; 0x0c
    2c2c:	6d 87       	std	Y+13, r22	; 0x0d
    2c2e:	7e 87       	std	Y+14, r23	; 0x0e
	double dError,Error;
	Error = pid->SetPoint - NextPoint; // 
    2c30:	89 85       	ldd	r24, Y+9	; 0x09
    2c32:	9a 85       	ldd	r25, Y+10	; 0x0a
    2c34:	fc 01       	movw	r30, r24
    2c36:	80 81       	ld	r24, Z
    2c38:	91 81       	ldd	r25, Z+1	; 0x01
    2c3a:	a2 81       	ldd	r26, Z+2	; 0x02
    2c3c:	b3 81       	ldd	r27, Z+3	; 0x03
    2c3e:	bc 01       	movw	r22, r24
    2c40:	cd 01       	movw	r24, r26
    2c42:	2b 85       	ldd	r18, Y+11	; 0x0b
    2c44:	3c 85       	ldd	r19, Y+12	; 0x0c
    2c46:	4d 85       	ldd	r20, Y+13	; 0x0d
    2c48:	5e 85       	ldd	r21, Y+14	; 0x0e
    2c4a:	0e 94 1c 2d 	call	0x5a38	; 0x5a38 <__subsf3>
    2c4e:	dc 01       	movw	r26, r24
    2c50:	cb 01       	movw	r24, r22
    2c52:	89 83       	std	Y+1, r24	; 0x01
    2c54:	9a 83       	std	Y+2, r25	; 0x02
    2c56:	ab 83       	std	Y+3, r26	; 0x03
    2c58:	bc 83       	std	Y+4, r27	; 0x04
	pid->SumError += Error; // 
    2c5a:	89 85       	ldd	r24, Y+9	; 0x09
    2c5c:	9a 85       	ldd	r25, Y+10	; 0x0a
    2c5e:	fc 01       	movw	r30, r24
    2c60:	80 8d       	ldd	r24, Z+24	; 0x18
    2c62:	91 8d       	ldd	r25, Z+25	; 0x19
    2c64:	a2 8d       	ldd	r26, Z+26	; 0x1a
    2c66:	b3 8d       	ldd	r27, Z+27	; 0x1b
    2c68:	bc 01       	movw	r22, r24
    2c6a:	cd 01       	movw	r24, r26
    2c6c:	29 81       	ldd	r18, Y+1	; 0x01
    2c6e:	3a 81       	ldd	r19, Y+2	; 0x02
    2c70:	4b 81       	ldd	r20, Y+3	; 0x03
    2c72:	5c 81       	ldd	r21, Y+4	; 0x04
    2c74:	0e 94 1d 2d 	call	0x5a3a	; 0x5a3a <__addsf3>
    2c78:	dc 01       	movw	r26, r24
    2c7a:	cb 01       	movw	r24, r22
    2c7c:	29 85       	ldd	r18, Y+9	; 0x09
    2c7e:	3a 85       	ldd	r19, Y+10	; 0x0a
    2c80:	f9 01       	movw	r30, r18
    2c82:	80 8f       	std	Z+24, r24	; 0x18
    2c84:	91 8f       	std	Z+25, r25	; 0x19
    2c86:	a2 8f       	std	Z+26, r26	; 0x1a
    2c88:	b3 8f       	std	Z+27, r27	; 0x1b
	dError = pid->LastError - pid->PrevError; // 
    2c8a:	89 85       	ldd	r24, Y+9	; 0x09
    2c8c:	9a 85       	ldd	r25, Y+10	; 0x0a
    2c8e:	fc 01       	movw	r30, r24
    2c90:	80 89       	ldd	r24, Z+16	; 0x10
    2c92:	91 89       	ldd	r25, Z+17	; 0x11
    2c94:	a2 89       	ldd	r26, Z+18	; 0x12
    2c96:	b3 89       	ldd	r27, Z+19	; 0x13
    2c98:	29 85       	ldd	r18, Y+9	; 0x09
    2c9a:	3a 85       	ldd	r19, Y+10	; 0x0a
    2c9c:	f9 01       	movw	r30, r18
    2c9e:	24 89       	ldd	r18, Z+20	; 0x14
    2ca0:	35 89       	ldd	r19, Z+21	; 0x15
    2ca2:	46 89       	ldd	r20, Z+22	; 0x16
    2ca4:	57 89       	ldd	r21, Z+23	; 0x17
    2ca6:	bc 01       	movw	r22, r24
    2ca8:	cd 01       	movw	r24, r26
    2caa:	0e 94 1c 2d 	call	0x5a38	; 0x5a38 <__subsf3>
    2cae:	dc 01       	movw	r26, r24
    2cb0:	cb 01       	movw	r24, r22
    2cb2:	8d 83       	std	Y+5, r24	; 0x05
    2cb4:	9e 83       	std	Y+6, r25	; 0x06
    2cb6:	af 83       	std	Y+7, r26	; 0x07
    2cb8:	b8 87       	std	Y+8, r27	; 0x08
	pid->PrevError = pid->LastError; //e(k-1)
    2cba:	89 85       	ldd	r24, Y+9	; 0x09
    2cbc:	9a 85       	ldd	r25, Y+10	; 0x0a
    2cbe:	fc 01       	movw	r30, r24
    2cc0:	80 89       	ldd	r24, Z+16	; 0x10
    2cc2:	91 89       	ldd	r25, Z+17	; 0x11
    2cc4:	a2 89       	ldd	r26, Z+18	; 0x12
    2cc6:	b3 89       	ldd	r27, Z+19	; 0x13
    2cc8:	29 85       	ldd	r18, Y+9	; 0x09
    2cca:	3a 85       	ldd	r19, Y+10	; 0x0a
    2ccc:	f9 01       	movw	r30, r18
    2cce:	84 8b       	std	Z+20, r24	; 0x14
    2cd0:	95 8b       	std	Z+21, r25	; 0x15
    2cd2:	a6 8b       	std	Z+22, r26	; 0x16
    2cd4:	b7 8b       	std	Z+23, r27	; 0x17
	pid->LastError = Error;     //e(k)
    2cd6:	29 85       	ldd	r18, Y+9	; 0x09
    2cd8:	3a 85       	ldd	r19, Y+10	; 0x0a
    2cda:	89 81       	ldd	r24, Y+1	; 0x01
    2cdc:	9a 81       	ldd	r25, Y+2	; 0x02
    2cde:	ab 81       	ldd	r26, Y+3	; 0x03
    2ce0:	bc 81       	ldd	r27, Y+4	; 0x04
    2ce2:	f9 01       	movw	r30, r18
    2ce4:	80 8b       	std	Z+16, r24	; 0x10
    2ce6:	91 8b       	std	Z+17, r25	; 0x11
    2ce8:	a2 8b       	std	Z+18, r26	; 0x12
    2cea:	b3 8b       	std	Z+19, r27	; 0x13
	/* u(k)=Kp*e(k) + Ki*[e(0)+e(1)+...+e(k)] + Kd*[e(k)-e(k-1) + u0] */
	return (pid->Proportion * Error + pid->Integral * pid->SumError + pid->Derivative * dError); //PIDu0=0
    2cec:	89 85       	ldd	r24, Y+9	; 0x09
    2cee:	9a 85       	ldd	r25, Y+10	; 0x0a
    2cf0:	fc 01       	movw	r30, r24
    2cf2:	84 81       	ldd	r24, Z+4	; 0x04
    2cf4:	95 81       	ldd	r25, Z+5	; 0x05
    2cf6:	a6 81       	ldd	r26, Z+6	; 0x06
    2cf8:	b7 81       	ldd	r27, Z+7	; 0x07
    2cfa:	bc 01       	movw	r22, r24
    2cfc:	cd 01       	movw	r24, r26
    2cfe:	29 81       	ldd	r18, Y+1	; 0x01
    2d00:	3a 81       	ldd	r19, Y+2	; 0x02
    2d02:	4b 81       	ldd	r20, Y+3	; 0x03
    2d04:	5c 81       	ldd	r21, Y+4	; 0x04
    2d06:	0e 94 da 2f 	call	0x5fb4	; 0x5fb4 <__mulsf3>
    2d0a:	dc 01       	movw	r26, r24
    2d0c:	cb 01       	movw	r24, r22
    2d0e:	7c 01       	movw	r14, r24
    2d10:	8d 01       	movw	r16, r26
    2d12:	89 85       	ldd	r24, Y+9	; 0x09
    2d14:	9a 85       	ldd	r25, Y+10	; 0x0a
    2d16:	fc 01       	movw	r30, r24
    2d18:	80 85       	ldd	r24, Z+8	; 0x08
    2d1a:	91 85       	ldd	r25, Z+9	; 0x09
    2d1c:	a2 85       	ldd	r26, Z+10	; 0x0a
    2d1e:	b3 85       	ldd	r27, Z+11	; 0x0b
    2d20:	29 85       	ldd	r18, Y+9	; 0x09
    2d22:	3a 85       	ldd	r19, Y+10	; 0x0a
    2d24:	f9 01       	movw	r30, r18
    2d26:	20 8d       	ldd	r18, Z+24	; 0x18
    2d28:	31 8d       	ldd	r19, Z+25	; 0x19
    2d2a:	42 8d       	ldd	r20, Z+26	; 0x1a
    2d2c:	53 8d       	ldd	r21, Z+27	; 0x1b
    2d2e:	bc 01       	movw	r22, r24
    2d30:	cd 01       	movw	r24, r26
    2d32:	0e 94 da 2f 	call	0x5fb4	; 0x5fb4 <__mulsf3>
    2d36:	dc 01       	movw	r26, r24
    2d38:	cb 01       	movw	r24, r22
    2d3a:	9c 01       	movw	r18, r24
    2d3c:	ad 01       	movw	r20, r26
    2d3e:	c8 01       	movw	r24, r16
    2d40:	b7 01       	movw	r22, r14
    2d42:	0e 94 1d 2d 	call	0x5a3a	; 0x5a3a <__addsf3>
    2d46:	dc 01       	movw	r26, r24
    2d48:	cb 01       	movw	r24, r22
    2d4a:	7c 01       	movw	r14, r24
    2d4c:	8d 01       	movw	r16, r26
    2d4e:	89 85       	ldd	r24, Y+9	; 0x09
    2d50:	9a 85       	ldd	r25, Y+10	; 0x0a
    2d52:	fc 01       	movw	r30, r24
    2d54:	84 85       	ldd	r24, Z+12	; 0x0c
    2d56:	95 85       	ldd	r25, Z+13	; 0x0d
    2d58:	a6 85       	ldd	r26, Z+14	; 0x0e
    2d5a:	b7 85       	ldd	r27, Z+15	; 0x0f
    2d5c:	bc 01       	movw	r22, r24
    2d5e:	cd 01       	movw	r24, r26
    2d60:	2d 81       	ldd	r18, Y+5	; 0x05
    2d62:	3e 81       	ldd	r19, Y+6	; 0x06
    2d64:	4f 81       	ldd	r20, Y+7	; 0x07
    2d66:	58 85       	ldd	r21, Y+8	; 0x08
    2d68:	0e 94 da 2f 	call	0x5fb4	; 0x5fb4 <__mulsf3>
    2d6c:	dc 01       	movw	r26, r24
    2d6e:	cb 01       	movw	r24, r22
    2d70:	9c 01       	movw	r18, r24
    2d72:	ad 01       	movw	r20, r26
    2d74:	c8 01       	movw	r24, r16
    2d76:	b7 01       	movw	r22, r14
    2d78:	0e 94 1d 2d 	call	0x5a3a	; 0x5a3a <__addsf3>
    2d7c:	dc 01       	movw	r26, r24
    2d7e:	cb 01       	movw	r24, r22
    2d80:	bc 01       	movw	r22, r24
    2d82:	cd 01       	movw	r24, r26
    2d84:	2e 96       	adiw	r28, 0x0e	; 14
    2d86:	0f b6       	in	r0, 0x3f	; 63
    2d88:	f8 94       	cli
    2d8a:	de bf       	out	0x3e, r29	; 62
    2d8c:	0f be       	out	0x3f, r0	; 63
    2d8e:	cd bf       	out	0x3d, r28	; 61
    2d90:	cf 91       	pop	r28
    2d92:	df 91       	pop	r29
    2d94:	1f 91       	pop	r17
    2d96:	0f 91       	pop	r16
    2d98:	ff 90       	pop	r15
    2d9a:	ef 90       	pop	r14
    2d9c:	08 95       	ret

00002d9e <LCD_Writ_Bus>:
#include <avr/pgmspace.h>

unsigned int BACK_COLOR, POINT_COLOR;

void LCD_Writ_Bus(char VH,char VL) 
{
    2d9e:	df 93       	push	r29
    2da0:	cf 93       	push	r28
    2da2:	00 d0       	rcall	.+0      	; 0x2da4 <LCD_Writ_Bus+0x6>
    2da4:	cd b7       	in	r28, 0x3d	; 61
    2da6:	de b7       	in	r29, 0x3e	; 62
    2da8:	89 83       	std	Y+1, r24	; 0x01
    2daa:	6a 83       	std	Y+2, r22	; 0x02
	DATAH=VH;
    2dac:	85 e3       	ldi	r24, 0x35	; 53
    2dae:	90 e0       	ldi	r25, 0x00	; 0
    2db0:	29 81       	ldd	r18, Y+1	; 0x01
    2db2:	fc 01       	movw	r30, r24
    2db4:	20 83       	st	Z, r18
	DATAL=VL;
    2db6:	8b e3       	ldi	r24, 0x3B	; 59
    2db8:	90 e0       	ldi	r25, 0x00	; 0
    2dba:	2a 81       	ldd	r18, Y+2	; 0x02
    2dbc:	fc 01       	movw	r30, r24
    2dbe:	20 83       	st	Z, r18
	LCD_WR_L;
    2dc0:	85 e6       	ldi	r24, 0x65	; 101
    2dc2:	90 e0       	ldi	r25, 0x00	; 0
    2dc4:	25 e6       	ldi	r18, 0x65	; 101
    2dc6:	30 e0       	ldi	r19, 0x00	; 0
    2dc8:	f9 01       	movw	r30, r18
    2dca:	20 81       	ld	r18, Z
    2dcc:	2d 7f       	andi	r18, 0xFD	; 253
    2dce:	fc 01       	movw	r30, r24
    2dd0:	20 83       	st	Z, r18
	LCD_WR_H;
    2dd2:	85 e6       	ldi	r24, 0x65	; 101
    2dd4:	90 e0       	ldi	r25, 0x00	; 0
    2dd6:	25 e6       	ldi	r18, 0x65	; 101
    2dd8:	30 e0       	ldi	r19, 0x00	; 0
    2dda:	f9 01       	movw	r30, r18
    2ddc:	20 81       	ld	r18, Z
    2dde:	22 60       	ori	r18, 0x02	; 2
    2de0:	fc 01       	movw	r30, r24
    2de2:	20 83       	st	Z, r18
}
    2de4:	0f 90       	pop	r0
    2de6:	0f 90       	pop	r0
    2de8:	cf 91       	pop	r28
    2dea:	df 91       	pop	r29
    2dec:	08 95       	ret

00002dee <LCD_WR_DATA>:

void LCD_WR_DATA(int da)
{
    2dee:	df 93       	push	r29
    2df0:	cf 93       	push	r28
    2df2:	00 d0       	rcall	.+0      	; 0x2df4 <LCD_WR_DATA+0x6>
    2df4:	cd b7       	in	r28, 0x3d	; 61
    2df6:	de b7       	in	r29, 0x3e	; 62
    2df8:	9a 83       	std	Y+2, r25	; 0x02
    2dfa:	89 83       	std	Y+1, r24	; 0x01
    LCD_RS_H;
    2dfc:	85 e6       	ldi	r24, 0x65	; 101
    2dfe:	90 e0       	ldi	r25, 0x00	; 0
    2e00:	25 e6       	ldi	r18, 0x65	; 101
    2e02:	30 e0       	ldi	r19, 0x00	; 0
    2e04:	f9 01       	movw	r30, r18
    2e06:	20 81       	ld	r18, Z
    2e08:	21 60       	ori	r18, 0x01	; 1
    2e0a:	fc 01       	movw	r30, r24
    2e0c:	20 83       	st	Z, r18
	LCD_Writ_Bus(da>>8,da);
    2e0e:	89 81       	ldd	r24, Y+1	; 0x01
    2e10:	9a 81       	ldd	r25, Y+2	; 0x02
    2e12:	89 2f       	mov	r24, r25
    2e14:	99 0f       	add	r25, r25
    2e16:	99 0b       	sbc	r25, r25
    2e18:	99 81       	ldd	r25, Y+1	; 0x01
    2e1a:	69 2f       	mov	r22, r25
    2e1c:	0e 94 cf 16 	call	0x2d9e	; 0x2d9e <LCD_Writ_Bus>
}
    2e20:	0f 90       	pop	r0
    2e22:	0f 90       	pop	r0
    2e24:	cf 91       	pop	r28
    2e26:	df 91       	pop	r29
    2e28:	08 95       	ret

00002e2a <LCD_WR_REG>:

void LCD_WR_REG(int da)
{
    2e2a:	df 93       	push	r29
    2e2c:	cf 93       	push	r28
    2e2e:	00 d0       	rcall	.+0      	; 0x2e30 <LCD_WR_REG+0x6>
    2e30:	cd b7       	in	r28, 0x3d	; 61
    2e32:	de b7       	in	r29, 0x3e	; 62
    2e34:	9a 83       	std	Y+2, r25	; 0x02
    2e36:	89 83       	std	Y+1, r24	; 0x01
    LCD_RS_L;
    2e38:	85 e6       	ldi	r24, 0x65	; 101
    2e3a:	90 e0       	ldi	r25, 0x00	; 0
    2e3c:	25 e6       	ldi	r18, 0x65	; 101
    2e3e:	30 e0       	ldi	r19, 0x00	; 0
    2e40:	f9 01       	movw	r30, r18
    2e42:	20 81       	ld	r18, Z
    2e44:	2e 7f       	andi	r18, 0xFE	; 254
    2e46:	fc 01       	movw	r30, r24
    2e48:	20 83       	st	Z, r18
	LCD_Writ_Bus(da>>8,da);
    2e4a:	89 81       	ldd	r24, Y+1	; 0x01
    2e4c:	9a 81       	ldd	r25, Y+2	; 0x02
    2e4e:	89 2f       	mov	r24, r25
    2e50:	99 0f       	add	r25, r25
    2e52:	99 0b       	sbc	r25, r25
    2e54:	99 81       	ldd	r25, Y+1	; 0x01
    2e56:	69 2f       	mov	r22, r25
    2e58:	0e 94 cf 16 	call	0x2d9e	; 0x2d9e <LCD_Writ_Bus>
}
    2e5c:	0f 90       	pop	r0
    2e5e:	0f 90       	pop	r0
    2e60:	cf 91       	pop	r28
    2e62:	df 91       	pop	r29
    2e64:	08 95       	ret

00002e66 <LCD_WR_REG_DATA>:

void LCD_WR_REG_DATA(int reg,int da)
{
    2e66:	df 93       	push	r29
    2e68:	cf 93       	push	r28
    2e6a:	00 d0       	rcall	.+0      	; 0x2e6c <LCD_WR_REG_DATA+0x6>
    2e6c:	00 d0       	rcall	.+0      	; 0x2e6e <LCD_WR_REG_DATA+0x8>
    2e6e:	cd b7       	in	r28, 0x3d	; 61
    2e70:	de b7       	in	r29, 0x3e	; 62
    2e72:	9a 83       	std	Y+2, r25	; 0x02
    2e74:	89 83       	std	Y+1, r24	; 0x01
    2e76:	7c 83       	std	Y+4, r23	; 0x04
    2e78:	6b 83       	std	Y+3, r22	; 0x03
    LCD_WR_REG(reg);
    2e7a:	89 81       	ldd	r24, Y+1	; 0x01
    2e7c:	9a 81       	ldd	r25, Y+2	; 0x02
    2e7e:	0e 94 15 17 	call	0x2e2a	; 0x2e2a <LCD_WR_REG>
	LCD_WR_DATA(da);
    2e82:	8b 81       	ldd	r24, Y+3	; 0x03
    2e84:	9c 81       	ldd	r25, Y+4	; 0x04
    2e86:	0e 94 f7 16 	call	0x2dee	; 0x2dee <LCD_WR_DATA>
}
    2e8a:	0f 90       	pop	r0
    2e8c:	0f 90       	pop	r0
    2e8e:	0f 90       	pop	r0
    2e90:	0f 90       	pop	r0
    2e92:	cf 91       	pop	r28
    2e94:	df 91       	pop	r29
    2e96:	08 95       	ret

00002e98 <Address_set>:

void Address_set(unsigned int x1,unsigned int y1,unsigned int x2,unsigned int y2)
{
    2e98:	df 93       	push	r29
    2e9a:	cf 93       	push	r28
    2e9c:	cd b7       	in	r28, 0x3d	; 61
    2e9e:	de b7       	in	r29, 0x3e	; 62
    2ea0:	28 97       	sbiw	r28, 0x08	; 8
    2ea2:	0f b6       	in	r0, 0x3f	; 63
    2ea4:	f8 94       	cli
    2ea6:	de bf       	out	0x3e, r29	; 62
    2ea8:	0f be       	out	0x3f, r0	; 63
    2eaa:	cd bf       	out	0x3d, r28	; 61
    2eac:	9a 83       	std	Y+2, r25	; 0x02
    2eae:	89 83       	std	Y+1, r24	; 0x01
    2eb0:	7c 83       	std	Y+4, r23	; 0x04
    2eb2:	6b 83       	std	Y+3, r22	; 0x03
    2eb4:	5e 83       	std	Y+6, r21	; 0x06
    2eb6:	4d 83       	std	Y+5, r20	; 0x05
    2eb8:	38 87       	std	Y+8, r19	; 0x08
    2eba:	2f 83       	std	Y+7, r18	; 0x07
	LCD_WR_REG(0x002A);
    2ebc:	8a e2       	ldi	r24, 0x2A	; 42
    2ebe:	90 e0       	ldi	r25, 0x00	; 0
    2ec0:	0e 94 15 17 	call	0x2e2a	; 0x2e2a <LCD_WR_REG>
	LCD_WR_DATA(x1>>8);
    2ec4:	89 81       	ldd	r24, Y+1	; 0x01
    2ec6:	9a 81       	ldd	r25, Y+2	; 0x02
    2ec8:	89 2f       	mov	r24, r25
    2eca:	99 27       	eor	r25, r25
    2ecc:	0e 94 f7 16 	call	0x2dee	; 0x2dee <LCD_WR_DATA>
	LCD_WR_DATA(x1&0x00ff);
    2ed0:	89 81       	ldd	r24, Y+1	; 0x01
    2ed2:	9a 81       	ldd	r25, Y+2	; 0x02
    2ed4:	90 70       	andi	r25, 0x00	; 0
    2ed6:	0e 94 f7 16 	call	0x2dee	; 0x2dee <LCD_WR_DATA>
	LCD_WR_DATA(x2>>8);
    2eda:	8d 81       	ldd	r24, Y+5	; 0x05
    2edc:	9e 81       	ldd	r25, Y+6	; 0x06
    2ede:	89 2f       	mov	r24, r25
    2ee0:	99 27       	eor	r25, r25
    2ee2:	0e 94 f7 16 	call	0x2dee	; 0x2dee <LCD_WR_DATA>
	LCD_WR_DATA(x2&0x00ff);
    2ee6:	8d 81       	ldd	r24, Y+5	; 0x05
    2ee8:	9e 81       	ldd	r25, Y+6	; 0x06
    2eea:	90 70       	andi	r25, 0x00	; 0
    2eec:	0e 94 f7 16 	call	0x2dee	; 0x2dee <LCD_WR_DATA>
    LCD_WR_REG(0x002b);
    2ef0:	8b e2       	ldi	r24, 0x2B	; 43
    2ef2:	90 e0       	ldi	r25, 0x00	; 0
    2ef4:	0e 94 15 17 	call	0x2e2a	; 0x2e2a <LCD_WR_REG>
	LCD_WR_DATA(y1>>8);
    2ef8:	8b 81       	ldd	r24, Y+3	; 0x03
    2efa:	9c 81       	ldd	r25, Y+4	; 0x04
    2efc:	89 2f       	mov	r24, r25
    2efe:	99 27       	eor	r25, r25
    2f00:	0e 94 f7 16 	call	0x2dee	; 0x2dee <LCD_WR_DATA>
	LCD_WR_DATA(y1&0x00ff);
    2f04:	8b 81       	ldd	r24, Y+3	; 0x03
    2f06:	9c 81       	ldd	r25, Y+4	; 0x04
    2f08:	90 70       	andi	r25, 0x00	; 0
    2f0a:	0e 94 f7 16 	call	0x2dee	; 0x2dee <LCD_WR_DATA>
	LCD_WR_DATA(y2>>8);
    2f0e:	8f 81       	ldd	r24, Y+7	; 0x07
    2f10:	98 85       	ldd	r25, Y+8	; 0x08
    2f12:	89 2f       	mov	r24, r25
    2f14:	99 27       	eor	r25, r25
    2f16:	0e 94 f7 16 	call	0x2dee	; 0x2dee <LCD_WR_DATA>
	LCD_WR_DATA(y2&0x00ff);
    2f1a:	8f 81       	ldd	r24, Y+7	; 0x07
    2f1c:	98 85       	ldd	r25, Y+8	; 0x08
    2f1e:	90 70       	andi	r25, 0x00	; 0
    2f20:	0e 94 f7 16 	call	0x2dee	; 0x2dee <LCD_WR_DATA>
	LCD_WR_REG(0x002c);
    2f24:	8c e2       	ldi	r24, 0x2C	; 44
    2f26:	90 e0       	ldi	r25, 0x00	; 0
    2f28:	0e 94 15 17 	call	0x2e2a	; 0x2e2a <LCD_WR_REG>
}
    2f2c:	28 96       	adiw	r28, 0x08	; 8
    2f2e:	0f b6       	in	r0, 0x3f	; 63
    2f30:	f8 94       	cli
    2f32:	de bf       	out	0x3e, r29	; 62
    2f34:	0f be       	out	0x3f, r0	; 63
    2f36:	cd bf       	out	0x3d, r28	; 61
    2f38:	cf 91       	pop	r28
    2f3a:	df 91       	pop	r29
    2f3c:	08 95       	ret

00002f3e <Lcd_Init>:

void Lcd_Init(void)
{
    2f3e:	df 93       	push	r29
    2f40:	cf 93       	push	r28
    2f42:	cd b7       	in	r28, 0x3d	; 61
    2f44:	de b7       	in	r29, 0x3e	; 62
   	LCD_CS_H;
    2f46:	82 e3       	ldi	r24, 0x32	; 50
    2f48:	90 e0       	ldi	r25, 0x00	; 0
    2f4a:	22 e3       	ldi	r18, 0x32	; 50
    2f4c:	30 e0       	ldi	r19, 0x00	; 0
    2f4e:	f9 01       	movw	r30, r18
    2f50:	20 81       	ld	r18, Z
    2f52:	21 60       	ori	r18, 0x01	; 1
    2f54:	fc 01       	movw	r30, r24
    2f56:	20 83       	st	Z, r18
    LCD_REST_H;
    2f58:	85 e6       	ldi	r24, 0x65	; 101
    2f5a:	90 e0       	ldi	r25, 0x00	; 0
    2f5c:	25 e6       	ldi	r18, 0x65	; 101
    2f5e:	30 e0       	ldi	r19, 0x00	; 0
    2f60:	f9 01       	movw	r30, r18
    2f62:	20 81       	ld	r18, Z
    2f64:	20 61       	ori	r18, 0x10	; 16
    2f66:	fc 01       	movw	r30, r24
    2f68:	20 83       	st	Z, r18
    delayms(5);	
    2f6a:	85 e0       	ldi	r24, 0x05	; 5
    2f6c:	90 e0       	ldi	r25, 0x00	; 0
    2f6e:	0e 94 f1 0d 	call	0x1be2	; 0x1be2 <delayms>
	LCD_REST_L;
    2f72:	85 e6       	ldi	r24, 0x65	; 101
    2f74:	90 e0       	ldi	r25, 0x00	; 0
    2f76:	25 e6       	ldi	r18, 0x65	; 101
    2f78:	30 e0       	ldi	r19, 0x00	; 0
    2f7a:	f9 01       	movw	r30, r18
    2f7c:	20 81       	ld	r18, Z
    2f7e:	2f 7e       	andi	r18, 0xEF	; 239
    2f80:	fc 01       	movw	r30, r24
    2f82:	20 83       	st	Z, r18
	delayms(5);	
    2f84:	85 e0       	ldi	r24, 0x05	; 5
    2f86:	90 e0       	ldi	r25, 0x00	; 0
    2f88:	0e 94 f1 0d 	call	0x1be2	; 0x1be2 <delayms>
	LCD_REST_H;
    2f8c:	85 e6       	ldi	r24, 0x65	; 101
    2f8e:	90 e0       	ldi	r25, 0x00	; 0
    2f90:	25 e6       	ldi	r18, 0x65	; 101
    2f92:	30 e0       	ldi	r19, 0x00	; 0
    2f94:	f9 01       	movw	r30, r18
    2f96:	20 81       	ld	r18, Z
    2f98:	20 61       	ori	r18, 0x10	; 16
    2f9a:	fc 01       	movw	r30, r24
    2f9c:	20 83       	st	Z, r18
	LCD_CS_H;
    2f9e:	82 e3       	ldi	r24, 0x32	; 50
    2fa0:	90 e0       	ldi	r25, 0x00	; 0
    2fa2:	22 e3       	ldi	r18, 0x32	; 50
    2fa4:	30 e0       	ldi	r19, 0x00	; 0
    2fa6:	f9 01       	movw	r30, r18
    2fa8:	20 81       	ld	r18, Z
    2faa:	21 60       	ori	r18, 0x01	; 1
    2fac:	fc 01       	movw	r30, r24
    2fae:	20 83       	st	Z, r18
	LCD_RD_H;
    2fb0:	85 e6       	ldi	r24, 0x65	; 101
    2fb2:	90 e0       	ldi	r25, 0x00	; 0
    2fb4:	25 e6       	ldi	r18, 0x65	; 101
    2fb6:	30 e0       	ldi	r19, 0x00	; 0
    2fb8:	f9 01       	movw	r30, r18
    2fba:	20 81       	ld	r18, Z
    2fbc:	24 60       	ori	r18, 0x04	; 4
    2fbe:	fc 01       	movw	r30, r24
    2fc0:	20 83       	st	Z, r18
	LCD_WR_H;
    2fc2:	85 e6       	ldi	r24, 0x65	; 101
    2fc4:	90 e0       	ldi	r25, 0x00	; 0
    2fc6:	25 e6       	ldi	r18, 0x65	; 101
    2fc8:	30 e0       	ldi	r19, 0x00	; 0
    2fca:	f9 01       	movw	r30, r18
    2fcc:	20 81       	ld	r18, Z
    2fce:	22 60       	ori	r18, 0x02	; 2
    2fd0:	fc 01       	movw	r30, r24
    2fd2:	20 83       	st	Z, r18
	delayms(5);	
    2fd4:	85 e0       	ldi	r24, 0x05	; 5
    2fd6:	90 e0       	ldi	r25, 0x00	; 0
    2fd8:	0e 94 f1 0d 	call	0x1be2	; 0x1be2 <delayms>
	LCD_CS_L;  //
    2fdc:	82 e3       	ldi	r24, 0x32	; 50
    2fde:	90 e0       	ldi	r25, 0x00	; 0
    2fe0:	22 e3       	ldi	r18, 0x32	; 50
    2fe2:	30 e0       	ldi	r19, 0x00	; 0
    2fe4:	f9 01       	movw	r30, r18
    2fe6:	20 81       	ld	r18, Z
    2fe8:	2e 7f       	andi	r18, 0xFE	; 254
    2fea:	fc 01       	movw	r30, r24
    2fec:	20 83       	st	Z, r18

	LCD_WR_REG(0x00E2);	//PLL multiplier, set PLL clock to 120M
    2fee:	82 ee       	ldi	r24, 0xE2	; 226
    2ff0:	90 e0       	ldi	r25, 0x00	; 0
    2ff2:	0e 94 15 17 	call	0x2e2a	; 0x2e2a <LCD_WR_REG>
	LCD_WR_DATA(0x002d);	    //N=0x36 for 6.5M, 0x23 for 10M crystal
    2ff6:	8d e2       	ldi	r24, 0x2D	; 45
    2ff8:	90 e0       	ldi	r25, 0x00	; 0
    2ffa:	0e 94 f7 16 	call	0x2dee	; 0x2dee <LCD_WR_DATA>
	LCD_WR_DATA(0x0002);
    2ffe:	82 e0       	ldi	r24, 0x02	; 2
    3000:	90 e0       	ldi	r25, 0x00	; 0
    3002:	0e 94 f7 16 	call	0x2dee	; 0x2dee <LCD_WR_DATA>
	LCD_WR_DATA(0x0004);
    3006:	84 e0       	ldi	r24, 0x04	; 4
    3008:	90 e0       	ldi	r25, 0x00	; 0
    300a:	0e 94 f7 16 	call	0x2dee	; 0x2dee <LCD_WR_DATA>
	LCD_WR_REG(0x00E0);  // PLL enable
    300e:	80 ee       	ldi	r24, 0xE0	; 224
    3010:	90 e0       	ldi	r25, 0x00	; 0
    3012:	0e 94 15 17 	call	0x2e2a	; 0x2e2a <LCD_WR_REG>
	LCD_WR_DATA(0x0001);
    3016:	81 e0       	ldi	r24, 0x01	; 1
    3018:	90 e0       	ldi	r25, 0x00	; 0
    301a:	0e 94 f7 16 	call	0x2dee	; 0x2dee <LCD_WR_DATA>
	delayms(1);	
    301e:	81 e0       	ldi	r24, 0x01	; 1
    3020:	90 e0       	ldi	r25, 0x00	; 0
    3022:	0e 94 f1 0d 	call	0x1be2	; 0x1be2 <delayms>
	LCD_WR_REG(0x00E0);
    3026:	80 ee       	ldi	r24, 0xE0	; 224
    3028:	90 e0       	ldi	r25, 0x00	; 0
    302a:	0e 94 15 17 	call	0x2e2a	; 0x2e2a <LCD_WR_REG>
	LCD_WR_DATA(0x0003);
    302e:	83 e0       	ldi	r24, 0x03	; 3
    3030:	90 e0       	ldi	r25, 0x00	; 0
    3032:	0e 94 f7 16 	call	0x2dee	; 0x2dee <LCD_WR_DATA>
	delayms(5);	
    3036:	85 e0       	ldi	r24, 0x05	; 5
    3038:	90 e0       	ldi	r25, 0x00	; 0
    303a:	0e 94 f1 0d 	call	0x1be2	; 0x1be2 <delayms>
	LCD_WR_REG(0x0001);  // software reset
    303e:	81 e0       	ldi	r24, 0x01	; 1
    3040:	90 e0       	ldi	r25, 0x00	; 0
    3042:	0e 94 15 17 	call	0x2e2a	; 0x2e2a <LCD_WR_REG>
	delayms(5);	
    3046:	85 e0       	ldi	r24, 0x05	; 5
    3048:	90 e0       	ldi	r25, 0x00	; 0
    304a:	0e 94 f1 0d 	call	0x1be2	; 0x1be2 <delayms>
	LCD_WR_REG(0x00E6);	//PLL setting for PCLK, depends on resolution
    304e:	86 ee       	ldi	r24, 0xE6	; 230
    3050:	90 e0       	ldi	r25, 0x00	; 0
    3052:	0e 94 15 17 	call	0x2e2a	; 0x2e2a <LCD_WR_REG>
	LCD_WR_DATA(0x0000);
    3056:	80 e0       	ldi	r24, 0x00	; 0
    3058:	90 e0       	ldi	r25, 0x00	; 0
    305a:	0e 94 f7 16 	call	0x2dee	; 0x2dee <LCD_WR_DATA>
	LCD_WR_DATA(0x00ff);
    305e:	8f ef       	ldi	r24, 0xFF	; 255
    3060:	90 e0       	ldi	r25, 0x00	; 0
    3062:	0e 94 f7 16 	call	0x2dee	; 0x2dee <LCD_WR_DATA>
	LCD_WR_DATA(0x00be);
    3066:	8e eb       	ldi	r24, 0xBE	; 190
    3068:	90 e0       	ldi	r25, 0x00	; 0
    306a:	0e 94 f7 16 	call	0x2dee	; 0x2dee <LCD_WR_DATA>

	LCD_WR_REG(0x00B0);	//LCD SPECIFICATION
    306e:	80 eb       	ldi	r24, 0xB0	; 176
    3070:	90 e0       	ldi	r25, 0x00	; 0
    3072:	0e 94 15 17 	call	0x2e2a	; 0x2e2a <LCD_WR_REG>
	LCD_WR_DATA(0x0020);
    3076:	80 e2       	ldi	r24, 0x20	; 32
    3078:	90 e0       	ldi	r25, 0x00	; 0
    307a:	0e 94 f7 16 	call	0x2dee	; 0x2dee <LCD_WR_DATA>
	LCD_WR_DATA(0x0000);
    307e:	80 e0       	ldi	r24, 0x00	; 0
    3080:	90 e0       	ldi	r25, 0x00	; 0
    3082:	0e 94 f7 16 	call	0x2dee	; 0x2dee <LCD_WR_DATA>
	LCD_WR_DATA((HDP>>8)&0X00FF);  //Set HDP
    3086:	81 e0       	ldi	r24, 0x01	; 1
    3088:	90 e0       	ldi	r25, 0x00	; 0
    308a:	0e 94 f7 16 	call	0x2dee	; 0x2dee <LCD_WR_DATA>
	LCD_WR_DATA(HDP&0X00FF);
    308e:	8f ed       	ldi	r24, 0xDF	; 223
    3090:	90 e0       	ldi	r25, 0x00	; 0
    3092:	0e 94 f7 16 	call	0x2dee	; 0x2dee <LCD_WR_DATA>
    LCD_WR_DATA((VDP>>8)&0X00FF);  //Set VDP
    3096:	81 e0       	ldi	r24, 0x01	; 1
    3098:	90 e0       	ldi	r25, 0x00	; 0
    309a:	0e 94 f7 16 	call	0x2dee	; 0x2dee <LCD_WR_DATA>
	LCD_WR_DATA(VDP&0X00FF);
    309e:	8f e0       	ldi	r24, 0x0F	; 15
    30a0:	90 e0       	ldi	r25, 0x00	; 0
    30a2:	0e 94 f7 16 	call	0x2dee	; 0x2dee <LCD_WR_DATA>
    LCD_WR_DATA(0x0000);
    30a6:	80 e0       	ldi	r24, 0x00	; 0
    30a8:	90 e0       	ldi	r25, 0x00	; 0
    30aa:	0e 94 f7 16 	call	0x2dee	; 0x2dee <LCD_WR_DATA>
	delayms(5);	
    30ae:	85 e0       	ldi	r24, 0x05	; 5
    30b0:	90 e0       	ldi	r25, 0x00	; 0
    30b2:	0e 94 f1 0d 	call	0x1be2	; 0x1be2 <delayms>

	LCD_WR_REG(0x00B4);	//HSYNC
    30b6:	84 eb       	ldi	r24, 0xB4	; 180
    30b8:	90 e0       	ldi	r25, 0x00	; 0
    30ba:	0e 94 15 17 	call	0x2e2a	; 0x2e2a <LCD_WR_REG>
	LCD_WR_DATA((HT>>8)&0X00FF);  //Set HT
    30be:	82 e0       	ldi	r24, 0x02	; 2
    30c0:	90 e0       	ldi	r25, 0x00	; 0
    30c2:	0e 94 f7 16 	call	0x2dee	; 0x2dee <LCD_WR_DATA>
	LCD_WR_DATA(HT&0X00FF);
    30c6:	83 e1       	ldi	r24, 0x13	; 19
    30c8:	90 e0       	ldi	r25, 0x00	; 0
    30ca:	0e 94 f7 16 	call	0x2dee	; 0x2dee <LCD_WR_DATA>
	LCD_WR_DATA((HPS>>8)&0X00FF);  //Set HPS
    30ce:	80 e0       	ldi	r24, 0x00	; 0
    30d0:	90 e0       	ldi	r25, 0x00	; 0
    30d2:	0e 94 f7 16 	call	0x2dee	; 0x2dee <LCD_WR_DATA>
	LCD_WR_DATA(HPS&0X00FF);
    30d6:	8b e2       	ldi	r24, 0x2B	; 43
    30d8:	90 e0       	ldi	r25, 0x00	; 0
    30da:	0e 94 f7 16 	call	0x2dee	; 0x2dee <LCD_WR_DATA>
	LCD_WR_DATA(HPW);			   //Set HPW
    30de:	8a e0       	ldi	r24, 0x0A	; 10
    30e0:	90 e0       	ldi	r25, 0x00	; 0
    30e2:	0e 94 f7 16 	call	0x2dee	; 0x2dee <LCD_WR_DATA>
	LCD_WR_DATA((LPS>>8)&0X00FF);  //SetLPS
    30e6:	80 e0       	ldi	r24, 0x00	; 0
    30e8:	90 e0       	ldi	r25, 0x00	; 0
    30ea:	0e 94 f7 16 	call	0x2dee	; 0x2dee <LCD_WR_DATA>
	LCD_WR_DATA(LPS&0X00FF);
    30ee:	88 e0       	ldi	r24, 0x08	; 8
    30f0:	90 e0       	ldi	r25, 0x00	; 0
    30f2:	0e 94 f7 16 	call	0x2dee	; 0x2dee <LCD_WR_DATA>
	LCD_WR_DATA(0x0000);
    30f6:	80 e0       	ldi	r24, 0x00	; 0
    30f8:	90 e0       	ldi	r25, 0x00	; 0
    30fa:	0e 94 f7 16 	call	0x2dee	; 0x2dee <LCD_WR_DATA>

	LCD_WR_REG(0x00B6);	//VSYNC
    30fe:	86 eb       	ldi	r24, 0xB6	; 182
    3100:	90 e0       	ldi	r25, 0x00	; 0
    3102:	0e 94 15 17 	call	0x2e2a	; 0x2e2a <LCD_WR_REG>
	LCD_WR_DATA((VT>>8)&0X00FF);   //Set VT
    3106:	81 e0       	ldi	r24, 0x01	; 1
    3108:	90 e0       	ldi	r25, 0x00	; 0
    310a:	0e 94 f7 16 	call	0x2dee	; 0x2dee <LCD_WR_DATA>
	LCD_WR_DATA(VT&0X00FF);
    310e:	80 e2       	ldi	r24, 0x20	; 32
    3110:	90 e0       	ldi	r25, 0x00	; 0
    3112:	0e 94 f7 16 	call	0x2dee	; 0x2dee <LCD_WR_DATA>
	LCD_WR_DATA((VPS>>8)&0X00FF);  //Set VPS
    3116:	80 e0       	ldi	r24, 0x00	; 0
    3118:	90 e0       	ldi	r25, 0x00	; 0
    311a:	0e 94 f7 16 	call	0x2dee	; 0x2dee <LCD_WR_DATA>
	LCD_WR_DATA(VPS&0X00FF);
    311e:	8c e0       	ldi	r24, 0x0C	; 12
    3120:	90 e0       	ldi	r25, 0x00	; 0
    3122:	0e 94 f7 16 	call	0x2dee	; 0x2dee <LCD_WR_DATA>
	LCD_WR_DATA(VPW);  //Set VPW
    3126:	8a e0       	ldi	r24, 0x0A	; 10
    3128:	90 e0       	ldi	r25, 0x00	; 0
    312a:	0e 94 f7 16 	call	0x2dee	; 0x2dee <LCD_WR_DATA>
	LCD_WR_DATA((FPS>>8)&0X00FF);  //Set FPS
    312e:	80 e0       	ldi	r24, 0x00	; 0
    3130:	90 e0       	ldi	r25, 0x00	; 0
    3132:	0e 94 f7 16 	call	0x2dee	; 0x2dee <LCD_WR_DATA>
	LCD_WR_DATA(FPS&0X00FF);
    3136:	84 e0       	ldi	r24, 0x04	; 4
    3138:	90 e0       	ldi	r25, 0x00	; 0
    313a:	0e 94 f7 16 	call	0x2dee	; 0x2dee <LCD_WR_DATA>

	LCD_WR_REG(0x0036); //rotation
    313e:	86 e3       	ldi	r24, 0x36	; 54
    3140:	90 e0       	ldi	r25, 0x00	; 0
    3142:	0e 94 15 17 	call	0x2e2a	; 0x2e2a <LCD_WR_REG>
	LCD_WR_DATA(0x0000);
    3146:	80 e0       	ldi	r24, 0x00	; 0
    3148:	90 e0       	ldi	r25, 0x00	; 0
    314a:	0e 94 f7 16 	call	0x2dee	; 0x2dee <LCD_WR_DATA>

	LCD_WR_REG(0x00F0); //pixel data interface
    314e:	80 ef       	ldi	r24, 0xF0	; 240
    3150:	90 e0       	ldi	r25, 0x00	; 0
    3152:	0e 94 15 17 	call	0x2e2a	; 0x2e2a <LCD_WR_REG>
	LCD_WR_DATA(0x0003);
    3156:	83 e0       	ldi	r24, 0x03	; 3
    3158:	90 e0       	ldi	r25, 0x00	; 0
    315a:	0e 94 f7 16 	call	0x2dee	; 0x2dee <LCD_WR_DATA>

	delayms(5);	
    315e:	85 e0       	ldi	r24, 0x05	; 5
    3160:	90 e0       	ldi	r25, 0x00	; 0
    3162:	0e 94 f1 0d 	call	0x1be2	; 0x1be2 <delayms>

	LCD_WR_REG(0x0029); //display on
    3166:	89 e2       	ldi	r24, 0x29	; 41
    3168:	90 e0       	ldi	r25, 0x00	; 0
    316a:	0e 94 15 17 	call	0x2e2a	; 0x2e2a <LCD_WR_REG>

	LCD_WR_REG(0x00BE); //set PWM for B/L
    316e:	8e eb       	ldi	r24, 0xBE	; 190
    3170:	90 e0       	ldi	r25, 0x00	; 0
    3172:	0e 94 15 17 	call	0x2e2a	; 0x2e2a <LCD_WR_REG>
	LCD_WR_DATA(0x0006);
    3176:	86 e0       	ldi	r24, 0x06	; 6
    3178:	90 e0       	ldi	r25, 0x00	; 0
    317a:	0e 94 f7 16 	call	0x2dee	; 0x2dee <LCD_WR_DATA>
	LCD_WR_DATA(0x00f0);
    317e:	80 ef       	ldi	r24, 0xF0	; 240
    3180:	90 e0       	ldi	r25, 0x00	; 0
    3182:	0e 94 f7 16 	call	0x2dee	; 0x2dee <LCD_WR_DATA>
	LCD_WR_DATA(0x0001);
    3186:	81 e0       	ldi	r24, 0x01	; 1
    3188:	90 e0       	ldi	r25, 0x00	; 0
    318a:	0e 94 f7 16 	call	0x2dee	; 0x2dee <LCD_WR_DATA>
	LCD_WR_DATA(0x00f0);
    318e:	80 ef       	ldi	r24, 0xF0	; 240
    3190:	90 e0       	ldi	r25, 0x00	; 0
    3192:	0e 94 f7 16 	call	0x2dee	; 0x2dee <LCD_WR_DATA>
	LCD_WR_DATA(0x0000);
    3196:	80 e0       	ldi	r24, 0x00	; 0
    3198:	90 e0       	ldi	r25, 0x00	; 0
    319a:	0e 94 f7 16 	call	0x2dee	; 0x2dee <LCD_WR_DATA>
	LCD_WR_DATA(0x0000);
    319e:	80 e0       	ldi	r24, 0x00	; 0
    31a0:	90 e0       	ldi	r25, 0x00	; 0
    31a2:	0e 94 f7 16 	call	0x2dee	; 0x2dee <LCD_WR_DATA>

	LCD_WR_REG(0x00d0); 
    31a6:	80 ed       	ldi	r24, 0xD0	; 208
    31a8:	90 e0       	ldi	r25, 0x00	; 0
    31aa:	0e 94 15 17 	call	0x2e2a	; 0x2e2a <LCD_WR_REG>
	LCD_WR_DATA(0x000d);
    31ae:	8d e0       	ldi	r24, 0x0D	; 13
    31b0:	90 e0       	ldi	r25, 0x00	; 0
    31b2:	0e 94 f7 16 	call	0x2dee	; 0x2dee <LCD_WR_DATA>

    //----------LCD RESET---GPIO0-------------------//
	LCD_WR_REG(0x00B8);
    31b6:	88 eb       	ldi	r24, 0xB8	; 184
    31b8:	90 e0       	ldi	r25, 0x00	; 0
    31ba:	0e 94 15 17 	call	0x2e2a	; 0x2e2a <LCD_WR_REG>
	LCD_WR_DATA(0x0000);    //GPIO3=input, GPIO[2:0]=output
    31be:	80 e0       	ldi	r24, 0x00	; 0
    31c0:	90 e0       	ldi	r25, 0x00	; 0
    31c2:	0e 94 f7 16 	call	0x2dee	; 0x2dee <LCD_WR_DATA>
	LCD_WR_DATA(0x0001);    //GPIO0 normal
    31c6:	81 e0       	ldi	r24, 0x01	; 1
    31c8:	90 e0       	ldi	r25, 0x00	; 0
    31ca:	0e 94 f7 16 	call	0x2dee	; 0x2dee <LCD_WR_DATA>

	LCD_WR_REG(0x00BA);
    31ce:	8a eb       	ldi	r24, 0xBA	; 186
    31d0:	90 e0       	ldi	r25, 0x00	; 0
    31d2:	0e 94 15 17 	call	0x2e2a	; 0x2e2a <LCD_WR_REG>
	LCD_WR_DATA(0x0000);  
    31d6:	80 e0       	ldi	r24, 0x00	; 0
    31d8:	90 e0       	ldi	r25, 0x00	; 0
    31da:	0e 94 f7 16 	call	0x2dee	; 0x2dee <LCD_WR_DATA>
}
    31de:	cf 91       	pop	r28
    31e0:	df 91       	pop	r29
    31e2:	08 95       	ret

000031e4 <LCD_Clear>:

void LCD_Clear(unsigned int Color)
{
    31e4:	df 93       	push	r29
    31e6:	cf 93       	push	r28
    31e8:	00 d0       	rcall	.+0      	; 0x31ea <LCD_Clear+0x6>
    31ea:	00 d0       	rcall	.+0      	; 0x31ec <LCD_Clear+0x8>
    31ec:	00 d0       	rcall	.+0      	; 0x31ee <LCD_Clear+0xa>
    31ee:	cd b7       	in	r28, 0x3d	; 61
    31f0:	de b7       	in	r29, 0x3e	; 62
    31f2:	9e 83       	std	Y+6, r25	; 0x06
    31f4:	8d 83       	std	Y+5, r24	; 0x05
	int Ci=0,Cj=0;
    31f6:	1a 82       	std	Y+2, r1	; 0x02
    31f8:	19 82       	std	Y+1, r1	; 0x01
    31fa:	1c 82       	std	Y+4, r1	; 0x04
    31fc:	1b 82       	std	Y+3, r1	; 0x03
	Address_set(0,0,LCD_W-1,LCD_H-1);
    31fe:	80 e0       	ldi	r24, 0x00	; 0
    3200:	90 e0       	ldi	r25, 0x00	; 0
    3202:	60 e0       	ldi	r22, 0x00	; 0
    3204:	70 e0       	ldi	r23, 0x00	; 0
    3206:	4f ed       	ldi	r20, 0xDF	; 223
    3208:	51 e0       	ldi	r21, 0x01	; 1
    320a:	29 e1       	ldi	r18, 0x19	; 25
    320c:	31 e0       	ldi	r19, 0x01	; 1
    320e:	0e 94 4c 17 	call	0x2e98	; 0x2e98 <Address_set>
    for(Ci=0;Ci<LCD_W;Ci++)
    3212:	1a 82       	std	Y+2, r1	; 0x02
    3214:	19 82       	std	Y+1, r1	; 0x01
    3216:	17 c0       	rjmp	.+46     	; 0x3246 <LCD_Clear+0x62>
	 {
	  		for (Cj=0;Cj<LCD_H;Cj++)
    3218:	1c 82       	std	Y+4, r1	; 0x04
    321a:	1b 82       	std	Y+3, r1	; 0x03
    321c:	09 c0       	rjmp	.+18     	; 0x3230 <LCD_Clear+0x4c>
	   		{
        	 	 LCD_WR_DATA(Color);
    321e:	8d 81       	ldd	r24, Y+5	; 0x05
    3220:	9e 81       	ldd	r25, Y+6	; 0x06
    3222:	0e 94 f7 16 	call	0x2dee	; 0x2dee <LCD_WR_DATA>
{
	int Ci=0,Cj=0;
	Address_set(0,0,LCD_W-1,LCD_H-1);
    for(Ci=0;Ci<LCD_W;Ci++)
	 {
	  		for (Cj=0;Cj<LCD_H;Cj++)
    3226:	8b 81       	ldd	r24, Y+3	; 0x03
    3228:	9c 81       	ldd	r25, Y+4	; 0x04
    322a:	01 96       	adiw	r24, 0x01	; 1
    322c:	9c 83       	std	Y+4, r25	; 0x04
    322e:	8b 83       	std	Y+3, r24	; 0x03
    3230:	8b 81       	ldd	r24, Y+3	; 0x03
    3232:	9c 81       	ldd	r25, Y+4	; 0x04
    3234:	21 e0       	ldi	r18, 0x01	; 1
    3236:	8a 31       	cpi	r24, 0x1A	; 26
    3238:	92 07       	cpc	r25, r18
    323a:	8c f3       	brlt	.-30     	; 0x321e <LCD_Clear+0x3a>

void LCD_Clear(unsigned int Color)
{
	int Ci=0,Cj=0;
	Address_set(0,0,LCD_W-1,LCD_H-1);
    for(Ci=0;Ci<LCD_W;Ci++)
    323c:	89 81       	ldd	r24, Y+1	; 0x01
    323e:	9a 81       	ldd	r25, Y+2	; 0x02
    3240:	01 96       	adiw	r24, 0x01	; 1
    3242:	9a 83       	std	Y+2, r25	; 0x02
    3244:	89 83       	std	Y+1, r24	; 0x01
    3246:	89 81       	ldd	r24, Y+1	; 0x01
    3248:	9a 81       	ldd	r25, Y+2	; 0x02
    324a:	21 e0       	ldi	r18, 0x01	; 1
    324c:	80 3e       	cpi	r24, 0xE0	; 224
    324e:	92 07       	cpc	r25, r18
    3250:	1c f3       	brlt	.-58     	; 0x3218 <LCD_Clear+0x34>
	  		for (Cj=0;Cj<LCD_H;Cj++)
	   		{
        	 	 LCD_WR_DATA(Color);
	    	}
	  }
}
    3252:	26 96       	adiw	r28, 0x06	; 6
    3254:	0f b6       	in	r0, 0x3f	; 63
    3256:	f8 94       	cli
    3258:	de bf       	out	0x3e, r29	; 62
    325a:	0f be       	out	0x3f, r0	; 63
    325c:	cd bf       	out	0x3d, r28	; 61
    325e:	cf 91       	pop	r28
    3260:	df 91       	pop	r29
    3262:	08 95       	ret

00003264 <LCD_DrawPoint>:

void LCD_DrawPoint(unsigned int x,unsigned int y)
{
    3264:	df 93       	push	r29
    3266:	cf 93       	push	r28
    3268:	00 d0       	rcall	.+0      	; 0x326a <LCD_DrawPoint+0x6>
    326a:	00 d0       	rcall	.+0      	; 0x326c <LCD_DrawPoint+0x8>
    326c:	cd b7       	in	r28, 0x3d	; 61
    326e:	de b7       	in	r29, 0x3e	; 62
    3270:	9a 83       	std	Y+2, r25	; 0x02
    3272:	89 83       	std	Y+1, r24	; 0x01
    3274:	7c 83       	std	Y+4, r23	; 0x04
    3276:	6b 83       	std	Y+3, r22	; 0x03
	Address_set(x,y,x,y);// 
    3278:	89 81       	ldd	r24, Y+1	; 0x01
    327a:	9a 81       	ldd	r25, Y+2	; 0x02
    327c:	6b 81       	ldd	r22, Y+3	; 0x03
    327e:	7c 81       	ldd	r23, Y+4	; 0x04
    3280:	49 81       	ldd	r20, Y+1	; 0x01
    3282:	5a 81       	ldd	r21, Y+2	; 0x02
    3284:	2b 81       	ldd	r18, Y+3	; 0x03
    3286:	3c 81       	ldd	r19, Y+4	; 0x04
    3288:	0e 94 4c 17 	call	0x2e98	; 0x2e98 <Address_set>
	LCD_WR_DATA(POINT_COLOR); 	    
    328c:	80 91 c9 03 	lds	r24, 0x03C9
    3290:	90 91 ca 03 	lds	r25, 0x03CA
    3294:	0e 94 f7 16 	call	0x2dee	; 0x2dee <LCD_WR_DATA>
}
    3298:	0f 90       	pop	r0
    329a:	0f 90       	pop	r0
    329c:	0f 90       	pop	r0
    329e:	0f 90       	pop	r0
    32a0:	cf 91       	pop	r28
    32a2:	df 91       	pop	r29
    32a4:	08 95       	ret

000032a6 <LCD_Fill>:

void LCD_Fill(unsigned int xsta,unsigned int ysta,unsigned int xend,unsigned int yend,unsigned int color)
{          
    32a6:	0f 93       	push	r16
    32a8:	1f 93       	push	r17
    32aa:	df 93       	push	r29
    32ac:	cf 93       	push	r28
    32ae:	cd b7       	in	r28, 0x3d	; 61
    32b0:	de b7       	in	r29, 0x3e	; 62
    32b2:	2e 97       	sbiw	r28, 0x0e	; 14
    32b4:	0f b6       	in	r0, 0x3f	; 63
    32b6:	f8 94       	cli
    32b8:	de bf       	out	0x3e, r29	; 62
    32ba:	0f be       	out	0x3f, r0	; 63
    32bc:	cd bf       	out	0x3d, r28	; 61
    32be:	9e 83       	std	Y+6, r25	; 0x06
    32c0:	8d 83       	std	Y+5, r24	; 0x05
    32c2:	78 87       	std	Y+8, r23	; 0x08
    32c4:	6f 83       	std	Y+7, r22	; 0x07
    32c6:	5a 87       	std	Y+10, r21	; 0x0a
    32c8:	49 87       	std	Y+9, r20	; 0x09
    32ca:	3c 87       	std	Y+12, r19	; 0x0c
    32cc:	2b 87       	std	Y+11, r18	; 0x0b
    32ce:	1e 87       	std	Y+14, r17	; 0x0e
    32d0:	0d 87       	std	Y+13, r16	; 0x0d
	unsigned int i,j; 
	Address_set(xsta,ysta,xend,yend);      // 
    32d2:	8d 81       	ldd	r24, Y+5	; 0x05
    32d4:	9e 81       	ldd	r25, Y+6	; 0x06
    32d6:	6f 81       	ldd	r22, Y+7	; 0x07
    32d8:	78 85       	ldd	r23, Y+8	; 0x08
    32da:	49 85       	ldd	r20, Y+9	; 0x09
    32dc:	5a 85       	ldd	r21, Y+10	; 0x0a
    32de:	2b 85       	ldd	r18, Y+11	; 0x0b
    32e0:	3c 85       	ldd	r19, Y+12	; 0x0c
    32e2:	0e 94 4c 17 	call	0x2e98	; 0x2e98 <Address_set>
	for(i=ysta;i<=yend;i++)
    32e6:	8f 81       	ldd	r24, Y+7	; 0x07
    32e8:	98 85       	ldd	r25, Y+8	; 0x08
    32ea:	9a 83       	std	Y+2, r25	; 0x02
    32ec:	89 83       	std	Y+1, r24	; 0x01
    32ee:	1a c0       	rjmp	.+52     	; 0x3324 <LCD_Fill+0x7e>
	{													   	 	
		for(j=xsta;j<=xend;j++)LCD_WR_DATA(color);//
    32f0:	8d 81       	ldd	r24, Y+5	; 0x05
    32f2:	9e 81       	ldd	r25, Y+6	; 0x06
    32f4:	9c 83       	std	Y+4, r25	; 0x04
    32f6:	8b 83       	std	Y+3, r24	; 0x03
    32f8:	09 c0       	rjmp	.+18     	; 0x330c <LCD_Fill+0x66>
    32fa:	8d 85       	ldd	r24, Y+13	; 0x0d
    32fc:	9e 85       	ldd	r25, Y+14	; 0x0e
    32fe:	0e 94 f7 16 	call	0x2dee	; 0x2dee <LCD_WR_DATA>
    3302:	8b 81       	ldd	r24, Y+3	; 0x03
    3304:	9c 81       	ldd	r25, Y+4	; 0x04
    3306:	01 96       	adiw	r24, 0x01	; 1
    3308:	9c 83       	std	Y+4, r25	; 0x04
    330a:	8b 83       	std	Y+3, r24	; 0x03
    330c:	2b 81       	ldd	r18, Y+3	; 0x03
    330e:	3c 81       	ldd	r19, Y+4	; 0x04
    3310:	89 85       	ldd	r24, Y+9	; 0x09
    3312:	9a 85       	ldd	r25, Y+10	; 0x0a
    3314:	82 17       	cp	r24, r18
    3316:	93 07       	cpc	r25, r19
    3318:	80 f7       	brcc	.-32     	; 0x32fa <LCD_Fill+0x54>

void LCD_Fill(unsigned int xsta,unsigned int ysta,unsigned int xend,unsigned int yend,unsigned int color)
{          
	unsigned int i,j; 
	Address_set(xsta,ysta,xend,yend);      // 
	for(i=ysta;i<=yend;i++)
    331a:	89 81       	ldd	r24, Y+1	; 0x01
    331c:	9a 81       	ldd	r25, Y+2	; 0x02
    331e:	01 96       	adiw	r24, 0x01	; 1
    3320:	9a 83       	std	Y+2, r25	; 0x02
    3322:	89 83       	std	Y+1, r24	; 0x01
    3324:	29 81       	ldd	r18, Y+1	; 0x01
    3326:	3a 81       	ldd	r19, Y+2	; 0x02
    3328:	8b 85       	ldd	r24, Y+11	; 0x0b
    332a:	9c 85       	ldd	r25, Y+12	; 0x0c
    332c:	82 17       	cp	r24, r18
    332e:	93 07       	cpc	r25, r19
    3330:	f8 f6       	brcc	.-66     	; 0x32f0 <LCD_Fill+0x4a>
	{													   	 	
		for(j=xsta;j<=xend;j++)LCD_WR_DATA(color);//
	} 					  	    
}
    3332:	2e 96       	adiw	r28, 0x0e	; 14
    3334:	0f b6       	in	r0, 0x3f	; 63
    3336:	f8 94       	cli
    3338:	de bf       	out	0x3e, r29	; 62
    333a:	0f be       	out	0x3f, r0	; 63
    333c:	cd bf       	out	0x3d, r28	; 61
    333e:	cf 91       	pop	r28
    3340:	df 91       	pop	r29
    3342:	1f 91       	pop	r17
    3344:	0f 91       	pop	r16
    3346:	08 95       	ret

00003348 <LCD_DrawLine>:

void LCD_DrawLine(unsigned int x1, unsigned int y1, unsigned int x2, unsigned int y2)
{
    3348:	df 93       	push	r29
    334a:	cf 93       	push	r28
    334c:	cd b7       	in	r28, 0x3d	; 61
    334e:	de b7       	in	r29, 0x3e	; 62
    3350:	6c 97       	sbiw	r28, 0x1c	; 28
    3352:	0f b6       	in	r0, 0x3f	; 63
    3354:	f8 94       	cli
    3356:	de bf       	out	0x3e, r29	; 62
    3358:	0f be       	out	0x3f, r0	; 63
    335a:	cd bf       	out	0x3d, r28	; 61
    335c:	9e 8b       	std	Y+22, r25	; 0x16
    335e:	8d 8b       	std	Y+21, r24	; 0x15
    3360:	78 8f       	std	Y+24, r23	; 0x18
    3362:	6f 8b       	std	Y+23, r22	; 0x17
    3364:	5a 8f       	std	Y+26, r21	; 0x1a
    3366:	49 8f       	std	Y+25, r20	; 0x19
    3368:	3c 8f       	std	Y+28, r19	; 0x1c
    336a:	2b 8f       	std	Y+27, r18	; 0x1b
	unsigned int t; 
	int xerr=0,yerr=0,delta_x,delta_y,distance; 
    336c:	1c 82       	std	Y+4, r1	; 0x04
    336e:	1b 82       	std	Y+3, r1	; 0x03
    3370:	1e 82       	std	Y+6, r1	; 0x06
    3372:	1d 82       	std	Y+5, r1	; 0x05
	int incx,incy,uRow,uCol; 

	delta_x=x2-x1; // 
    3374:	29 8d       	ldd	r18, Y+25	; 0x19
    3376:	3a 8d       	ldd	r19, Y+26	; 0x1a
    3378:	8d 89       	ldd	r24, Y+21	; 0x15
    337a:	9e 89       	ldd	r25, Y+22	; 0x16
    337c:	a9 01       	movw	r20, r18
    337e:	48 1b       	sub	r20, r24
    3380:	59 0b       	sbc	r21, r25
    3382:	ca 01       	movw	r24, r20
    3384:	98 87       	std	Y+8, r25	; 0x08
    3386:	8f 83       	std	Y+7, r24	; 0x07
	delta_y=y2-y1; 
    3388:	2b 8d       	ldd	r18, Y+27	; 0x1b
    338a:	3c 8d       	ldd	r19, Y+28	; 0x1c
    338c:	8f 89       	ldd	r24, Y+23	; 0x17
    338e:	98 8d       	ldd	r25, Y+24	; 0x18
    3390:	a9 01       	movw	r20, r18
    3392:	48 1b       	sub	r20, r24
    3394:	59 0b       	sbc	r21, r25
    3396:	ca 01       	movw	r24, r20
    3398:	9a 87       	std	Y+10, r25	; 0x0a
    339a:	89 87       	std	Y+9, r24	; 0x09
	uRow=x1; 
    339c:	8d 89       	ldd	r24, Y+21	; 0x15
    339e:	9e 89       	ldd	r25, Y+22	; 0x16
    33a0:	9a 8b       	std	Y+18, r25	; 0x12
    33a2:	89 8b       	std	Y+17, r24	; 0x11
	uCol=y1; 
    33a4:	8f 89       	ldd	r24, Y+23	; 0x17
    33a6:	98 8d       	ldd	r25, Y+24	; 0x18
    33a8:	9c 8b       	std	Y+20, r25	; 0x14
    33aa:	8b 8b       	std	Y+19, r24	; 0x13
	if(delta_x>0)incx=1; // 
    33ac:	8f 81       	ldd	r24, Y+7	; 0x07
    33ae:	98 85       	ldd	r25, Y+8	; 0x08
    33b0:	18 16       	cp	r1, r24
    33b2:	19 06       	cpc	r1, r25
    33b4:	2c f4       	brge	.+10     	; 0x33c0 <LCD_DrawLine+0x78>
    33b6:	81 e0       	ldi	r24, 0x01	; 1
    33b8:	90 e0       	ldi	r25, 0x00	; 0
    33ba:	9e 87       	std	Y+14, r25	; 0x0e
    33bc:	8d 87       	std	Y+13, r24	; 0x0d
    33be:	12 c0       	rjmp	.+36     	; 0x33e4 <LCD_DrawLine+0x9c>
	else if(delta_x==0)incx=0;// 
    33c0:	8f 81       	ldd	r24, Y+7	; 0x07
    33c2:	98 85       	ldd	r25, Y+8	; 0x08
    33c4:	00 97       	sbiw	r24, 0x00	; 0
    33c6:	19 f4       	brne	.+6      	; 0x33ce <LCD_DrawLine+0x86>
    33c8:	1e 86       	std	Y+14, r1	; 0x0e
    33ca:	1d 86       	std	Y+13, r1	; 0x0d
    33cc:	0b c0       	rjmp	.+22     	; 0x33e4 <LCD_DrawLine+0x9c>
	else {incx=-1;delta_x=-delta_x;} 
    33ce:	8f ef       	ldi	r24, 0xFF	; 255
    33d0:	9f ef       	ldi	r25, 0xFF	; 255
    33d2:	9e 87       	std	Y+14, r25	; 0x0e
    33d4:	8d 87       	std	Y+13, r24	; 0x0d
    33d6:	8f 81       	ldd	r24, Y+7	; 0x07
    33d8:	98 85       	ldd	r25, Y+8	; 0x08
    33da:	90 95       	com	r25
    33dc:	81 95       	neg	r24
    33de:	9f 4f       	sbci	r25, 0xFF	; 255
    33e0:	98 87       	std	Y+8, r25	; 0x08
    33e2:	8f 83       	std	Y+7, r24	; 0x07
	if(delta_y>0)incy=1; 
    33e4:	89 85       	ldd	r24, Y+9	; 0x09
    33e6:	9a 85       	ldd	r25, Y+10	; 0x0a
    33e8:	18 16       	cp	r1, r24
    33ea:	19 06       	cpc	r1, r25
    33ec:	2c f4       	brge	.+10     	; 0x33f8 <LCD_DrawLine+0xb0>
    33ee:	81 e0       	ldi	r24, 0x01	; 1
    33f0:	90 e0       	ldi	r25, 0x00	; 0
    33f2:	98 8b       	std	Y+16, r25	; 0x10
    33f4:	8f 87       	std	Y+15, r24	; 0x0f
    33f6:	12 c0       	rjmp	.+36     	; 0x341c <LCD_DrawLine+0xd4>
	else if(delta_y==0)incy=0;// 
    33f8:	89 85       	ldd	r24, Y+9	; 0x09
    33fa:	9a 85       	ldd	r25, Y+10	; 0x0a
    33fc:	00 97       	sbiw	r24, 0x00	; 0
    33fe:	19 f4       	brne	.+6      	; 0x3406 <LCD_DrawLine+0xbe>
    3400:	18 8a       	std	Y+16, r1	; 0x10
    3402:	1f 86       	std	Y+15, r1	; 0x0f
    3404:	0b c0       	rjmp	.+22     	; 0x341c <LCD_DrawLine+0xd4>
	else{incy=-1;delta_y=-delta_y;} 
    3406:	8f ef       	ldi	r24, 0xFF	; 255
    3408:	9f ef       	ldi	r25, 0xFF	; 255
    340a:	98 8b       	std	Y+16, r25	; 0x10
    340c:	8f 87       	std	Y+15, r24	; 0x0f
    340e:	89 85       	ldd	r24, Y+9	; 0x09
    3410:	9a 85       	ldd	r25, Y+10	; 0x0a
    3412:	90 95       	com	r25
    3414:	81 95       	neg	r24
    3416:	9f 4f       	sbci	r25, 0xFF	; 255
    3418:	9a 87       	std	Y+10, r25	; 0x0a
    341a:	89 87       	std	Y+9, r24	; 0x09
	if( delta_x>delta_y)distance=delta_x; // 
    341c:	2f 81       	ldd	r18, Y+7	; 0x07
    341e:	38 85       	ldd	r19, Y+8	; 0x08
    3420:	89 85       	ldd	r24, Y+9	; 0x09
    3422:	9a 85       	ldd	r25, Y+10	; 0x0a
    3424:	82 17       	cp	r24, r18
    3426:	93 07       	cpc	r25, r19
    3428:	2c f4       	brge	.+10     	; 0x3434 <LCD_DrawLine+0xec>
    342a:	8f 81       	ldd	r24, Y+7	; 0x07
    342c:	98 85       	ldd	r25, Y+8	; 0x08
    342e:	9c 87       	std	Y+12, r25	; 0x0c
    3430:	8b 87       	std	Y+11, r24	; 0x0b
    3432:	04 c0       	rjmp	.+8      	; 0x343c <LCD_DrawLine+0xf4>
	else distance=delta_y; 
    3434:	89 85       	ldd	r24, Y+9	; 0x09
    3436:	9a 85       	ldd	r25, Y+10	; 0x0a
    3438:	9c 87       	std	Y+12, r25	; 0x0c
    343a:	8b 87       	std	Y+11, r24	; 0x0b
	for(t=0;t<=distance+1;t++ )// 
    343c:	1a 82       	std	Y+2, r1	; 0x02
    343e:	19 82       	std	Y+1, r1	; 0x01
    3440:	4e c0       	rjmp	.+156    	; 0x34de <LCD_DrawLine+0x196>
	{  
		LCD_DrawPoint(uRow,uCol);// 
    3442:	89 89       	ldd	r24, Y+17	; 0x11
    3444:	9a 89       	ldd	r25, Y+18	; 0x12
    3446:	2b 89       	ldd	r18, Y+19	; 0x13
    3448:	3c 89       	ldd	r19, Y+20	; 0x14
    344a:	b9 01       	movw	r22, r18
    344c:	0e 94 32 19 	call	0x3264	; 0x3264 <LCD_DrawPoint>
		xerr+=delta_x ; 
    3450:	2b 81       	ldd	r18, Y+3	; 0x03
    3452:	3c 81       	ldd	r19, Y+4	; 0x04
    3454:	8f 81       	ldd	r24, Y+7	; 0x07
    3456:	98 85       	ldd	r25, Y+8	; 0x08
    3458:	82 0f       	add	r24, r18
    345a:	93 1f       	adc	r25, r19
    345c:	9c 83       	std	Y+4, r25	; 0x04
    345e:	8b 83       	std	Y+3, r24	; 0x03
		yerr+=delta_y ; 
    3460:	2d 81       	ldd	r18, Y+5	; 0x05
    3462:	3e 81       	ldd	r19, Y+6	; 0x06
    3464:	89 85       	ldd	r24, Y+9	; 0x09
    3466:	9a 85       	ldd	r25, Y+10	; 0x0a
    3468:	82 0f       	add	r24, r18
    346a:	93 1f       	adc	r25, r19
    346c:	9e 83       	std	Y+6, r25	; 0x06
    346e:	8d 83       	std	Y+5, r24	; 0x05
		if(xerr>distance) 
    3470:	2b 81       	ldd	r18, Y+3	; 0x03
    3472:	3c 81       	ldd	r19, Y+4	; 0x04
    3474:	8b 85       	ldd	r24, Y+11	; 0x0b
    3476:	9c 85       	ldd	r25, Y+12	; 0x0c
    3478:	82 17       	cp	r24, r18
    347a:	93 07       	cpc	r25, r19
    347c:	94 f4       	brge	.+36     	; 0x34a2 <LCD_DrawLine+0x15a>
		{ 
			xerr-=distance; 
    347e:	2b 81       	ldd	r18, Y+3	; 0x03
    3480:	3c 81       	ldd	r19, Y+4	; 0x04
    3482:	8b 85       	ldd	r24, Y+11	; 0x0b
    3484:	9c 85       	ldd	r25, Y+12	; 0x0c
    3486:	a9 01       	movw	r20, r18
    3488:	48 1b       	sub	r20, r24
    348a:	59 0b       	sbc	r21, r25
    348c:	ca 01       	movw	r24, r20
    348e:	9c 83       	std	Y+4, r25	; 0x04
    3490:	8b 83       	std	Y+3, r24	; 0x03
			uRow+=incx; 
    3492:	29 89       	ldd	r18, Y+17	; 0x11
    3494:	3a 89       	ldd	r19, Y+18	; 0x12
    3496:	8d 85       	ldd	r24, Y+13	; 0x0d
    3498:	9e 85       	ldd	r25, Y+14	; 0x0e
    349a:	82 0f       	add	r24, r18
    349c:	93 1f       	adc	r25, r19
    349e:	9a 8b       	std	Y+18, r25	; 0x12
    34a0:	89 8b       	std	Y+17, r24	; 0x11
		}
		if(yerr>distance)
    34a2:	2d 81       	ldd	r18, Y+5	; 0x05
    34a4:	3e 81       	ldd	r19, Y+6	; 0x06
    34a6:	8b 85       	ldd	r24, Y+11	; 0x0b
    34a8:	9c 85       	ldd	r25, Y+12	; 0x0c
    34aa:	82 17       	cp	r24, r18
    34ac:	93 07       	cpc	r25, r19
    34ae:	94 f4       	brge	.+36     	; 0x34d4 <LCD_DrawLine+0x18c>
		{
			yerr-=distance; 
    34b0:	2d 81       	ldd	r18, Y+5	; 0x05
    34b2:	3e 81       	ldd	r19, Y+6	; 0x06
    34b4:	8b 85       	ldd	r24, Y+11	; 0x0b
    34b6:	9c 85       	ldd	r25, Y+12	; 0x0c
    34b8:	a9 01       	movw	r20, r18
    34ba:	48 1b       	sub	r20, r24
    34bc:	59 0b       	sbc	r21, r25
    34be:	ca 01       	movw	r24, r20
    34c0:	9e 83       	std	Y+6, r25	; 0x06
    34c2:	8d 83       	std	Y+5, r24	; 0x05
			uCol+=incy; 
    34c4:	2b 89       	ldd	r18, Y+19	; 0x13
    34c6:	3c 89       	ldd	r19, Y+20	; 0x14
    34c8:	8f 85       	ldd	r24, Y+15	; 0x0f
    34ca:	98 89       	ldd	r25, Y+16	; 0x10
    34cc:	82 0f       	add	r24, r18
    34ce:	93 1f       	adc	r25, r19
    34d0:	9c 8b       	std	Y+20, r25	; 0x14
    34d2:	8b 8b       	std	Y+19, r24	; 0x13
	if(delta_y>0)incy=1; 
	else if(delta_y==0)incy=0;// 
	else{incy=-1;delta_y=-delta_y;} 
	if( delta_x>delta_y)distance=delta_x; // 
	else distance=delta_y; 
	for(t=0;t<=distance+1;t++ )// 
    34d4:	89 81       	ldd	r24, Y+1	; 0x01
    34d6:	9a 81       	ldd	r25, Y+2	; 0x02
    34d8:	01 96       	adiw	r24, 0x01	; 1
    34da:	9a 83       	std	Y+2, r25	; 0x02
    34dc:	89 83       	std	Y+1, r24	; 0x01
    34de:	8b 85       	ldd	r24, Y+11	; 0x0b
    34e0:	9c 85       	ldd	r25, Y+12	; 0x0c
    34e2:	01 96       	adiw	r24, 0x01	; 1
    34e4:	9c 01       	movw	r18, r24
    34e6:	89 81       	ldd	r24, Y+1	; 0x01
    34e8:	9a 81       	ldd	r25, Y+2	; 0x02
    34ea:	28 17       	cp	r18, r24
    34ec:	39 07       	cpc	r19, r25
    34ee:	08 f0       	brcs	.+2      	; 0x34f2 <LCD_DrawLine+0x1aa>
    34f0:	a8 cf       	rjmp	.-176    	; 0x3442 <LCD_DrawLine+0xfa>
		{
			yerr-=distance; 
			uCol+=incy; 
		}
	}
}
    34f2:	6c 96       	adiw	r28, 0x1c	; 28
    34f4:	0f b6       	in	r0, 0x3f	; 63
    34f6:	f8 94       	cli
    34f8:	de bf       	out	0x3e, r29	; 62
    34fa:	0f be       	out	0x3f, r0	; 63
    34fc:	cd bf       	out	0x3d, r28	; 61
    34fe:	cf 91       	pop	r28
    3500:	df 91       	pop	r29
    3502:	08 95       	ret

00003504 <LCD_DrawRectangle>:

void LCD_DrawRectangle(unsigned int x1, unsigned int y1, unsigned int x2, unsigned int y2)
{
    3504:	df 93       	push	r29
    3506:	cf 93       	push	r28
    3508:	cd b7       	in	r28, 0x3d	; 61
    350a:	de b7       	in	r29, 0x3e	; 62
    350c:	28 97       	sbiw	r28, 0x08	; 8
    350e:	0f b6       	in	r0, 0x3f	; 63
    3510:	f8 94       	cli
    3512:	de bf       	out	0x3e, r29	; 62
    3514:	0f be       	out	0x3f, r0	; 63
    3516:	cd bf       	out	0x3d, r28	; 61
    3518:	9a 83       	std	Y+2, r25	; 0x02
    351a:	89 83       	std	Y+1, r24	; 0x01
    351c:	7c 83       	std	Y+4, r23	; 0x04
    351e:	6b 83       	std	Y+3, r22	; 0x03
    3520:	5e 83       	std	Y+6, r21	; 0x06
    3522:	4d 83       	std	Y+5, r20	; 0x05
    3524:	38 87       	std	Y+8, r19	; 0x08
    3526:	2f 83       	std	Y+7, r18	; 0x07
	LCD_DrawLine(x1,y1,x2,y1);
    3528:	89 81       	ldd	r24, Y+1	; 0x01
    352a:	9a 81       	ldd	r25, Y+2	; 0x02
    352c:	6b 81       	ldd	r22, Y+3	; 0x03
    352e:	7c 81       	ldd	r23, Y+4	; 0x04
    3530:	4d 81       	ldd	r20, Y+5	; 0x05
    3532:	5e 81       	ldd	r21, Y+6	; 0x06
    3534:	2b 81       	ldd	r18, Y+3	; 0x03
    3536:	3c 81       	ldd	r19, Y+4	; 0x04
    3538:	0e 94 a4 19 	call	0x3348	; 0x3348 <LCD_DrawLine>
	LCD_DrawLine(x1,y1,x1,y2);
    353c:	89 81       	ldd	r24, Y+1	; 0x01
    353e:	9a 81       	ldd	r25, Y+2	; 0x02
    3540:	6b 81       	ldd	r22, Y+3	; 0x03
    3542:	7c 81       	ldd	r23, Y+4	; 0x04
    3544:	49 81       	ldd	r20, Y+1	; 0x01
    3546:	5a 81       	ldd	r21, Y+2	; 0x02
    3548:	2f 81       	ldd	r18, Y+7	; 0x07
    354a:	38 85       	ldd	r19, Y+8	; 0x08
    354c:	0e 94 a4 19 	call	0x3348	; 0x3348 <LCD_DrawLine>
	LCD_DrawLine(x1,y2,x2,y2);
    3550:	89 81       	ldd	r24, Y+1	; 0x01
    3552:	9a 81       	ldd	r25, Y+2	; 0x02
    3554:	6f 81       	ldd	r22, Y+7	; 0x07
    3556:	78 85       	ldd	r23, Y+8	; 0x08
    3558:	4d 81       	ldd	r20, Y+5	; 0x05
    355a:	5e 81       	ldd	r21, Y+6	; 0x06
    355c:	2f 81       	ldd	r18, Y+7	; 0x07
    355e:	38 85       	ldd	r19, Y+8	; 0x08
    3560:	0e 94 a4 19 	call	0x3348	; 0x3348 <LCD_DrawLine>
	LCD_DrawLine(x2,y1,x2,y2);
    3564:	8d 81       	ldd	r24, Y+5	; 0x05
    3566:	9e 81       	ldd	r25, Y+6	; 0x06
    3568:	6b 81       	ldd	r22, Y+3	; 0x03
    356a:	7c 81       	ldd	r23, Y+4	; 0x04
    356c:	4d 81       	ldd	r20, Y+5	; 0x05
    356e:	5e 81       	ldd	r21, Y+6	; 0x06
    3570:	2f 81       	ldd	r18, Y+7	; 0x07
    3572:	38 85       	ldd	r19, Y+8	; 0x08
    3574:	0e 94 a4 19 	call	0x3348	; 0x3348 <LCD_DrawLine>
}
    3578:	28 96       	adiw	r28, 0x08	; 8
    357a:	0f b6       	in	r0, 0x3f	; 63
    357c:	f8 94       	cli
    357e:	de bf       	out	0x3e, r29	; 62
    3580:	0f be       	out	0x3f, r0	; 63
    3582:	cd bf       	out	0x3d, r28	; 61
    3584:	cf 91       	pop	r28
    3586:	df 91       	pop	r29
    3588:	08 95       	ret

0000358a <showzifu>:

void showzifu(unsigned int x,unsigned int y,char val,unsigned int dcolor,unsigned int bgcolor)
{  
    358a:	0f 93       	push	r16
    358c:	1f 93       	push	r17
    358e:	df 93       	push	r29
    3590:	cf 93       	push	r28
    3592:	cd b7       	in	r28, 0x3d	; 61
    3594:	de b7       	in	r29, 0x3e	; 62
    3596:	60 97       	sbiw	r28, 0x10	; 16
    3598:	0f b6       	in	r0, 0x3f	; 63
    359a:	f8 94       	cli
    359c:	de bf       	out	0x3e, r29	; 62
    359e:	0f be       	out	0x3f, r0	; 63
    35a0:	cd bf       	out	0x3d, r28	; 61
    35a2:	99 87       	std	Y+9, r25	; 0x09
    35a4:	88 87       	std	Y+8, r24	; 0x08
    35a6:	7b 87       	std	Y+11, r23	; 0x0b
    35a8:	6a 87       	std	Y+10, r22	; 0x0a
    35aa:	4c 87       	std	Y+12, r20	; 0x0c
    35ac:	3e 87       	std	Y+14, r19	; 0x0e
    35ae:	2d 87       	std	Y+13, r18	; 0x0d
    35b0:	18 8b       	std	Y+16, r17	; 0x10
    35b2:	0f 87       	std	Y+15, r16	; 0x0f
	unsigned char i,j;
	unsigned int k=0;
    35b4:	1c 82       	std	Y+4, r1	; 0x04
    35b6:	1b 82       	std	Y+3, r1	; 0x03
//	unsigned char zikuPo;
//	*temp=pgm_read_byte(&ziku);
    Address_set(x,y,x+15,y+32); //
    35b8:	88 85       	ldd	r24, Y+8	; 0x08
    35ba:	99 85       	ldd	r25, Y+9	; 0x09
    35bc:	ac 01       	movw	r20, r24
    35be:	41 5f       	subi	r20, 0xF1	; 241
    35c0:	5f 4f       	sbci	r21, 0xFF	; 255
    35c2:	8a 85       	ldd	r24, Y+10	; 0x0a
    35c4:	9b 85       	ldd	r25, Y+11	; 0x0b
    35c6:	9c 01       	movw	r18, r24
    35c8:	20 5e       	subi	r18, 0xE0	; 224
    35ca:	3f 4f       	sbci	r19, 0xFF	; 255
    35cc:	88 85       	ldd	r24, Y+8	; 0x08
    35ce:	99 85       	ldd	r25, Y+9	; 0x09
    35d0:	6a 85       	ldd	r22, Y+10	; 0x0a
    35d2:	7b 85       	ldd	r23, Y+11	; 0x0b
    35d4:	0e 94 4c 17 	call	0x2e98	; 0x2e98 <Address_set>
	k+=(val-32)*66;
    35d8:	8c 85       	ldd	r24, Y+12	; 0x0c
    35da:	48 2f       	mov	r20, r24
    35dc:	50 e0       	ldi	r21, 0x00	; 0
    35de:	22 e4       	ldi	r18, 0x42	; 66
    35e0:	30 e0       	ldi	r19, 0x00	; 0
    35e2:	42 9f       	mul	r20, r18
    35e4:	c0 01       	movw	r24, r0
    35e6:	43 9f       	mul	r20, r19
    35e8:	90 0d       	add	r25, r0
    35ea:	52 9f       	mul	r21, r18
    35ec:	90 0d       	add	r25, r0
    35ee:	11 24       	eor	r1, r1
    35f0:	9c 01       	movw	r18, r24
    35f2:	8b 81       	ldd	r24, Y+3	; 0x03
    35f4:	9c 81       	ldd	r25, Y+4	; 0x04
    35f6:	82 0f       	add	r24, r18
    35f8:	93 1f       	adc	r25, r19
    35fa:	80 54       	subi	r24, 0x40	; 64
    35fc:	98 40       	sbci	r25, 0x08	; 8
    35fe:	9c 83       	std	Y+4, r25	; 0x04
    3600:	8b 83       	std	Y+3, r24	; 0x03
	for(j=0;j<66;j++)
    3602:	1a 82       	std	Y+2, r1	; 0x02
    3604:	3a c0       	rjmp	.+116    	; 0x367a <showzifu+0xf0>
	{
		for(i=0;i<8;i++)
    3606:	19 82       	std	Y+1, r1	; 0x01
    3608:	2d c0       	rjmp	.+90     	; 0x3664 <showzifu+0xda>
		{
		 	if((pgm_read_byte(&ziku[k])&(1<<(7-i)))!=0)
    360a:	8b 81       	ldd	r24, Y+3	; 0x03
    360c:	9c 81       	ldd	r25, Y+4	; 0x04
    360e:	82 5f       	subi	r24, 0xF2	; 242
    3610:	9e 4f       	sbci	r25, 0xFE	; 254
    3612:	9e 83       	std	Y+6, r25	; 0x06
    3614:	8d 83       	std	Y+5, r24	; 0x05
    3616:	8d 81       	ldd	r24, Y+5	; 0x05
    3618:	9e 81       	ldd	r25, Y+6	; 0x06
    361a:	fc 01       	movw	r30, r24
    361c:	14 91       	lpm	r17, Z+
    361e:	1f 83       	std	Y+7, r17	; 0x07
    3620:	8f 81       	ldd	r24, Y+7	; 0x07
    3622:	88 2f       	mov	r24, r24
    3624:	90 e0       	ldi	r25, 0x00	; 0
    3626:	29 81       	ldd	r18, Y+1	; 0x01
    3628:	22 2f       	mov	r18, r18
    362a:	30 e0       	ldi	r19, 0x00	; 0
    362c:	47 e0       	ldi	r20, 0x07	; 7
    362e:	50 e0       	ldi	r21, 0x00	; 0
    3630:	ba 01       	movw	r22, r20
    3632:	62 1b       	sub	r22, r18
    3634:	73 0b       	sbc	r23, r19
    3636:	9b 01       	movw	r18, r22
    3638:	02 2e       	mov	r0, r18
    363a:	02 c0       	rjmp	.+4      	; 0x3640 <showzifu+0xb6>
    363c:	95 95       	asr	r25
    363e:	87 95       	ror	r24
    3640:	0a 94       	dec	r0
    3642:	e2 f7       	brpl	.-8      	; 0x363c <showzifu+0xb2>
    3644:	81 70       	andi	r24, 0x01	; 1
    3646:	90 70       	andi	r25, 0x00	; 0
    3648:	88 23       	and	r24, r24
    364a:	29 f0       	breq	.+10     	; 0x3656 <showzifu+0xcc>
			{
				LCD_WR_DATA(dcolor);
    364c:	8d 85       	ldd	r24, Y+13	; 0x0d
    364e:	9e 85       	ldd	r25, Y+14	; 0x0e
    3650:	0e 94 f7 16 	call	0x2dee	; 0x2dee <LCD_WR_DATA>
    3654:	04 c0       	rjmp	.+8      	; 0x365e <showzifu+0xd4>
			}
			else
			{
				LCD_WR_DATA(bgcolor);
    3656:	8f 85       	ldd	r24, Y+15	; 0x0f
    3658:	98 89       	ldd	r25, Y+16	; 0x10
    365a:	0e 94 f7 16 	call	0x2dee	; 0x2dee <LCD_WR_DATA>
//	*temp=pgm_read_byte(&ziku);
    Address_set(x,y,x+15,y+32); //
	k+=(val-32)*66;
	for(j=0;j<66;j++)
	{
		for(i=0;i<8;i++)
    365e:	89 81       	ldd	r24, Y+1	; 0x01
    3660:	8f 5f       	subi	r24, 0xFF	; 255
    3662:	89 83       	std	Y+1, r24	; 0x01
    3664:	89 81       	ldd	r24, Y+1	; 0x01
    3666:	88 30       	cpi	r24, 0x08	; 8
    3668:	80 f2       	brcs	.-96     	; 0x360a <showzifu+0x80>
			else
			{
				LCD_WR_DATA(bgcolor);
			}
		}
		k++;
    366a:	8b 81       	ldd	r24, Y+3	; 0x03
    366c:	9c 81       	ldd	r25, Y+4	; 0x04
    366e:	01 96       	adiw	r24, 0x01	; 1
    3670:	9c 83       	std	Y+4, r25	; 0x04
    3672:	8b 83       	std	Y+3, r24	; 0x03
	unsigned int k=0;
//	unsigned char zikuPo;
//	*temp=pgm_read_byte(&ziku);
    Address_set(x,y,x+15,y+32); //
	k+=(val-32)*66;
	for(j=0;j<66;j++)
    3674:	8a 81       	ldd	r24, Y+2	; 0x02
    3676:	8f 5f       	subi	r24, 0xFF	; 255
    3678:	8a 83       	std	Y+2, r24	; 0x02
    367a:	8a 81       	ldd	r24, Y+2	; 0x02
    367c:	82 34       	cpi	r24, 0x42	; 66
    367e:	08 f4       	brcc	.+2      	; 0x3682 <showzifu+0xf8>
    3680:	c2 cf       	rjmp	.-124    	; 0x3606 <showzifu+0x7c>
				LCD_WR_DATA(bgcolor);
			}
		}
		k++;
	 }
}
    3682:	60 96       	adiw	r28, 0x10	; 16
    3684:	0f b6       	in	r0, 0x3f	; 63
    3686:	f8 94       	cli
    3688:	de bf       	out	0x3e, r29	; 62
    368a:	0f be       	out	0x3f, r0	; 63
    368c:	cd bf       	out	0x3d, r28	; 61
    368e:	cf 91       	pop	r28
    3690:	df 91       	pop	r29
    3692:	1f 91       	pop	r17
    3694:	0f 91       	pop	r16
    3696:	08 95       	ret

00003698 <showzifustr>:


void showzifustr(unsigned int x,unsigned int y,char *str,unsigned int dcolor,unsigned int bgcolor)	  
{  
    3698:	0f 93       	push	r16
    369a:	1f 93       	push	r17
    369c:	df 93       	push	r29
    369e:	cf 93       	push	r28
    36a0:	cd b7       	in	r28, 0x3d	; 61
    36a2:	de b7       	in	r29, 0x3e	; 62
    36a4:	2e 97       	sbiw	r28, 0x0e	; 14
    36a6:	0f b6       	in	r0, 0x3f	; 63
    36a8:	f8 94       	cli
    36aa:	de bf       	out	0x3e, r29	; 62
    36ac:	0f be       	out	0x3f, r0	; 63
    36ae:	cd bf       	out	0x3d, r28	; 61
    36b0:	9e 83       	std	Y+6, r25	; 0x06
    36b2:	8d 83       	std	Y+5, r24	; 0x05
    36b4:	78 87       	std	Y+8, r23	; 0x08
    36b6:	6f 83       	std	Y+7, r22	; 0x07
    36b8:	5a 87       	std	Y+10, r21	; 0x0a
    36ba:	49 87       	std	Y+9, r20	; 0x09
    36bc:	3c 87       	std	Y+12, r19	; 0x0c
    36be:	2b 87       	std	Y+11, r18	; 0x0b
    36c0:	1e 87       	std	Y+14, r17	; 0x0e
    36c2:	0d 87       	std	Y+13, r16	; 0x0d
	unsigned int x1,y1;
	x1=x;
    36c4:	8d 81       	ldd	r24, Y+5	; 0x05
    36c6:	9e 81       	ldd	r25, Y+6	; 0x06
    36c8:	9a 83       	std	Y+2, r25	; 0x02
    36ca:	89 83       	std	Y+1, r24	; 0x01
	y1=y;
    36cc:	8f 81       	ldd	r24, Y+7	; 0x07
    36ce:	98 85       	ldd	r25, Y+8	; 0x08
    36d0:	9c 83       	std	Y+4, r25	; 0x04
    36d2:	8b 83       	std	Y+3, r24	; 0x03
	while(*str!='\0')
    36d4:	1c c0       	rjmp	.+56     	; 0x370e <showzifustr+0x76>
	{
		showzifu(x1,y1,*str,dcolor,bgcolor);
    36d6:	89 85       	ldd	r24, Y+9	; 0x09
    36d8:	9a 85       	ldd	r25, Y+10	; 0x0a
    36da:	fc 01       	movw	r30, r24
    36dc:	a0 81       	ld	r26, Z
    36de:	89 81       	ldd	r24, Y+1	; 0x01
    36e0:	9a 81       	ldd	r25, Y+2	; 0x02
    36e2:	4b 81       	ldd	r20, Y+3	; 0x03
    36e4:	5c 81       	ldd	r21, Y+4	; 0x04
    36e6:	2b 85       	ldd	r18, Y+11	; 0x0b
    36e8:	3c 85       	ldd	r19, Y+12	; 0x0c
    36ea:	ed 85       	ldd	r30, Y+13	; 0x0d
    36ec:	fe 85       	ldd	r31, Y+14	; 0x0e
    36ee:	ba 01       	movw	r22, r20
    36f0:	4a 2f       	mov	r20, r26
    36f2:	8f 01       	movw	r16, r30
    36f4:	0e 94 c5 1a 	call	0x358a	; 0x358a <showzifu>
		x1+=18;
    36f8:	89 81       	ldd	r24, Y+1	; 0x01
    36fa:	9a 81       	ldd	r25, Y+2	; 0x02
    36fc:	42 96       	adiw	r24, 0x12	; 18
    36fe:	9a 83       	std	Y+2, r25	; 0x02
    3700:	89 83       	std	Y+1, r24	; 0x01
		str++;
    3702:	89 85       	ldd	r24, Y+9	; 0x09
    3704:	9a 85       	ldd	r25, Y+10	; 0x0a
    3706:	01 96       	adiw	r24, 0x01	; 1
    3708:	9a 87       	std	Y+10, r25	; 0x0a
    370a:	89 87       	std	Y+9, r24	; 0x09
		asm("nop");
    370c:	00 00       	nop
void showzifustr(unsigned int x,unsigned int y,char *str,unsigned int dcolor,unsigned int bgcolor)	  
{  
	unsigned int x1,y1;
	x1=x;
	y1=y;
	while(*str!='\0')
    370e:	89 85       	ldd	r24, Y+9	; 0x09
    3710:	9a 85       	ldd	r25, Y+10	; 0x0a
    3712:	fc 01       	movw	r30, r24
    3714:	80 81       	ld	r24, Z
    3716:	88 23       	and	r24, r24
    3718:	f1 f6       	brne	.-68     	; 0x36d6 <showzifustr+0x3e>
		showzifu(x1,y1,*str,dcolor,bgcolor);
		x1+=18;
		str++;
		asm("nop");
	}
}
    371a:	2e 96       	adiw	r28, 0x0e	; 14
    371c:	0f b6       	in	r0, 0x3f	; 63
    371e:	f8 94       	cli
    3720:	de bf       	out	0x3e, r29	; 62
    3722:	0f be       	out	0x3f, r0	; 63
    3724:	cd bf       	out	0x3d, r28	; 61
    3726:	cf 91       	pop	r28
    3728:	df 91       	pop	r29
    372a:	1f 91       	pop	r17
    372c:	0f 91       	pop	r16
    372e:	08 95       	ret

00003730 <showlogo>:


void showlogo(unsigned int x,unsigned int y,char val,unsigned int dcolor,unsigned int bgcolor)
{  
    3730:	0f 93       	push	r16
    3732:	1f 93       	push	r17
    3734:	df 93       	push	r29
    3736:	cf 93       	push	r28
    3738:	cd b7       	in	r28, 0x3d	; 61
    373a:	de b7       	in	r29, 0x3e	; 62
    373c:	60 97       	sbiw	r28, 0x10	; 16
    373e:	0f b6       	in	r0, 0x3f	; 63
    3740:	f8 94       	cli
    3742:	de bf       	out	0x3e, r29	; 62
    3744:	0f be       	out	0x3f, r0	; 63
    3746:	cd bf       	out	0x3d, r28	; 61
    3748:	99 87       	std	Y+9, r25	; 0x09
    374a:	88 87       	std	Y+8, r24	; 0x08
    374c:	7b 87       	std	Y+11, r23	; 0x0b
    374e:	6a 87       	std	Y+10, r22	; 0x0a
    3750:	4c 87       	std	Y+12, r20	; 0x0c
    3752:	3e 87       	std	Y+14, r19	; 0x0e
    3754:	2d 87       	std	Y+13, r18	; 0x0d
    3756:	18 8b       	std	Y+16, r17	; 0x10
    3758:	0f 87       	std	Y+15, r16	; 0x0f
	unsigned char i,j;
	unsigned int k=0;
    375a:	1c 82       	std	Y+4, r1	; 0x04
    375c:	1b 82       	std	Y+3, r1	; 0x03
//	*temp=pgm_read_byte(&logo);
    Address_set(x,y,x+23,y+35); //
    375e:	88 85       	ldd	r24, Y+8	; 0x08
    3760:	99 85       	ldd	r25, Y+9	; 0x09
    3762:	ac 01       	movw	r20, r24
    3764:	49 5e       	subi	r20, 0xE9	; 233
    3766:	5f 4f       	sbci	r21, 0xFF	; 255
    3768:	8a 85       	ldd	r24, Y+10	; 0x0a
    376a:	9b 85       	ldd	r25, Y+11	; 0x0b
    376c:	9c 01       	movw	r18, r24
    376e:	2d 5d       	subi	r18, 0xDD	; 221
    3770:	3f 4f       	sbci	r19, 0xFF	; 255
    3772:	88 85       	ldd	r24, Y+8	; 0x08
    3774:	99 85       	ldd	r25, Y+9	; 0x09
    3776:	6a 85       	ldd	r22, Y+10	; 0x0a
    3778:	7b 85       	ldd	r23, Y+11	; 0x0b
    377a:	0e 94 4c 17 	call	0x2e98	; 0x2e98 <Address_set>
	k+=(val-0x30)*108;
    377e:	8c 85       	ldd	r24, Y+12	; 0x0c
    3780:	48 2f       	mov	r20, r24
    3782:	50 e0       	ldi	r21, 0x00	; 0
    3784:	2c e6       	ldi	r18, 0x6C	; 108
    3786:	30 e0       	ldi	r19, 0x00	; 0
    3788:	42 9f       	mul	r20, r18
    378a:	c0 01       	movw	r24, r0
    378c:	43 9f       	mul	r20, r19
    378e:	90 0d       	add	r25, r0
    3790:	52 9f       	mul	r21, r18
    3792:	90 0d       	add	r25, r0
    3794:	11 24       	eor	r1, r1
    3796:	9c 01       	movw	r18, r24
    3798:	8b 81       	ldd	r24, Y+3	; 0x03
    379a:	9c 81       	ldd	r25, Y+4	; 0x04
    379c:	82 0f       	add	r24, r18
    379e:	93 1f       	adc	r25, r19
    37a0:	80 54       	subi	r24, 0x40	; 64
    37a2:	94 41       	sbci	r25, 0x14	; 20
    37a4:	9c 83       	std	Y+4, r25	; 0x04
    37a6:	8b 83       	std	Y+3, r24	; 0x03
	for(j=0;j<108;j++)
    37a8:	1a 82       	std	Y+2, r1	; 0x02
    37aa:	3a c0       	rjmp	.+116    	; 0x3820 <showlogo+0xf0>
	{
		for(i=0;i<8;i++)
    37ac:	19 82       	std	Y+1, r1	; 0x01
    37ae:	2d c0       	rjmp	.+90     	; 0x380a <showlogo+0xda>
		{
		 	if((pgm_read_byte(&logo[k])&(1<<(7-i)))!=0)
    37b0:	8b 81       	ldd	r24, Y+3	; 0x03
    37b2:	9c 81       	ldd	r25, Y+4	; 0x04
    37b4:	8a 53       	subi	r24, 0x3A	; 58
    37b6:	97 4e       	sbci	r25, 0xE7	; 231
    37b8:	9e 83       	std	Y+6, r25	; 0x06
    37ba:	8d 83       	std	Y+5, r24	; 0x05
    37bc:	8d 81       	ldd	r24, Y+5	; 0x05
    37be:	9e 81       	ldd	r25, Y+6	; 0x06
    37c0:	fc 01       	movw	r30, r24
    37c2:	14 91       	lpm	r17, Z+
    37c4:	1f 83       	std	Y+7, r17	; 0x07
    37c6:	8f 81       	ldd	r24, Y+7	; 0x07
    37c8:	88 2f       	mov	r24, r24
    37ca:	90 e0       	ldi	r25, 0x00	; 0
    37cc:	29 81       	ldd	r18, Y+1	; 0x01
    37ce:	22 2f       	mov	r18, r18
    37d0:	30 e0       	ldi	r19, 0x00	; 0
    37d2:	47 e0       	ldi	r20, 0x07	; 7
    37d4:	50 e0       	ldi	r21, 0x00	; 0
    37d6:	ba 01       	movw	r22, r20
    37d8:	62 1b       	sub	r22, r18
    37da:	73 0b       	sbc	r23, r19
    37dc:	9b 01       	movw	r18, r22
    37de:	02 2e       	mov	r0, r18
    37e0:	02 c0       	rjmp	.+4      	; 0x37e6 <showlogo+0xb6>
    37e2:	95 95       	asr	r25
    37e4:	87 95       	ror	r24
    37e6:	0a 94       	dec	r0
    37e8:	e2 f7       	brpl	.-8      	; 0x37e2 <showlogo+0xb2>
    37ea:	81 70       	andi	r24, 0x01	; 1
    37ec:	90 70       	andi	r25, 0x00	; 0
    37ee:	88 23       	and	r24, r24
    37f0:	29 f0       	breq	.+10     	; 0x37fc <showlogo+0xcc>
			{
				LCD_WR_DATA(dcolor);
    37f2:	8d 85       	ldd	r24, Y+13	; 0x0d
    37f4:	9e 85       	ldd	r25, Y+14	; 0x0e
    37f6:	0e 94 f7 16 	call	0x2dee	; 0x2dee <LCD_WR_DATA>
    37fa:	04 c0       	rjmp	.+8      	; 0x3804 <showlogo+0xd4>
			}
			else
			{
				LCD_WR_DATA(bgcolor);
    37fc:	8f 85       	ldd	r24, Y+15	; 0x0f
    37fe:	98 89       	ldd	r25, Y+16	; 0x10
    3800:	0e 94 f7 16 	call	0x2dee	; 0x2dee <LCD_WR_DATA>
//	*temp=pgm_read_byte(&logo);
    Address_set(x,y,x+23,y+35); //
	k+=(val-0x30)*108;
	for(j=0;j<108;j++)
	{
		for(i=0;i<8;i++)
    3804:	89 81       	ldd	r24, Y+1	; 0x01
    3806:	8f 5f       	subi	r24, 0xFF	; 255
    3808:	89 83       	std	Y+1, r24	; 0x01
    380a:	89 81       	ldd	r24, Y+1	; 0x01
    380c:	88 30       	cpi	r24, 0x08	; 8
    380e:	80 f2       	brcs	.-96     	; 0x37b0 <showlogo+0x80>
			else
			{
				LCD_WR_DATA(bgcolor);
			}
		}
		k++;
    3810:	8b 81       	ldd	r24, Y+3	; 0x03
    3812:	9c 81       	ldd	r25, Y+4	; 0x04
    3814:	01 96       	adiw	r24, 0x01	; 1
    3816:	9c 83       	std	Y+4, r25	; 0x04
    3818:	8b 83       	std	Y+3, r24	; 0x03
	unsigned char i,j;
	unsigned int k=0;
//	*temp=pgm_read_byte(&logo);
    Address_set(x,y,x+23,y+35); //
	k+=(val-0x30)*108;
	for(j=0;j<108;j++)
    381a:	8a 81       	ldd	r24, Y+2	; 0x02
    381c:	8f 5f       	subi	r24, 0xFF	; 255
    381e:	8a 83       	std	Y+2, r24	; 0x02
    3820:	8a 81       	ldd	r24, Y+2	; 0x02
    3822:	8c 36       	cpi	r24, 0x6C	; 108
    3824:	08 f4       	brcc	.+2      	; 0x3828 <showlogo+0xf8>
    3826:	c2 cf       	rjmp	.-124    	; 0x37ac <showlogo+0x7c>
				LCD_WR_DATA(bgcolor);
			}
		}
		k++;
	 }
}
    3828:	60 96       	adiw	r28, 0x10	; 16
    382a:	0f b6       	in	r0, 0x3f	; 63
    382c:	f8 94       	cli
    382e:	de bf       	out	0x3e, r29	; 62
    3830:	0f be       	out	0x3f, r0	; 63
    3832:	cd bf       	out	0x3d, r28	; 61
    3834:	cf 91       	pop	r28
    3836:	df 91       	pop	r29
    3838:	1f 91       	pop	r17
    383a:	0f 91       	pop	r16
    383c:	08 95       	ret

0000383e <showlogostr>:

void showlogostr(unsigned int x,unsigned int y,char *str,unsigned int dcolor,unsigned int bgcolor)
{
    383e:	0f 93       	push	r16
    3840:	1f 93       	push	r17
    3842:	df 93       	push	r29
    3844:	cf 93       	push	r28
    3846:	cd b7       	in	r28, 0x3d	; 61
    3848:	de b7       	in	r29, 0x3e	; 62
    384a:	2a 97       	sbiw	r28, 0x0a	; 10
    384c:	0f b6       	in	r0, 0x3f	; 63
    384e:	f8 94       	cli
    3850:	de bf       	out	0x3e, r29	; 62
    3852:	0f be       	out	0x3f, r0	; 63
    3854:	cd bf       	out	0x3d, r28	; 61
    3856:	9a 83       	std	Y+2, r25	; 0x02
    3858:	89 83       	std	Y+1, r24	; 0x01
    385a:	7c 83       	std	Y+4, r23	; 0x04
    385c:	6b 83       	std	Y+3, r22	; 0x03
    385e:	5e 83       	std	Y+6, r21	; 0x06
    3860:	4d 83       	std	Y+5, r20	; 0x05
    3862:	38 87       	std	Y+8, r19	; 0x08
    3864:	2f 83       	std	Y+7, r18	; 0x07
    3866:	1a 87       	std	Y+10, r17	; 0x0a
    3868:	09 87       	std	Y+9, r16	; 0x09
	while(*str!='\0')
    386a:	1b c0       	rjmp	.+54     	; 0x38a2 <showlogostr+0x64>
	{
		showlogo(x,y,*str,dcolor,bgcolor);
    386c:	8d 81       	ldd	r24, Y+5	; 0x05
    386e:	9e 81       	ldd	r25, Y+6	; 0x06
    3870:	fc 01       	movw	r30, r24
    3872:	a0 81       	ld	r26, Z
    3874:	89 81       	ldd	r24, Y+1	; 0x01
    3876:	9a 81       	ldd	r25, Y+2	; 0x02
    3878:	4b 81       	ldd	r20, Y+3	; 0x03
    387a:	5c 81       	ldd	r21, Y+4	; 0x04
    387c:	2f 81       	ldd	r18, Y+7	; 0x07
    387e:	38 85       	ldd	r19, Y+8	; 0x08
    3880:	e9 85       	ldd	r30, Y+9	; 0x09
    3882:	fa 85       	ldd	r31, Y+10	; 0x0a
    3884:	ba 01       	movw	r22, r20
    3886:	4a 2f       	mov	r20, r26
    3888:	8f 01       	movw	r16, r30
    388a:	0e 94 98 1b 	call	0x3730	; 0x3730 <showlogo>
		x+=24;
    388e:	89 81       	ldd	r24, Y+1	; 0x01
    3890:	9a 81       	ldd	r25, Y+2	; 0x02
    3892:	48 96       	adiw	r24, 0x18	; 24
    3894:	9a 83       	std	Y+2, r25	; 0x02
    3896:	89 83       	std	Y+1, r24	; 0x01
		str++;
    3898:	8d 81       	ldd	r24, Y+5	; 0x05
    389a:	9e 81       	ldd	r25, Y+6	; 0x06
    389c:	01 96       	adiw	r24, 0x01	; 1
    389e:	9e 83       	std	Y+6, r25	; 0x06
    38a0:	8d 83       	std	Y+5, r24	; 0x05
	 }
}

void showlogostr(unsigned int x,unsigned int y,char *str,unsigned int dcolor,unsigned int bgcolor)
{
	while(*str!='\0')
    38a2:	8d 81       	ldd	r24, Y+5	; 0x05
    38a4:	9e 81       	ldd	r25, Y+6	; 0x06
    38a6:	fc 01       	movw	r30, r24
    38a8:	80 81       	ld	r24, Z
    38aa:	88 23       	and	r24, r24
    38ac:	f9 f6       	brne	.-66     	; 0x386c <showlogostr+0x2e>
	{
		showlogo(x,y,*str,dcolor,bgcolor);
		x+=24;
		str++;
	}
}
    38ae:	2a 96       	adiw	r28, 0x0a	; 10
    38b0:	0f b6       	in	r0, 0x3f	; 63
    38b2:	f8 94       	cli
    38b4:	de bf       	out	0x3e, r29	; 62
    38b6:	0f be       	out	0x3f, r0	; 63
    38b8:	cd bf       	out	0x3d, r28	; 61
    38ba:	cf 91       	pop	r28
    38bc:	df 91       	pop	r29
    38be:	1f 91       	pop	r17
    38c0:	0f 91       	pop	r16
    38c2:	08 95       	ret

000038c4 <inttostr>:
		asm("nop");
	}
}
*/
void inttostr(int dd,char *str)
{
    38c4:	df 93       	push	r29
    38c6:	cf 93       	push	r28
    38c8:	00 d0       	rcall	.+0      	; 0x38ca <inttostr+0x6>
    38ca:	00 d0       	rcall	.+0      	; 0x38cc <inttostr+0x8>
    38cc:	cd b7       	in	r28, 0x3d	; 61
    38ce:	de b7       	in	r29, 0x3e	; 62
    38d0:	9a 83       	std	Y+2, r25	; 0x02
    38d2:	89 83       	std	Y+1, r24	; 0x01
    38d4:	7c 83       	std	Y+4, r23	; 0x04
    38d6:	6b 83       	std	Y+3, r22	; 0x03
	if((dd/10000)==0)str[0]=32;else str[0]=dd/10000+48;
    38d8:	89 81       	ldd	r24, Y+1	; 0x01
    38da:	9a 81       	ldd	r25, Y+2	; 0x02
    38dc:	81 5f       	subi	r24, 0xF1	; 241
    38de:	98 4d       	sbci	r25, 0xD8	; 216
    38e0:	2e e4       	ldi	r18, 0x4E	; 78
    38e2:	8f 31       	cpi	r24, 0x1F	; 31
    38e4:	92 07       	cpc	r25, r18
    38e6:	30 f4       	brcc	.+12     	; 0x38f4 <inttostr+0x30>
    38e8:	8b 81       	ldd	r24, Y+3	; 0x03
    38ea:	9c 81       	ldd	r25, Y+4	; 0x04
    38ec:	20 e2       	ldi	r18, 0x20	; 32
    38ee:	fc 01       	movw	r30, r24
    38f0:	20 83       	st	Z, r18
    38f2:	0f c0       	rjmp	.+30     	; 0x3912 <inttostr+0x4e>
    38f4:	89 81       	ldd	r24, Y+1	; 0x01
    38f6:	9a 81       	ldd	r25, Y+2	; 0x02
    38f8:	20 e1       	ldi	r18, 0x10	; 16
    38fa:	37 e2       	ldi	r19, 0x27	; 39
    38fc:	b9 01       	movw	r22, r18
    38fe:	0e 94 7e 30 	call	0x60fc	; 0x60fc <__divmodhi4>
    3902:	9b 01       	movw	r18, r22
    3904:	c9 01       	movw	r24, r18
    3906:	28 2f       	mov	r18, r24
    3908:	20 5d       	subi	r18, 0xD0	; 208
    390a:	8b 81       	ldd	r24, Y+3	; 0x03
    390c:	9c 81       	ldd	r25, Y+4	; 0x04
    390e:	fc 01       	movw	r30, r24
    3910:	20 83       	st	Z, r18
	if(((dd/10000)==0)&&((dd/1000)==0))str[1]=32; else str[1]=(dd/1000)-((dd/10000)*10)+48;
    3912:	89 81       	ldd	r24, Y+1	; 0x01
    3914:	9a 81       	ldd	r25, Y+2	; 0x02
    3916:	81 5f       	subi	r24, 0xF1	; 241
    3918:	98 4d       	sbci	r25, 0xD8	; 216
    391a:	fe e4       	ldi	r31, 0x4E	; 78
    391c:	8f 31       	cpi	r24, 0x1F	; 31
    391e:	9f 07       	cpc	r25, r31
    3920:	78 f4       	brcc	.+30     	; 0x3940 <inttostr+0x7c>
    3922:	89 81       	ldd	r24, Y+1	; 0x01
    3924:	9a 81       	ldd	r25, Y+2	; 0x02
    3926:	89 51       	subi	r24, 0x19	; 25
    3928:	9c 4f       	sbci	r25, 0xFC	; 252
    392a:	27 e0       	ldi	r18, 0x07	; 7
    392c:	8f 3c       	cpi	r24, 0xCF	; 207
    392e:	92 07       	cpc	r25, r18
    3930:	38 f4       	brcc	.+14     	; 0x3940 <inttostr+0x7c>
    3932:	8b 81       	ldd	r24, Y+3	; 0x03
    3934:	9c 81       	ldd	r25, Y+4	; 0x04
    3936:	01 96       	adiw	r24, 0x01	; 1
    3938:	20 e2       	ldi	r18, 0x20	; 32
    393a:	fc 01       	movw	r30, r24
    393c:	20 83       	st	Z, r18
    393e:	22 c0       	rjmp	.+68     	; 0x3984 <inttostr+0xc0>
    3940:	8b 81       	ldd	r24, Y+3	; 0x03
    3942:	9c 81       	ldd	r25, Y+4	; 0x04
    3944:	9c 01       	movw	r18, r24
    3946:	2f 5f       	subi	r18, 0xFF	; 255
    3948:	3f 4f       	sbci	r19, 0xFF	; 255
    394a:	89 81       	ldd	r24, Y+1	; 0x01
    394c:	9a 81       	ldd	r25, Y+2	; 0x02
    394e:	48 ee       	ldi	r20, 0xE8	; 232
    3950:	53 e0       	ldi	r21, 0x03	; 3
    3952:	ba 01       	movw	r22, r20
    3954:	0e 94 7e 30 	call	0x60fc	; 0x60fc <__divmodhi4>
    3958:	ab 01       	movw	r20, r22
    395a:	ca 01       	movw	r24, r20
    395c:	e8 2f       	mov	r30, r24
    395e:	89 81       	ldd	r24, Y+1	; 0x01
    3960:	9a 81       	ldd	r25, Y+2	; 0x02
    3962:	40 e1       	ldi	r20, 0x10	; 16
    3964:	57 e2       	ldi	r21, 0x27	; 39
    3966:	ba 01       	movw	r22, r20
    3968:	0e 94 7e 30 	call	0x60fc	; 0x60fc <__divmodhi4>
    396c:	ab 01       	movw	r20, r22
    396e:	ca 01       	movw	r24, r20
    3970:	88 0f       	add	r24, r24
    3972:	98 2f       	mov	r25, r24
    3974:	99 0f       	add	r25, r25
    3976:	99 0f       	add	r25, r25
    3978:	89 0f       	add	r24, r25
    397a:	81 95       	neg	r24
    397c:	8e 0f       	add	r24, r30
    397e:	80 5d       	subi	r24, 0xD0	; 208
    3980:	f9 01       	movw	r30, r18
    3982:	80 83       	st	Z, r24
	if(((dd/10000)==0)&&((dd/1000)==0)&&((dd/100)==0))str[2]=32; else str[2]=(dd/100)-((dd/1000)*10)+48;
    3984:	89 81       	ldd	r24, Y+1	; 0x01
    3986:	9a 81       	ldd	r25, Y+2	; 0x02
    3988:	81 5f       	subi	r24, 0xF1	; 241
    398a:	98 4d       	sbci	r25, 0xD8	; 216
    398c:	fe e4       	ldi	r31, 0x4E	; 78
    398e:	8f 31       	cpi	r24, 0x1F	; 31
    3990:	9f 07       	cpc	r25, r31
    3992:	b0 f4       	brcc	.+44     	; 0x39c0 <inttostr+0xfc>
    3994:	89 81       	ldd	r24, Y+1	; 0x01
    3996:	9a 81       	ldd	r25, Y+2	; 0x02
    3998:	89 51       	subi	r24, 0x19	; 25
    399a:	9c 4f       	sbci	r25, 0xFC	; 252
    399c:	27 e0       	ldi	r18, 0x07	; 7
    399e:	8f 3c       	cpi	r24, 0xCF	; 207
    39a0:	92 07       	cpc	r25, r18
    39a2:	70 f4       	brcc	.+28     	; 0x39c0 <inttostr+0xfc>
    39a4:	89 81       	ldd	r24, Y+1	; 0x01
    39a6:	9a 81       	ldd	r25, Y+2	; 0x02
    39a8:	8d 59       	subi	r24, 0x9D	; 157
    39aa:	9f 4f       	sbci	r25, 0xFF	; 255
    39ac:	87 3c       	cpi	r24, 0xC7	; 199
    39ae:	91 05       	cpc	r25, r1
    39b0:	38 f4       	brcc	.+14     	; 0x39c0 <inttostr+0xfc>
    39b2:	8b 81       	ldd	r24, Y+3	; 0x03
    39b4:	9c 81       	ldd	r25, Y+4	; 0x04
    39b6:	02 96       	adiw	r24, 0x02	; 2
    39b8:	20 e2       	ldi	r18, 0x20	; 32
    39ba:	fc 01       	movw	r30, r24
    39bc:	20 83       	st	Z, r18
    39be:	22 c0       	rjmp	.+68     	; 0x3a04 <inttostr+0x140>
    39c0:	8b 81       	ldd	r24, Y+3	; 0x03
    39c2:	9c 81       	ldd	r25, Y+4	; 0x04
    39c4:	9c 01       	movw	r18, r24
    39c6:	2e 5f       	subi	r18, 0xFE	; 254
    39c8:	3f 4f       	sbci	r19, 0xFF	; 255
    39ca:	89 81       	ldd	r24, Y+1	; 0x01
    39cc:	9a 81       	ldd	r25, Y+2	; 0x02
    39ce:	44 e6       	ldi	r20, 0x64	; 100
    39d0:	50 e0       	ldi	r21, 0x00	; 0
    39d2:	ba 01       	movw	r22, r20
    39d4:	0e 94 7e 30 	call	0x60fc	; 0x60fc <__divmodhi4>
    39d8:	ab 01       	movw	r20, r22
    39da:	ca 01       	movw	r24, r20
    39dc:	e8 2f       	mov	r30, r24
    39de:	89 81       	ldd	r24, Y+1	; 0x01
    39e0:	9a 81       	ldd	r25, Y+2	; 0x02
    39e2:	48 ee       	ldi	r20, 0xE8	; 232
    39e4:	53 e0       	ldi	r21, 0x03	; 3
    39e6:	ba 01       	movw	r22, r20
    39e8:	0e 94 7e 30 	call	0x60fc	; 0x60fc <__divmodhi4>
    39ec:	ab 01       	movw	r20, r22
    39ee:	ca 01       	movw	r24, r20
    39f0:	88 0f       	add	r24, r24
    39f2:	98 2f       	mov	r25, r24
    39f4:	99 0f       	add	r25, r25
    39f6:	99 0f       	add	r25, r25
    39f8:	89 0f       	add	r24, r25
    39fa:	81 95       	neg	r24
    39fc:	8e 0f       	add	r24, r30
    39fe:	80 5d       	subi	r24, 0xD0	; 208
    3a00:	f9 01       	movw	r30, r18
    3a02:	80 83       	st	Z, r24
	str[3]=(dd/10)-((dd/100)*10)+48;
    3a04:	8b 81       	ldd	r24, Y+3	; 0x03
    3a06:	9c 81       	ldd	r25, Y+4	; 0x04
    3a08:	9c 01       	movw	r18, r24
    3a0a:	2d 5f       	subi	r18, 0xFD	; 253
    3a0c:	3f 4f       	sbci	r19, 0xFF	; 255
    3a0e:	89 81       	ldd	r24, Y+1	; 0x01
    3a10:	9a 81       	ldd	r25, Y+2	; 0x02
    3a12:	4a e0       	ldi	r20, 0x0A	; 10
    3a14:	50 e0       	ldi	r21, 0x00	; 0
    3a16:	ba 01       	movw	r22, r20
    3a18:	0e 94 7e 30 	call	0x60fc	; 0x60fc <__divmodhi4>
    3a1c:	ab 01       	movw	r20, r22
    3a1e:	ca 01       	movw	r24, r20
    3a20:	e8 2f       	mov	r30, r24
    3a22:	89 81       	ldd	r24, Y+1	; 0x01
    3a24:	9a 81       	ldd	r25, Y+2	; 0x02
    3a26:	44 e6       	ldi	r20, 0x64	; 100
    3a28:	50 e0       	ldi	r21, 0x00	; 0
    3a2a:	ba 01       	movw	r22, r20
    3a2c:	0e 94 7e 30 	call	0x60fc	; 0x60fc <__divmodhi4>
    3a30:	ab 01       	movw	r20, r22
    3a32:	ca 01       	movw	r24, r20
    3a34:	88 0f       	add	r24, r24
    3a36:	98 2f       	mov	r25, r24
    3a38:	99 0f       	add	r25, r25
    3a3a:	99 0f       	add	r25, r25
    3a3c:	89 0f       	add	r24, r25
    3a3e:	81 95       	neg	r24
    3a40:	8e 0f       	add	r24, r30
    3a42:	80 5d       	subi	r24, 0xD0	; 208
    3a44:	f9 01       	movw	r30, r18
    3a46:	80 83       	st	Z, r24
	str[4]=dd-((dd/10)*10)+48;
    3a48:	8b 81       	ldd	r24, Y+3	; 0x03
    3a4a:	9c 81       	ldd	r25, Y+4	; 0x04
    3a4c:	9c 01       	movw	r18, r24
    3a4e:	2c 5f       	subi	r18, 0xFC	; 252
    3a50:	3f 4f       	sbci	r19, 0xFF	; 255
    3a52:	89 81       	ldd	r24, Y+1	; 0x01
    3a54:	9a 81       	ldd	r25, Y+2	; 0x02
    3a56:	4a e0       	ldi	r20, 0x0A	; 10
    3a58:	50 e0       	ldi	r21, 0x00	; 0
    3a5a:	ba 01       	movw	r22, r20
    3a5c:	0e 94 7e 30 	call	0x60fc	; 0x60fc <__divmodhi4>
    3a60:	80 5d       	subi	r24, 0xD0	; 208
    3a62:	f9 01       	movw	r30, r18
    3a64:	80 83       	st	Z, r24
	str[5]=0;
    3a66:	8b 81       	ldd	r24, Y+3	; 0x03
    3a68:	9c 81       	ldd	r25, Y+4	; 0x04
    3a6a:	05 96       	adiw	r24, 0x05	; 5
    3a6c:	fc 01       	movw	r30, r24
    3a6e:	10 82       	st	Z, r1
}
    3a70:	0f 90       	pop	r0
    3a72:	0f 90       	pop	r0
    3a74:	0f 90       	pop	r0
    3a76:	0f 90       	pop	r0
    3a78:	cf 91       	pop	r28
    3a7a:	df 91       	pop	r29
    3a7c:	08 95       	ret

00003a7e <inttostrA>:

void inttostrA(int dd,char *str)
{
    3a7e:	df 93       	push	r29
    3a80:	cf 93       	push	r28
    3a82:	00 d0       	rcall	.+0      	; 0x3a84 <inttostrA+0x6>
    3a84:	00 d0       	rcall	.+0      	; 0x3a86 <inttostrA+0x8>
    3a86:	cd b7       	in	r28, 0x3d	; 61
    3a88:	de b7       	in	r29, 0x3e	; 62
    3a8a:	9a 83       	std	Y+2, r25	; 0x02
    3a8c:	89 83       	std	Y+1, r24	; 0x01
    3a8e:	7c 83       	std	Y+4, r23	; 0x04
    3a90:	6b 83       	std	Y+3, r22	; 0x03
	if(((dd/10000)==0)&&((dd/1000)==0))str[0]=32; else str[0]=(dd/1000)-((dd/10000)*10)+48;
    3a92:	89 81       	ldd	r24, Y+1	; 0x01
    3a94:	9a 81       	ldd	r25, Y+2	; 0x02
    3a96:	81 5f       	subi	r24, 0xF1	; 241
    3a98:	98 4d       	sbci	r25, 0xD8	; 216
    3a9a:	2e e4       	ldi	r18, 0x4E	; 78
    3a9c:	8f 31       	cpi	r24, 0x1F	; 31
    3a9e:	92 07       	cpc	r25, r18
    3aa0:	70 f4       	brcc	.+28     	; 0x3abe <inttostrA+0x40>
    3aa2:	89 81       	ldd	r24, Y+1	; 0x01
    3aa4:	9a 81       	ldd	r25, Y+2	; 0x02
    3aa6:	89 51       	subi	r24, 0x19	; 25
    3aa8:	9c 4f       	sbci	r25, 0xFC	; 252
    3aaa:	e7 e0       	ldi	r30, 0x07	; 7
    3aac:	8f 3c       	cpi	r24, 0xCF	; 207
    3aae:	9e 07       	cpc	r25, r30
    3ab0:	30 f4       	brcc	.+12     	; 0x3abe <inttostrA+0x40>
    3ab2:	8b 81       	ldd	r24, Y+3	; 0x03
    3ab4:	9c 81       	ldd	r25, Y+4	; 0x04
    3ab6:	20 e2       	ldi	r18, 0x20	; 32
    3ab8:	fc 01       	movw	r30, r24
    3aba:	20 83       	st	Z, r18
    3abc:	20 c0       	rjmp	.+64     	; 0x3afe <inttostrA+0x80>
    3abe:	89 81       	ldd	r24, Y+1	; 0x01
    3ac0:	9a 81       	ldd	r25, Y+2	; 0x02
    3ac2:	28 ee       	ldi	r18, 0xE8	; 232
    3ac4:	33 e0       	ldi	r19, 0x03	; 3
    3ac6:	b9 01       	movw	r22, r18
    3ac8:	0e 94 7e 30 	call	0x60fc	; 0x60fc <__divmodhi4>
    3acc:	9b 01       	movw	r18, r22
    3ace:	c9 01       	movw	r24, r18
    3ad0:	48 2f       	mov	r20, r24
    3ad2:	89 81       	ldd	r24, Y+1	; 0x01
    3ad4:	9a 81       	ldd	r25, Y+2	; 0x02
    3ad6:	20 e1       	ldi	r18, 0x10	; 16
    3ad8:	37 e2       	ldi	r19, 0x27	; 39
    3ada:	b9 01       	movw	r22, r18
    3adc:	0e 94 7e 30 	call	0x60fc	; 0x60fc <__divmodhi4>
    3ae0:	9b 01       	movw	r18, r22
    3ae2:	c9 01       	movw	r24, r18
    3ae4:	88 0f       	add	r24, r24
    3ae6:	98 2f       	mov	r25, r24
    3ae8:	99 0f       	add	r25, r25
    3aea:	99 0f       	add	r25, r25
    3aec:	89 0f       	add	r24, r25
    3aee:	81 95       	neg	r24
    3af0:	84 0f       	add	r24, r20
    3af2:	28 2f       	mov	r18, r24
    3af4:	20 5d       	subi	r18, 0xD0	; 208
    3af6:	8b 81       	ldd	r24, Y+3	; 0x03
    3af8:	9c 81       	ldd	r25, Y+4	; 0x04
    3afa:	fc 01       	movw	r30, r24
    3afc:	20 83       	st	Z, r18
	if(((dd/10000)==0)&&((dd/1000)==0)&&((dd/100)==0))str[1]=32; else str[1]=(dd/100)-((dd/1000)*10)+48;
    3afe:	89 81       	ldd	r24, Y+1	; 0x01
    3b00:	9a 81       	ldd	r25, Y+2	; 0x02
    3b02:	81 5f       	subi	r24, 0xF1	; 241
    3b04:	98 4d       	sbci	r25, 0xD8	; 216
    3b06:	fe e4       	ldi	r31, 0x4E	; 78
    3b08:	8f 31       	cpi	r24, 0x1F	; 31
    3b0a:	9f 07       	cpc	r25, r31
    3b0c:	b0 f4       	brcc	.+44     	; 0x3b3a <inttostrA+0xbc>
    3b0e:	89 81       	ldd	r24, Y+1	; 0x01
    3b10:	9a 81       	ldd	r25, Y+2	; 0x02
    3b12:	89 51       	subi	r24, 0x19	; 25
    3b14:	9c 4f       	sbci	r25, 0xFC	; 252
    3b16:	27 e0       	ldi	r18, 0x07	; 7
    3b18:	8f 3c       	cpi	r24, 0xCF	; 207
    3b1a:	92 07       	cpc	r25, r18
    3b1c:	70 f4       	brcc	.+28     	; 0x3b3a <inttostrA+0xbc>
    3b1e:	89 81       	ldd	r24, Y+1	; 0x01
    3b20:	9a 81       	ldd	r25, Y+2	; 0x02
    3b22:	8d 59       	subi	r24, 0x9D	; 157
    3b24:	9f 4f       	sbci	r25, 0xFF	; 255
    3b26:	87 3c       	cpi	r24, 0xC7	; 199
    3b28:	91 05       	cpc	r25, r1
    3b2a:	38 f4       	brcc	.+14     	; 0x3b3a <inttostrA+0xbc>
    3b2c:	8b 81       	ldd	r24, Y+3	; 0x03
    3b2e:	9c 81       	ldd	r25, Y+4	; 0x04
    3b30:	01 96       	adiw	r24, 0x01	; 1
    3b32:	20 e2       	ldi	r18, 0x20	; 32
    3b34:	fc 01       	movw	r30, r24
    3b36:	20 83       	st	Z, r18
    3b38:	22 c0       	rjmp	.+68     	; 0x3b7e <inttostrA+0x100>
    3b3a:	8b 81       	ldd	r24, Y+3	; 0x03
    3b3c:	9c 81       	ldd	r25, Y+4	; 0x04
    3b3e:	9c 01       	movw	r18, r24
    3b40:	2f 5f       	subi	r18, 0xFF	; 255
    3b42:	3f 4f       	sbci	r19, 0xFF	; 255
    3b44:	89 81       	ldd	r24, Y+1	; 0x01
    3b46:	9a 81       	ldd	r25, Y+2	; 0x02
    3b48:	44 e6       	ldi	r20, 0x64	; 100
    3b4a:	50 e0       	ldi	r21, 0x00	; 0
    3b4c:	ba 01       	movw	r22, r20
    3b4e:	0e 94 7e 30 	call	0x60fc	; 0x60fc <__divmodhi4>
    3b52:	ab 01       	movw	r20, r22
    3b54:	ca 01       	movw	r24, r20
    3b56:	e8 2f       	mov	r30, r24
    3b58:	89 81       	ldd	r24, Y+1	; 0x01
    3b5a:	9a 81       	ldd	r25, Y+2	; 0x02
    3b5c:	48 ee       	ldi	r20, 0xE8	; 232
    3b5e:	53 e0       	ldi	r21, 0x03	; 3
    3b60:	ba 01       	movw	r22, r20
    3b62:	0e 94 7e 30 	call	0x60fc	; 0x60fc <__divmodhi4>
    3b66:	ab 01       	movw	r20, r22
    3b68:	ca 01       	movw	r24, r20
    3b6a:	88 0f       	add	r24, r24
    3b6c:	98 2f       	mov	r25, r24
    3b6e:	99 0f       	add	r25, r25
    3b70:	99 0f       	add	r25, r25
    3b72:	89 0f       	add	r24, r25
    3b74:	81 95       	neg	r24
    3b76:	8e 0f       	add	r24, r30
    3b78:	80 5d       	subi	r24, 0xD0	; 208
    3b7a:	f9 01       	movw	r30, r18
    3b7c:	80 83       	st	Z, r24
	str[2]=(dd/10)-((dd/100)*10)+48;
    3b7e:	8b 81       	ldd	r24, Y+3	; 0x03
    3b80:	9c 81       	ldd	r25, Y+4	; 0x04
    3b82:	9c 01       	movw	r18, r24
    3b84:	2e 5f       	subi	r18, 0xFE	; 254
    3b86:	3f 4f       	sbci	r19, 0xFF	; 255
    3b88:	89 81       	ldd	r24, Y+1	; 0x01
    3b8a:	9a 81       	ldd	r25, Y+2	; 0x02
    3b8c:	4a e0       	ldi	r20, 0x0A	; 10
    3b8e:	50 e0       	ldi	r21, 0x00	; 0
    3b90:	ba 01       	movw	r22, r20
    3b92:	0e 94 7e 30 	call	0x60fc	; 0x60fc <__divmodhi4>
    3b96:	ab 01       	movw	r20, r22
    3b98:	ca 01       	movw	r24, r20
    3b9a:	e8 2f       	mov	r30, r24
    3b9c:	89 81       	ldd	r24, Y+1	; 0x01
    3b9e:	9a 81       	ldd	r25, Y+2	; 0x02
    3ba0:	44 e6       	ldi	r20, 0x64	; 100
    3ba2:	50 e0       	ldi	r21, 0x00	; 0
    3ba4:	ba 01       	movw	r22, r20
    3ba6:	0e 94 7e 30 	call	0x60fc	; 0x60fc <__divmodhi4>
    3baa:	ab 01       	movw	r20, r22
    3bac:	ca 01       	movw	r24, r20
    3bae:	88 0f       	add	r24, r24
    3bb0:	98 2f       	mov	r25, r24
    3bb2:	99 0f       	add	r25, r25
    3bb4:	99 0f       	add	r25, r25
    3bb6:	89 0f       	add	r24, r25
    3bb8:	81 95       	neg	r24
    3bba:	8e 0f       	add	r24, r30
    3bbc:	80 5d       	subi	r24, 0xD0	; 208
    3bbe:	f9 01       	movw	r30, r18
    3bc0:	80 83       	st	Z, r24
	str[3]=0x2E;
    3bc2:	8b 81       	ldd	r24, Y+3	; 0x03
    3bc4:	9c 81       	ldd	r25, Y+4	; 0x04
    3bc6:	03 96       	adiw	r24, 0x03	; 3
    3bc8:	2e e2       	ldi	r18, 0x2E	; 46
    3bca:	fc 01       	movw	r30, r24
    3bcc:	20 83       	st	Z, r18
	str[4]=dd-((dd/10)*10)+48;
    3bce:	8b 81       	ldd	r24, Y+3	; 0x03
    3bd0:	9c 81       	ldd	r25, Y+4	; 0x04
    3bd2:	9c 01       	movw	r18, r24
    3bd4:	2c 5f       	subi	r18, 0xFC	; 252
    3bd6:	3f 4f       	sbci	r19, 0xFF	; 255
    3bd8:	89 81       	ldd	r24, Y+1	; 0x01
    3bda:	9a 81       	ldd	r25, Y+2	; 0x02
    3bdc:	4a e0       	ldi	r20, 0x0A	; 10
    3bde:	50 e0       	ldi	r21, 0x00	; 0
    3be0:	ba 01       	movw	r22, r20
    3be2:	0e 94 7e 30 	call	0x60fc	; 0x60fc <__divmodhi4>
    3be6:	80 5d       	subi	r24, 0xD0	; 208
    3be8:	f9 01       	movw	r30, r18
    3bea:	80 83       	st	Z, r24
	str[5]=0;
    3bec:	8b 81       	ldd	r24, Y+3	; 0x03
    3bee:	9c 81       	ldd	r25, Y+4	; 0x04
    3bf0:	05 96       	adiw	r24, 0x05	; 5
    3bf2:	fc 01       	movw	r30, r24
    3bf4:	10 82       	st	Z, r1
}
    3bf6:	0f 90       	pop	r0
    3bf8:	0f 90       	pop	r0
    3bfa:	0f 90       	pop	r0
    3bfc:	0f 90       	pop	r0
    3bfe:	cf 91       	pop	r28
    3c00:	df 91       	pop	r29
    3c02:	08 95       	ret

00003c04 <inttostrC>:

void inttostrC(int dd,char *str)
{
    3c04:	df 93       	push	r29
    3c06:	cf 93       	push	r28
    3c08:	00 d0       	rcall	.+0      	; 0x3c0a <inttostrC+0x6>
    3c0a:	00 d0       	rcall	.+0      	; 0x3c0c <inttostrC+0x8>
    3c0c:	cd b7       	in	r28, 0x3d	; 61
    3c0e:	de b7       	in	r29, 0x3e	; 62
    3c10:	9a 83       	std	Y+2, r25	; 0x02
    3c12:	89 83       	std	Y+1, r24	; 0x01
    3c14:	7c 83       	std	Y+4, r23	; 0x04
    3c16:	6b 83       	std	Y+3, r22	; 0x03
	if(((dd/10000)==0)&&((dd/1000)==0)&&((dd/100)==0))str[0]=32; else str[0]=(dd/100)-((dd/1000)*10)+48;
    3c18:	89 81       	ldd	r24, Y+1	; 0x01
    3c1a:	9a 81       	ldd	r25, Y+2	; 0x02
    3c1c:	81 5f       	subi	r24, 0xF1	; 241
    3c1e:	98 4d       	sbci	r25, 0xD8	; 216
    3c20:	2e e4       	ldi	r18, 0x4E	; 78
    3c22:	8f 31       	cpi	r24, 0x1F	; 31
    3c24:	92 07       	cpc	r25, r18
    3c26:	a8 f4       	brcc	.+42     	; 0x3c52 <inttostrC+0x4e>
    3c28:	89 81       	ldd	r24, Y+1	; 0x01
    3c2a:	9a 81       	ldd	r25, Y+2	; 0x02
    3c2c:	89 51       	subi	r24, 0x19	; 25
    3c2e:	9c 4f       	sbci	r25, 0xFC	; 252
    3c30:	e7 e0       	ldi	r30, 0x07	; 7
    3c32:	8f 3c       	cpi	r24, 0xCF	; 207
    3c34:	9e 07       	cpc	r25, r30
    3c36:	68 f4       	brcc	.+26     	; 0x3c52 <inttostrC+0x4e>
    3c38:	89 81       	ldd	r24, Y+1	; 0x01
    3c3a:	9a 81       	ldd	r25, Y+2	; 0x02
    3c3c:	8d 59       	subi	r24, 0x9D	; 157
    3c3e:	9f 4f       	sbci	r25, 0xFF	; 255
    3c40:	87 3c       	cpi	r24, 0xC7	; 199
    3c42:	91 05       	cpc	r25, r1
    3c44:	30 f4       	brcc	.+12     	; 0x3c52 <inttostrC+0x4e>
    3c46:	8b 81       	ldd	r24, Y+3	; 0x03
    3c48:	9c 81       	ldd	r25, Y+4	; 0x04
    3c4a:	20 e2       	ldi	r18, 0x20	; 32
    3c4c:	fc 01       	movw	r30, r24
    3c4e:	20 83       	st	Z, r18
    3c50:	20 c0       	rjmp	.+64     	; 0x3c92 <inttostrC+0x8e>
    3c52:	89 81       	ldd	r24, Y+1	; 0x01
    3c54:	9a 81       	ldd	r25, Y+2	; 0x02
    3c56:	24 e6       	ldi	r18, 0x64	; 100
    3c58:	30 e0       	ldi	r19, 0x00	; 0
    3c5a:	b9 01       	movw	r22, r18
    3c5c:	0e 94 7e 30 	call	0x60fc	; 0x60fc <__divmodhi4>
    3c60:	9b 01       	movw	r18, r22
    3c62:	c9 01       	movw	r24, r18
    3c64:	48 2f       	mov	r20, r24
    3c66:	89 81       	ldd	r24, Y+1	; 0x01
    3c68:	9a 81       	ldd	r25, Y+2	; 0x02
    3c6a:	28 ee       	ldi	r18, 0xE8	; 232
    3c6c:	33 e0       	ldi	r19, 0x03	; 3
    3c6e:	b9 01       	movw	r22, r18
    3c70:	0e 94 7e 30 	call	0x60fc	; 0x60fc <__divmodhi4>
    3c74:	9b 01       	movw	r18, r22
    3c76:	c9 01       	movw	r24, r18
    3c78:	88 0f       	add	r24, r24
    3c7a:	98 2f       	mov	r25, r24
    3c7c:	99 0f       	add	r25, r25
    3c7e:	99 0f       	add	r25, r25
    3c80:	89 0f       	add	r24, r25
    3c82:	81 95       	neg	r24
    3c84:	84 0f       	add	r24, r20
    3c86:	28 2f       	mov	r18, r24
    3c88:	20 5d       	subi	r18, 0xD0	; 208
    3c8a:	8b 81       	ldd	r24, Y+3	; 0x03
    3c8c:	9c 81       	ldd	r25, Y+4	; 0x04
    3c8e:	fc 01       	movw	r30, r24
    3c90:	20 83       	st	Z, r18
	str[1]=(dd/10)-((dd/100)*10)+48;
    3c92:	8b 81       	ldd	r24, Y+3	; 0x03
    3c94:	9c 81       	ldd	r25, Y+4	; 0x04
    3c96:	9c 01       	movw	r18, r24
    3c98:	2f 5f       	subi	r18, 0xFF	; 255
    3c9a:	3f 4f       	sbci	r19, 0xFF	; 255
    3c9c:	89 81       	ldd	r24, Y+1	; 0x01
    3c9e:	9a 81       	ldd	r25, Y+2	; 0x02
    3ca0:	4a e0       	ldi	r20, 0x0A	; 10
    3ca2:	50 e0       	ldi	r21, 0x00	; 0
    3ca4:	ba 01       	movw	r22, r20
    3ca6:	0e 94 7e 30 	call	0x60fc	; 0x60fc <__divmodhi4>
    3caa:	ab 01       	movw	r20, r22
    3cac:	ca 01       	movw	r24, r20
    3cae:	e8 2f       	mov	r30, r24
    3cb0:	89 81       	ldd	r24, Y+1	; 0x01
    3cb2:	9a 81       	ldd	r25, Y+2	; 0x02
    3cb4:	44 e6       	ldi	r20, 0x64	; 100
    3cb6:	50 e0       	ldi	r21, 0x00	; 0
    3cb8:	ba 01       	movw	r22, r20
    3cba:	0e 94 7e 30 	call	0x60fc	; 0x60fc <__divmodhi4>
    3cbe:	ab 01       	movw	r20, r22
    3cc0:	ca 01       	movw	r24, r20
    3cc2:	88 0f       	add	r24, r24
    3cc4:	98 2f       	mov	r25, r24
    3cc6:	99 0f       	add	r25, r25
    3cc8:	99 0f       	add	r25, r25
    3cca:	89 0f       	add	r24, r25
    3ccc:	81 95       	neg	r24
    3cce:	8e 0f       	add	r24, r30
    3cd0:	80 5d       	subi	r24, 0xD0	; 208
    3cd2:	f9 01       	movw	r30, r18
    3cd4:	80 83       	st	Z, r24
	str[2]=dd-((dd/10)*10)+48;
    3cd6:	8b 81       	ldd	r24, Y+3	; 0x03
    3cd8:	9c 81       	ldd	r25, Y+4	; 0x04
    3cda:	9c 01       	movw	r18, r24
    3cdc:	2e 5f       	subi	r18, 0xFE	; 254
    3cde:	3f 4f       	sbci	r19, 0xFF	; 255
    3ce0:	89 81       	ldd	r24, Y+1	; 0x01
    3ce2:	9a 81       	ldd	r25, Y+2	; 0x02
    3ce4:	4a e0       	ldi	r20, 0x0A	; 10
    3ce6:	50 e0       	ldi	r21, 0x00	; 0
    3ce8:	ba 01       	movw	r22, r20
    3cea:	0e 94 7e 30 	call	0x60fc	; 0x60fc <__divmodhi4>
    3cee:	80 5d       	subi	r24, 0xD0	; 208
    3cf0:	f9 01       	movw	r30, r18
    3cf2:	80 83       	st	Z, r24
	str[3]=0x24;
    3cf4:	8b 81       	ldd	r24, Y+3	; 0x03
    3cf6:	9c 81       	ldd	r25, Y+4	; 0x04
    3cf8:	03 96       	adiw	r24, 0x03	; 3
    3cfa:	24 e2       	ldi	r18, 0x24	; 36
    3cfc:	fc 01       	movw	r30, r24
    3cfe:	20 83       	st	Z, r18
	str[4]=0x43;
    3d00:	8b 81       	ldd	r24, Y+3	; 0x03
    3d02:	9c 81       	ldd	r25, Y+4	; 0x04
    3d04:	04 96       	adiw	r24, 0x04	; 4
    3d06:	23 e4       	ldi	r18, 0x43	; 67
    3d08:	fc 01       	movw	r30, r24
    3d0a:	20 83       	st	Z, r18
	str[5]=0;
    3d0c:	8b 81       	ldd	r24, Y+3	; 0x03
    3d0e:	9c 81       	ldd	r25, Y+4	; 0x04
    3d10:	05 96       	adiw	r24, 0x05	; 5
    3d12:	fc 01       	movw	r30, r24
    3d14:	10 82       	st	Z, r1
    3d16:	0f 90       	pop	r0
    3d18:	0f 90       	pop	r0
    3d1a:	0f 90       	pop	r0
    3d1c:	0f 90       	pop	r0
    3d1e:	cf 91       	pop	r28
    3d20:	df 91       	pop	r29
    3d22:	08 95       	ret

00003d24 <port_Init>:
#include "usart1.h"
#include "usart0.h"
#include <avr/interrupt.h>

void port_Init(void)
{
    3d24:	df 93       	push	r29
    3d26:	cf 93       	push	r28
    3d28:	cd b7       	in	r28, 0x3d	; 61
    3d2a:	de b7       	in	r29, 0x3e	; 62
 	  PORTA = 0x01;
    3d2c:	8b e3       	ldi	r24, 0x3B	; 59
    3d2e:	90 e0       	ldi	r25, 0x00	; 0
    3d30:	21 e0       	ldi	r18, 0x01	; 1
    3d32:	fc 01       	movw	r30, r24
    3d34:	20 83       	st	Z, r18
 	  DDRA  = 0xFF;
    3d36:	8a e3       	ldi	r24, 0x3A	; 58
    3d38:	90 e0       	ldi	r25, 0x00	; 0
    3d3a:	2f ef       	ldi	r18, 0xFF	; 255
    3d3c:	fc 01       	movw	r30, r24
    3d3e:	20 83       	st	Z, r18
 	  PORTB = 0x40;
    3d40:	88 e3       	ldi	r24, 0x38	; 56
    3d42:	90 e0       	ldi	r25, 0x00	; 0
    3d44:	20 e4       	ldi	r18, 0x40	; 64
    3d46:	fc 01       	movw	r30, r24
    3d48:	20 83       	st	Z, r18
 	  DDRB  = 0xFF;
    3d4a:	87 e3       	ldi	r24, 0x37	; 55
    3d4c:	90 e0       	ldi	r25, 0x00	; 0
    3d4e:	2f ef       	ldi	r18, 0xFF	; 255
    3d50:	fc 01       	movw	r30, r24
    3d52:	20 83       	st	Z, r18
 	  PORTC = 0x00;
    3d54:	85 e3       	ldi	r24, 0x35	; 53
    3d56:	90 e0       	ldi	r25, 0x00	; 0
    3d58:	fc 01       	movw	r30, r24
    3d5a:	10 82       	st	Z, r1
 	  DDRC  = 0xFF;
    3d5c:	84 e3       	ldi	r24, 0x34	; 52
    3d5e:	90 e0       	ldi	r25, 0x00	; 0
    3d60:	2f ef       	ldi	r18, 0xFF	; 255
    3d62:	fc 01       	movw	r30, r24
    3d64:	20 83       	st	Z, r18
 	  PORTD = 0x00;
    3d66:	82 e3       	ldi	r24, 0x32	; 50
    3d68:	90 e0       	ldi	r25, 0x00	; 0
    3d6a:	fc 01       	movw	r30, r24
    3d6c:	10 82       	st	Z, r1
 	  DDRD  = 0xE1;
    3d6e:	81 e3       	ldi	r24, 0x31	; 49
    3d70:	90 e0       	ldi	r25, 0x00	; 0
    3d72:	21 ee       	ldi	r18, 0xE1	; 225
    3d74:	fc 01       	movw	r30, r24
    3d76:	20 83       	st	Z, r18
	  PORTE = 0x04;
    3d78:	83 e2       	ldi	r24, 0x23	; 35
    3d7a:	90 e0       	ldi	r25, 0x00	; 0
    3d7c:	24 e0       	ldi	r18, 0x04	; 4
    3d7e:	fc 01       	movw	r30, r24
    3d80:	20 83       	st	Z, r18
 	  DDRE  = 0xFE;
    3d82:	82 e2       	ldi	r24, 0x22	; 34
    3d84:	90 e0       	ldi	r25, 0x00	; 0
    3d86:	2e ef       	ldi	r18, 0xFE	; 254
    3d88:	fc 01       	movw	r30, r24
    3d8a:	20 83       	st	Z, r18
	  PORTF = 0x00;
    3d8c:	82 e6       	ldi	r24, 0x62	; 98
    3d8e:	90 e0       	ldi	r25, 0x00	; 0
    3d90:	fc 01       	movw	r30, r24
    3d92:	10 82       	st	Z, r1
 	  DDRF  = 0xFF;
    3d94:	81 e6       	ldi	r24, 0x61	; 97
    3d96:	90 e0       	ldi	r25, 0x00	; 0
    3d98:	2f ef       	ldi	r18, 0xFF	; 255
    3d9a:	fc 01       	movw	r30, r24
    3d9c:	20 83       	st	Z, r18
	  PORTG = 0x00;
    3d9e:	85 e6       	ldi	r24, 0x65	; 101
    3da0:	90 e0       	ldi	r25, 0x00	; 0
    3da2:	fc 01       	movw	r30, r24
    3da4:	10 82       	st	Z, r1
 	  DDRG  = 0xFB;
    3da6:	84 e6       	ldi	r24, 0x64	; 100
    3da8:	90 e0       	ldi	r25, 0x00	; 0
    3daa:	2b ef       	ldi	r18, 0xFB	; 251
    3dac:	fc 01       	movw	r30, r24
    3dae:	20 83       	st	Z, r18
}
    3db0:	cf 91       	pop	r28
    3db2:	df 91       	pop	r29
    3db4:	08 95       	ret

00003db6 <init_devices>:

void init_devices(void)
{
    3db6:	df 93       	push	r29
    3db8:	cf 93       	push	r28
    3dba:	cd b7       	in	r28, 0x3d	; 61
    3dbc:	de b7       	in	r29, 0x3e	; 62
 	 cli();
    3dbe:	f8 94       	cli
	 port_Init();
    3dc0:	0e 94 92 1e 	call	0x3d24	; 0x3d24 <port_Init>
	 uart0_init();
    3dc4:	0e 94 19 26 	call	0x4c32	; 0x4c32 <uart0_init>
	 uart1_init();
    3dc8:	0e 94 12 2a 	call	0x5424	; 0x5424 <uart1_init>
 	 MCUCR = 0x00;
    3dcc:	85 e5       	ldi	r24, 0x55	; 85
    3dce:	90 e0       	ldi	r25, 0x00	; 0
    3dd0:	fc 01       	movw	r30, r24
    3dd2:	10 82       	st	Z, r1
 	 EICRA = 0x00; //extended ext ints
    3dd4:	8a e6       	ldi	r24, 0x6A	; 106
    3dd6:	90 e0       	ldi	r25, 0x00	; 0
    3dd8:	fc 01       	movw	r30, r24
    3dda:	10 82       	st	Z, r1
 	 EICRB = 0x00; //extended ext ints
    3ddc:	8a e5       	ldi	r24, 0x5A	; 90
    3dde:	90 e0       	ldi	r25, 0x00	; 0
    3de0:	fc 01       	movw	r30, r24
    3de2:	10 82       	st	Z, r1
 	 EIMSK = 0x00;
    3de4:	89 e5       	ldi	r24, 0x59	; 89
    3de6:	90 e0       	ldi	r25, 0x00	; 0
    3de8:	fc 01       	movw	r30, r24
    3dea:	10 82       	st	Z, r1
 	 TIMSK = 0x45; //timer interrupt sources
    3dec:	87 e5       	ldi	r24, 0x57	; 87
    3dee:	90 e0       	ldi	r25, 0x00	; 0
    3df0:	25 e4       	ldi	r18, 0x45	; 69
    3df2:	fc 01       	movw	r30, r24
    3df4:	20 83       	st	Z, r18
	 ETIMSK = 0x04; //extended timer interrupt sources
    3df6:	8d e7       	ldi	r24, 0x7D	; 125
    3df8:	90 e0       	ldi	r25, 0x00	; 0
    3dfa:	24 e0       	ldi	r18, 0x04	; 4
    3dfc:	fc 01       	movw	r30, r24
    3dfe:	20 83       	st	Z, r18
 	 sei();
    3e00:	78 94       	sei
}
    3e02:	cf 91       	pop	r28
    3e04:	df 91       	pop	r29
    3e06:	08 95       	ret

00003e08 <main>:

int main(void)
{
    3e08:	df 93       	push	r29
    3e0a:	cf 93       	push	r28
    3e0c:	cd b7       	in	r28, 0x3d	; 61
    3e0e:	de b7       	in	r29, 0x3e	; 62
 	init_devices();
    3e10:	0e 94 db 1e 	call	0x3db6	; 0x3db6 <init_devices>
	spistar();
    3e14:	0e 94 2d 21 	call	0x425a	; 0x425a <spistar>
	Lcd_Init();
    3e18:	0e 94 9f 17 	call	0x2f3e	; 0x2f3e <Lcd_Init>
	timer1_init();
    3e1c:	0e 94 3e 0e 	call	0x1c7c	; 0x1c7c <timer1_init>
	timer2_init();
    3e20:	0e 94 84 0e 	call	0x1d08	; 0x1d08 <timer2_init>
	timer3_init();
    3e24:	0e 94 99 0e 	call	0x1d32	; 0x1d32 <timer3_init>
	timer0_init();
    3e28:	0e 94 20 0e 	call	0x1c40	; 0x1c40 <timer0_init>
	ACBinit();
    3e2c:	0e 94 9e 15 	call	0x2b3c	; 0x2b3c <ACBinit>
	Mainfunction();
    3e30:	0e 94 87 12 	call	0x250e	; 0x250e <Mainfunction>
    3e34:	80 e0       	ldi	r24, 0x00	; 0
    3e36:	90 e0       	ldi	r25, 0x00	; 0

    3e38:	cf 91       	pop	r28
    3e3a:	df 91       	pop	r29
    3e3c:	08 95       	ret

00003e3e <DHTReadByte>:
#include "LCD.h"
#include "data.h"
unsigned int Sflag=1;

unsigned char DHTReadByte(void)//DHT11
{
    3e3e:	df 93       	push	r29
    3e40:	cf 93       	push	r28
    3e42:	00 d0       	rcall	.+0      	; 0x3e44 <DHTReadByte+0x6>
    3e44:	00 d0       	rcall	.+0      	; 0x3e46 <DHTReadByte+0x8>
    3e46:	00 d0       	rcall	.+0      	; 0x3e48 <DHTReadByte+0xa>
    3e48:	cd b7       	in	r28, 0x3d	; 61
    3e4a:	de b7       	in	r29, 0x3e	; 62
  unsigned char i,Data=0 ; 
    3e4c:	1a 82       	std	Y+2, r1	; 0x02
  unsigned int Jflag1=0,Jflag2=0;  
    3e4e:	1c 82       	std	Y+4, r1	; 0x04
    3e50:	1b 82       	std	Y+3, r1	; 0x03
    3e52:	1e 82       	std	Y+6, r1	; 0x06
    3e54:	1d 82       	std	Y+5, r1	; 0x05
  Sflag=1;
    3e56:	81 e0       	ldi	r24, 0x01	; 1
    3e58:	90 e0       	ldi	r25, 0x00	; 0
    3e5a:	90 93 0b 01 	sts	0x010B, r25
    3e5e:	80 93 0a 01 	sts	0x010A, r24
      DDRB&=0X7f;             //PD7ru
    3e62:	87 e3       	ldi	r24, 0x37	; 55
    3e64:	90 e0       	ldi	r25, 0x00	; 0
    3e66:	27 e3       	ldi	r18, 0x37	; 55
    3e68:	30 e0       	ldi	r19, 0x00	; 0
    3e6a:	f9 01       	movw	r30, r18
    3e6c:	20 81       	ld	r18, Z
    3e6e:	2f 77       	andi	r18, 0x7F	; 127
    3e70:	fc 01       	movw	r30, r24
    3e72:	20 83       	st	Z, r18
 for(i=0;i<8;i++)
    3e74:	19 82       	std	Y+1, r1	; 0x01
    3e76:	52 c0       	rjmp	.+164    	; 0x3f1c <DHTReadByte+0xde>
	 {
		 while((!(PINB&0X80))&&(Jflag1<50000))Jflag1++; //50us?	     
    3e78:	8b 81       	ldd	r24, Y+3	; 0x03
    3e7a:	9c 81       	ldd	r25, Y+4	; 0x04
    3e7c:	01 96       	adiw	r24, 0x01	; 1
    3e7e:	9c 83       	std	Y+4, r25	; 0x04
    3e80:	8b 83       	std	Y+3, r24	; 0x03
    3e82:	01 c0       	rjmp	.+2      	; 0x3e86 <DHTReadByte+0x48>
    3e84:	00 00       	nop
    3e86:	86 e3       	ldi	r24, 0x36	; 54
    3e88:	90 e0       	ldi	r25, 0x00	; 0
    3e8a:	fc 01       	movw	r30, r24
    3e8c:	80 81       	ld	r24, Z
    3e8e:	88 23       	and	r24, r24
    3e90:	34 f0       	brlt	.+12     	; 0x3e9e <DHTReadByte+0x60>
    3e92:	8b 81       	ldd	r24, Y+3	; 0x03
    3e94:	9c 81       	ldd	r25, Y+4	; 0x04
    3e96:	f3 ec       	ldi	r31, 0xC3	; 195
    3e98:	80 35       	cpi	r24, 0x50	; 80
    3e9a:	9f 07       	cpc	r25, r31
    3e9c:	68 f3       	brcs	.-38     	; 0x3e78 <DHTReadByte+0x3a>
		 //40us 26-28us
		 TCNT3H = 0xFF;
    3e9e:	89 e8       	ldi	r24, 0x89	; 137
    3ea0:	90 e0       	ldi	r25, 0x00	; 0
    3ea2:	2f ef       	ldi	r18, 0xFF	; 255
    3ea4:	fc 01       	movw	r30, r24
    3ea6:	20 83       	st	Z, r18
 		 TCNT3L = 0xF2;
    3ea8:	88 e8       	ldi	r24, 0x88	; 136
    3eaa:	90 e0       	ldi	r25, 0x00	; 0
    3eac:	22 ef       	ldi	r18, 0xF2	; 242
    3eae:	fc 01       	movw	r30, r24
    3eb0:	20 83       	st	Z, r18
		 TCCR3B = 0x03; 
    3eb2:	8a e8       	ldi	r24, 0x8A	; 138
    3eb4:	90 e0       	ldi	r25, 0x00	; 0
    3eb6:	23 e0       	ldi	r18, 0x03	; 3
    3eb8:	fc 01       	movw	r30, r24
    3eba:	20 83       	st	Z, r18
		 while(Sflag);
    3ebc:	00 00       	nop
    3ebe:	80 91 0a 01 	lds	r24, 0x010A
    3ec2:	90 91 0b 01 	lds	r25, 0x010B
    3ec6:	00 97       	sbiw	r24, 0x00	; 0
    3ec8:	d1 f7       	brne	.-12     	; 0x3ebe <DHTReadByte+0x80>
	     Sflag=1;
    3eca:	81 e0       	ldi	r24, 0x01	; 1
    3ecc:	90 e0       	ldi	r25, 0x00	; 0
    3ece:	90 93 0b 01 	sts	0x010B, r25
    3ed2:	80 93 0a 01 	sts	0x010A, r24
			Data<<=1;						
    3ed6:	8a 81       	ldd	r24, Y+2	; 0x02
    3ed8:	88 0f       	add	r24, r24
    3eda:	8a 83       	std	Y+2, r24	; 0x02
		  if((PINB&0X80)!=0)  //40us
    3edc:	86 e3       	ldi	r24, 0x36	; 54
    3ede:	90 e0       	ldi	r25, 0x00	; 0
    3ee0:	fc 01       	movw	r30, r24
    3ee2:	80 81       	ld	r24, Z
    3ee4:	88 23       	and	r24, r24
    3ee6:	54 f4       	brge	.+20     	; 0x3efc <DHTReadByte+0xbe>
			 {
			  Data|=0X01;
    3ee8:	8a 81       	ldd	r24, Y+2	; 0x02
    3eea:	81 60       	ori	r24, 0x01	; 1
    3eec:	8a 83       	std	Y+2, r24	; 0x02
			  }
		  else
			 {
			  Data|=0X00; 
			 }
		  while((PINB&0X80)&&(Jflag2<50000))Jflag2++;//50us ,
    3eee:	07 c0       	rjmp	.+14     	; 0x3efe <DHTReadByte+0xc0>
    3ef0:	8d 81       	ldd	r24, Y+5	; 0x05
    3ef2:	9e 81       	ldd	r25, Y+6	; 0x06
    3ef4:	01 96       	adiw	r24, 0x01	; 1
    3ef6:	9e 83       	std	Y+6, r25	; 0x06
    3ef8:	8d 83       	std	Y+5, r24	; 0x05
    3efa:	01 c0       	rjmp	.+2      	; 0x3efe <DHTReadByte+0xc0>
    3efc:	00 00       	nop
    3efe:	86 e3       	ldi	r24, 0x36	; 54
    3f00:	90 e0       	ldi	r25, 0x00	; 0
    3f02:	fc 01       	movw	r30, r24
    3f04:	80 81       	ld	r24, Z
    3f06:	88 23       	and	r24, r24
    3f08:	34 f4       	brge	.+12     	; 0x3f16 <DHTReadByte+0xd8>
    3f0a:	8d 81       	ldd	r24, Y+5	; 0x05
    3f0c:	9e 81       	ldd	r25, Y+6	; 0x06
    3f0e:	f3 ec       	ldi	r31, 0xC3	; 195
    3f10:	80 35       	cpi	r24, 0x50	; 80
    3f12:	9f 07       	cpc	r25, r31
    3f14:	68 f3       	brcs	.-38     	; 0x3ef0 <DHTReadByte+0xb2>
{
  unsigned char i,Data=0 ; 
  unsigned int Jflag1=0,Jflag2=0;  
  Sflag=1;
      DDRB&=0X7f;             //PD7ru
 for(i=0;i<8;i++)
    3f16:	89 81       	ldd	r24, Y+1	; 0x01
    3f18:	8f 5f       	subi	r24, 0xFF	; 255
    3f1a:	89 83       	std	Y+1, r24	; 0x01
    3f1c:	89 81       	ldd	r24, Y+1	; 0x01
    3f1e:	88 30       	cpi	r24, 0x08	; 8
    3f20:	08 f4       	brcc	.+2      	; 0x3f24 <DHTReadByte+0xe6>
    3f22:	b0 cf       	rjmp	.-160    	; 0x3e84 <DHTReadByte+0x46>
			 {
			  Data|=0X00; 
			 }
		  while((PINB&0X80)&&(Jflag2<50000))Jflag2++;//50us ,
	  }
	 return(Data);
    3f24:	8a 81       	ldd	r24, Y+2	; 0x02
}
    3f26:	26 96       	adiw	r28, 0x06	; 6
    3f28:	0f b6       	in	r0, 0x3f	; 63
    3f2a:	f8 94       	cli
    3f2c:	de bf       	out	0x3e, r29	; 62
    3f2e:	0f be       	out	0x3f, r0	; 63
    3f30:	cd bf       	out	0x3d, r28	; 61
    3f32:	cf 91       	pop	r28
    3f34:	df 91       	pop	r29
    3f36:	08 95       	ret

00003f38 <DHTReadData>:

void DHTReadData(void)//DHT11
{
    3f38:	0f 93       	push	r16
    3f3a:	1f 93       	push	r17
    3f3c:	df 93       	push	r29
    3f3e:	cf 93       	push	r28
    3f40:	cd b7       	in	r28, 0x3d	; 61
    3f42:	de b7       	in	r29, 0x3e	; 62
    3f44:	62 97       	sbiw	r28, 0x12	; 18
    3f46:	0f b6       	in	r0, 0x3f	; 63
    3f48:	f8 94       	cli
    3f4a:	de bf       	out	0x3e, r29	; 62
    3f4c:	0f be       	out	0x3f, r0	; 63
    3f4e:	cd bf       	out	0x3d, r28	; 61
 	
 	char ss[6];
	unsigned char i;
	unsigned char Data[5]={0,0,0,0,0};
    3f50:	25 e0       	ldi	r18, 0x05	; 5
    3f52:	ce 01       	movw	r24, r28
    3f54:	0e 96       	adiw	r24, 0x0e	; 14
    3f56:	fc 01       	movw	r30, r24
    3f58:	32 2f       	mov	r19, r18
    3f5a:	11 92       	st	Z+, r1
    3f5c:	3a 95       	dec	r19
    3f5e:	e9 f7       	brne	.-6      	; 0x3f5a <DHTReadData+0x22>
	unsigned int Jflag1=0,Jflag2=0,Jflag3=0;  
    3f60:	1b 82       	std	Y+3, r1	; 0x03
    3f62:	1a 82       	std	Y+2, r1	; 0x02
    3f64:	1d 82       	std	Y+5, r1	; 0x05
    3f66:	1c 82       	std	Y+4, r1	; 0x04
    3f68:	1f 82       	std	Y+7, r1	; 0x07
    3f6a:	1e 82       	std	Y+6, r1	; 0x06
	DDRB|=0X80;
    3f6c:	87 e3       	ldi	r24, 0x37	; 55
    3f6e:	90 e0       	ldi	r25, 0x00	; 0
    3f70:	27 e3       	ldi	r18, 0x37	; 55
    3f72:	30 e0       	ldi	r19, 0x00	; 0
    3f74:	f9 01       	movw	r30, r18
    3f76:	20 81       	ld	r18, Z
    3f78:	20 68       	ori	r18, 0x80	; 128
    3f7a:	fc 01       	movw	r30, r24
    3f7c:	20 83       	st	Z, r18
	Sflag=1;  
    3f7e:	81 e0       	ldi	r24, 0x01	; 1
    3f80:	90 e0       	ldi	r25, 0x00	; 0
    3f82:	90 93 0b 01 	sts	0x010B, r25
    3f86:	80 93 0a 01 	sts	0x010A, r24
	PORTB&=0X7f;      //
    3f8a:	88 e3       	ldi	r24, 0x38	; 56
    3f8c:	90 e0       	ldi	r25, 0x00	; 0
    3f8e:	28 e3       	ldi	r18, 0x38	; 56
    3f90:	30 e0       	ldi	r19, 0x00	; 0
    3f92:	f9 01       	movw	r30, r18
    3f94:	20 81       	ld	r18, Z
    3f96:	2f 77       	andi	r18, 0x7F	; 127
    3f98:	fc 01       	movw	r30, r24
    3f9a:	20 83       	st	Z, r18
	TCNT3H = 0xFF;  // 500us
    3f9c:	89 e8       	ldi	r24, 0x89	; 137
    3f9e:	90 e0       	ldi	r25, 0x00	; 0
    3fa0:	2f ef       	ldi	r18, 0xFF	; 255
    3fa2:	fc 01       	movw	r30, r24
    3fa4:	20 83       	st	Z, r18
 	TCNT3L = 0x6B;
    3fa6:	88 e8       	ldi	r24, 0x88	; 136
    3fa8:	90 e0       	ldi	r25, 0x00	; 0
    3faa:	2b e6       	ldi	r18, 0x6B	; 107
    3fac:	fc 01       	movw	r30, r24
    3fae:	20 83       	st	Z, r18
	TCCR3B = 0x03;
    3fb0:	8a e8       	ldi	r24, 0x8A	; 138
    3fb2:	90 e0       	ldi	r25, 0x00	; 0
    3fb4:	23 e0       	ldi	r18, 0x03	; 3
    3fb6:	fc 01       	movw	r30, r24
    3fb8:	20 83       	st	Z, r18
 	while(Sflag);
    3fba:	00 00       	nop
    3fbc:	80 91 0a 01 	lds	r24, 0x010A
    3fc0:	90 91 0b 01 	lds	r25, 0x010B
    3fc4:	00 97       	sbiw	r24, 0x00	; 0
    3fc6:	d1 f7       	brne	.-12     	; 0x3fbc <DHTReadData+0x84>
	Sflag=1;
    3fc8:	81 e0       	ldi	r24, 0x01	; 1
    3fca:	90 e0       	ldi	r25, 0x00	; 0
    3fcc:	90 93 0b 01 	sts	0x010B, r25
    3fd0:	80 93 0a 01 	sts	0x010A, r24

	PORTB|=0X80;  
    3fd4:	88 e3       	ldi	r24, 0x38	; 56
    3fd6:	90 e0       	ldi	r25, 0x00	; 0
    3fd8:	28 e3       	ldi	r18, 0x38	; 56
    3fda:	30 e0       	ldi	r19, 0x00	; 0
    3fdc:	f9 01       	movw	r30, r18
    3fde:	20 81       	ld	r18, Z
    3fe0:	20 68       	ori	r18, 0x80	; 128
    3fe2:	fc 01       	movw	r30, r24
    3fe4:	20 83       	st	Z, r18
	TCNT3H = 0xFF;
    3fe6:	89 e8       	ldi	r24, 0x89	; 137
    3fe8:	90 e0       	ldi	r25, 0x00	; 0
    3fea:	2f ef       	ldi	r18, 0xFF	; 255
    3fec:	fc 01       	movw	r30, r24
    3fee:	20 83       	st	Z, r18
 	TCNT3L = 0xF9;
    3ff0:	88 e8       	ldi	r24, 0x88	; 136
    3ff2:	90 e0       	ldi	r25, 0x00	; 0
    3ff4:	29 ef       	ldi	r18, 0xF9	; 249
    3ff6:	fc 01       	movw	r30, r24
    3ff8:	20 83       	st	Z, r18
	TCCR3B = 0x03;
    3ffa:	8a e8       	ldi	r24, 0x8A	; 138
    3ffc:	90 e0       	ldi	r25, 0x00	; 0
    3ffe:	23 e0       	ldi	r18, 0x03	; 3
    4000:	fc 01       	movw	r30, r24
    4002:	20 83       	st	Z, r18
 	while(Sflag);
    4004:	00 00       	nop
    4006:	80 91 0a 01 	lds	r24, 0x010A
    400a:	90 91 0b 01 	lds	r25, 0x010B
    400e:	00 97       	sbiw	r24, 0x00	; 0
    4010:	d1 f7       	brne	.-12     	; 0x4006 <DHTReadData+0xce>
	Sflag=1;
    4012:	81 e0       	ldi	r24, 0x01	; 1
    4014:	90 e0       	ldi	r25, 0x00	; 0
    4016:	90 93 0b 01 	sts	0x010B, r25
    401a:	80 93 0a 01 	sts	0x010A, r24
	
	PORTB&=0X7f;
    401e:	88 e3       	ldi	r24, 0x38	; 56
    4020:	90 e0       	ldi	r25, 0x00	; 0
    4022:	28 e3       	ldi	r18, 0x38	; 56
    4024:	30 e0       	ldi	r19, 0x00	; 0
    4026:	f9 01       	movw	r30, r18
    4028:	20 81       	ld	r18, Z
    402a:	2f 77       	andi	r18, 0x7F	; 127
    402c:	fc 01       	movw	r30, r24
    402e:	20 83       	st	Z, r18
	DDRB&=0X7f;
    4030:	87 e3       	ldi	r24, 0x37	; 55
    4032:	90 e0       	ldi	r25, 0x00	; 0
    4034:	27 e3       	ldi	r18, 0x37	; 55
    4036:	30 e0       	ldi	r19, 0x00	; 0
    4038:	f9 01       	movw	r30, r18
    403a:	20 81       	ld	r18, Z
    403c:	2f 77       	andi	r18, 0x7F	; 127
    403e:	fc 01       	movw	r30, r24
    4040:	20 83       	st	Z, r18

	while((PINB&0X80)&&(Jflag1<50000))Jflag1++;    
    4042:	05 c0       	rjmp	.+10     	; 0x404e <DHTReadData+0x116>
    4044:	8a 81       	ldd	r24, Y+2	; 0x02
    4046:	9b 81       	ldd	r25, Y+3	; 0x03
    4048:	01 96       	adiw	r24, 0x01	; 1
    404a:	9b 83       	std	Y+3, r25	; 0x03
    404c:	8a 83       	std	Y+2, r24	; 0x02
    404e:	86 e3       	ldi	r24, 0x36	; 54
    4050:	90 e0       	ldi	r25, 0x00	; 0
    4052:	fc 01       	movw	r30, r24
    4054:	80 81       	ld	r24, Z
    4056:	88 23       	and	r24, r24
    4058:	34 f4       	brge	.+12     	; 0x4066 <DHTReadData+0x12e>
    405a:	8a 81       	ldd	r24, Y+2	; 0x02
    405c:	9b 81       	ldd	r25, Y+3	; 0x03
    405e:	f3 ec       	ldi	r31, 0xC3	; 195
    4060:	80 35       	cpi	r24, 0x50	; 80
    4062:	9f 07       	cpc	r25, r31
    4064:	78 f3       	brcs	.-34     	; 0x4044 <DHTReadData+0x10c>
	if(!(PINB&0X80))
    4066:	86 e3       	ldi	r24, 0x36	; 54
    4068:	90 e0       	ldi	r25, 0x00	; 0
    406a:	fc 01       	movw	r30, r24
    406c:	80 81       	ld	r24, Z
    406e:	88 23       	and	r24, r24
    4070:	0c f4       	brge	.+2      	; 0x4074 <DHTReadData+0x13c>
    4072:	ba c0       	rjmp	.+372    	; 0x41e8 <DHTReadData+0x2b0>
	{
	    while((!(PINB&0X80))&&(Jflag2<50000))Jflag2++;
    4074:	05 c0       	rjmp	.+10     	; 0x4080 <DHTReadData+0x148>
    4076:	8c 81       	ldd	r24, Y+4	; 0x04
    4078:	9d 81       	ldd	r25, Y+5	; 0x05
    407a:	01 96       	adiw	r24, 0x01	; 1
    407c:	9d 83       	std	Y+5, r25	; 0x05
    407e:	8c 83       	std	Y+4, r24	; 0x04
    4080:	86 e3       	ldi	r24, 0x36	; 54
    4082:	90 e0       	ldi	r25, 0x00	; 0
    4084:	fc 01       	movw	r30, r24
    4086:	80 81       	ld	r24, Z
    4088:	88 23       	and	r24, r24
    408a:	6c f0       	brlt	.+26     	; 0x40a6 <DHTReadData+0x16e>
    408c:	8c 81       	ldd	r24, Y+4	; 0x04
    408e:	9d 81       	ldd	r25, Y+5	; 0x05
    4090:	f3 ec       	ldi	r31, 0xC3	; 195
    4092:	80 35       	cpi	r24, 0x50	; 80
    4094:	9f 07       	cpc	r25, r31
    4096:	78 f3       	brcs	.-34     	; 0x4076 <DHTReadData+0x13e>
		while((PINB&0X80)&&(Jflag3<50000))Jflag3++; 
    4098:	07 c0       	rjmp	.+14     	; 0x40a8 <DHTReadData+0x170>
    409a:	8e 81       	ldd	r24, Y+6	; 0x06
    409c:	9f 81       	ldd	r25, Y+7	; 0x07
    409e:	01 96       	adiw	r24, 0x01	; 1
    40a0:	9f 83       	std	Y+7, r25	; 0x07
    40a2:	8e 83       	std	Y+6, r24	; 0x06
    40a4:	01 c0       	rjmp	.+2      	; 0x40a8 <DHTReadData+0x170>
    40a6:	00 00       	nop
    40a8:	86 e3       	ldi	r24, 0x36	; 54
    40aa:	90 e0       	ldi	r25, 0x00	; 0
    40ac:	fc 01       	movw	r30, r24
    40ae:	80 81       	ld	r24, Z
    40b0:	88 23       	and	r24, r24
    40b2:	34 f4       	brge	.+12     	; 0x40c0 <DHTReadData+0x188>
    40b4:	8e 81       	ldd	r24, Y+6	; 0x06
    40b6:	9f 81       	ldd	r25, Y+7	; 0x07
    40b8:	f3 ec       	ldi	r31, 0xC3	; 195
    40ba:	80 35       	cpi	r24, 0x50	; 80
    40bc:	9f 07       	cpc	r25, r31
    40be:	68 f3       	brcs	.-38     	; 0x409a <DHTReadData+0x162>
		for(i=0;i<5;i++)
    40c0:	19 82       	std	Y+1, r1	; 0x01
    40c2:	0f c0       	rjmp	.+30     	; 0x40e2 <DHTReadData+0x1aa>
	    {
	       	 Data[i]=DHTReadByte();
    40c4:	89 81       	ldd	r24, Y+1	; 0x01
    40c6:	08 2f       	mov	r16, r24
    40c8:	10 e0       	ldi	r17, 0x00	; 0
    40ca:	0e 94 1f 1f 	call	0x3e3e	; 0x3e3e <DHTReadByte>
    40ce:	28 2f       	mov	r18, r24
    40d0:	ce 01       	movw	r24, r28
    40d2:	0e 96       	adiw	r24, 0x0e	; 14
    40d4:	80 0f       	add	r24, r16
    40d6:	91 1f       	adc	r25, r17
    40d8:	fc 01       	movw	r30, r24
    40da:	20 83       	st	Z, r18
	while((PINB&0X80)&&(Jflag1<50000))Jflag1++;    
	if(!(PINB&0X80))
	{
	    while((!(PINB&0X80))&&(Jflag2<50000))Jflag2++;
		while((PINB&0X80)&&(Jflag3<50000))Jflag3++; 
		for(i=0;i<5;i++)
    40dc:	89 81       	ldd	r24, Y+1	; 0x01
    40de:	8f 5f       	subi	r24, 0xFF	; 255
    40e0:	89 83       	std	Y+1, r24	; 0x01
    40e2:	89 81       	ldd	r24, Y+1	; 0x01
    40e4:	85 30       	cpi	r24, 0x05	; 5
    40e6:	70 f3       	brcs	.-36     	; 0x40c4 <DHTReadData+0x18c>
	    {
	       	 Data[i]=DHTReadByte();
		}
		if(((Data[0]+Data[1]+Data[2]+Data[3])%0x100)==Data[4])
    40e8:	8e 85       	ldd	r24, Y+14	; 0x0e
    40ea:	28 2f       	mov	r18, r24
    40ec:	30 e0       	ldi	r19, 0x00	; 0
    40ee:	8f 85       	ldd	r24, Y+15	; 0x0f
    40f0:	88 2f       	mov	r24, r24
    40f2:	90 e0       	ldi	r25, 0x00	; 0
    40f4:	28 0f       	add	r18, r24
    40f6:	39 1f       	adc	r19, r25
    40f8:	88 89       	ldd	r24, Y+16	; 0x10
    40fa:	88 2f       	mov	r24, r24
    40fc:	90 e0       	ldi	r25, 0x00	; 0
    40fe:	28 0f       	add	r18, r24
    4100:	39 1f       	adc	r19, r25
    4102:	89 89       	ldd	r24, Y+17	; 0x11
    4104:	88 2f       	mov	r24, r24
    4106:	90 e0       	ldi	r25, 0x00	; 0
    4108:	82 0f       	add	r24, r18
    410a:	93 1f       	adc	r25, r19
    410c:	20 e0       	ldi	r18, 0x00	; 0
    410e:	31 e0       	ldi	r19, 0x01	; 1
    4110:	b9 01       	movw	r22, r18
    4112:	0e 94 7e 30 	call	0x60fc	; 0x60fc <__divmodhi4>
    4116:	9c 01       	movw	r18, r24
    4118:	8a 89       	ldd	r24, Y+18	; 0x12
    411a:	88 2f       	mov	r24, r24
    411c:	90 e0       	ldi	r25, 0x00	; 0
    411e:	28 17       	cp	r18, r24
    4120:	39 07       	cpc	r19, r25
    4122:	09 f0       	breq	.+2      	; 0x4126 <DHTReadData+0x1ee>
    4124:	61 c0       	rjmp	.+194    	; 0x41e8 <DHTReadData+0x2b0>
	    {
			inttostr((Data[2]*256+Data[3])/10,ss);
    4126:	88 89       	ldd	r24, Y+16	; 0x10
    4128:	88 2f       	mov	r24, r24
    412a:	90 e0       	ldi	r25, 0x00	; 0
    412c:	38 2f       	mov	r19, r24
    412e:	22 27       	eor	r18, r18
    4130:	89 89       	ldd	r24, Y+17	; 0x11
    4132:	88 2f       	mov	r24, r24
    4134:	90 e0       	ldi	r25, 0x00	; 0
    4136:	82 0f       	add	r24, r18
    4138:	93 1f       	adc	r25, r19
    413a:	2a e0       	ldi	r18, 0x0A	; 10
    413c:	30 e0       	ldi	r19, 0x00	; 0
    413e:	b9 01       	movw	r22, r18
    4140:	0e 94 7e 30 	call	0x60fc	; 0x60fc <__divmodhi4>
    4144:	9b 01       	movw	r18, r22
    4146:	c9 01       	movw	r24, r18
    4148:	9e 01       	movw	r18, r28
    414a:	28 5f       	subi	r18, 0xF8	; 248
    414c:	3f 4f       	sbci	r19, 0xFF	; 255
    414e:	b9 01       	movw	r22, r18
    4150:	0e 94 62 1c 	call	0x38c4	; 0x38c4 <inttostr>
			showzifustr(100,80,ss,0xffff,0x3b35);
    4154:	9e 01       	movw	r18, r28
    4156:	28 5f       	subi	r18, 0xF8	; 248
    4158:	3f 4f       	sbci	r19, 0xFF	; 255
    415a:	84 e6       	ldi	r24, 0x64	; 100
    415c:	90 e0       	ldi	r25, 0x00	; 0
    415e:	60 e5       	ldi	r22, 0x50	; 80
    4160:	70 e0       	ldi	r23, 0x00	; 0
    4162:	a9 01       	movw	r20, r18
    4164:	2f ef       	ldi	r18, 0xFF	; 255
    4166:	3f ef       	ldi	r19, 0xFF	; 255
    4168:	05 e3       	ldi	r16, 0x35	; 53
    416a:	1b e3       	ldi	r17, 0x3B	; 59
    416c:	0e 94 4c 1b 	call	0x3698	; 0x3698 <showzifustr>
			inttostr((Data[0]*256+Data[1])/10,ss);
    4170:	8e 85       	ldd	r24, Y+14	; 0x0e
    4172:	88 2f       	mov	r24, r24
    4174:	90 e0       	ldi	r25, 0x00	; 0
    4176:	38 2f       	mov	r19, r24
    4178:	22 27       	eor	r18, r18
    417a:	8f 85       	ldd	r24, Y+15	; 0x0f
    417c:	88 2f       	mov	r24, r24
    417e:	90 e0       	ldi	r25, 0x00	; 0
    4180:	82 0f       	add	r24, r18
    4182:	93 1f       	adc	r25, r19
    4184:	2a e0       	ldi	r18, 0x0A	; 10
    4186:	30 e0       	ldi	r19, 0x00	; 0
    4188:	b9 01       	movw	r22, r18
    418a:	0e 94 7e 30 	call	0x60fc	; 0x60fc <__divmodhi4>
    418e:	9b 01       	movw	r18, r22
    4190:	c9 01       	movw	r24, r18
    4192:	9e 01       	movw	r18, r28
    4194:	28 5f       	subi	r18, 0xF8	; 248
    4196:	3f 4f       	sbci	r19, 0xFF	; 255
    4198:	b9 01       	movw	r22, r18
    419a:	0e 94 62 1c 	call	0x38c4	; 0x38c4 <inttostr>
			showzifustr(330,80,ss,0xffff,0x32b2);
    419e:	9e 01       	movw	r18, r28
    41a0:	28 5f       	subi	r18, 0xF8	; 248
    41a2:	3f 4f       	sbci	r19, 0xFF	; 255
    41a4:	8a e4       	ldi	r24, 0x4A	; 74
    41a6:	91 e0       	ldi	r25, 0x01	; 1
    41a8:	60 e5       	ldi	r22, 0x50	; 80
    41aa:	70 e0       	ldi	r23, 0x00	; 0
    41ac:	a9 01       	movw	r20, r18
    41ae:	2f ef       	ldi	r18, 0xFF	; 255
    41b0:	3f ef       	ldi	r19, 0xFF	; 255
    41b2:	02 eb       	ldi	r16, 0xB2	; 178
    41b4:	12 e3       	ldi	r17, 0x32	; 50
    41b6:	0e 94 4c 1b 	call	0x3698	; 0x3698 <showzifustr>
			getTandH(Data[2]*256+Data[3], Data[0]*256+Data[1]);
    41ba:	88 89       	ldd	r24, Y+16	; 0x10
    41bc:	88 2f       	mov	r24, r24
    41be:	90 e0       	ldi	r25, 0x00	; 0
    41c0:	38 2f       	mov	r19, r24
    41c2:	22 27       	eor	r18, r18
    41c4:	89 89       	ldd	r24, Y+17	; 0x11
    41c6:	88 2f       	mov	r24, r24
    41c8:	90 e0       	ldi	r25, 0x00	; 0
    41ca:	82 0f       	add	r24, r18
    41cc:	93 1f       	adc	r25, r19
    41ce:	2e 85       	ldd	r18, Y+14	; 0x0e
    41d0:	22 2f       	mov	r18, r18
    41d2:	30 e0       	ldi	r19, 0x00	; 0
    41d4:	52 2f       	mov	r21, r18
    41d6:	44 27       	eor	r20, r20
    41d8:	2f 85       	ldd	r18, Y+15	; 0x0f
    41da:	22 2f       	mov	r18, r18
    41dc:	30 e0       	ldi	r19, 0x00	; 0
    41de:	24 0f       	add	r18, r20
    41e0:	35 1f       	adc	r19, r21
    41e2:	b9 01       	movw	r22, r18
    41e4:	0e 94 1b 10 	call	0x2036	; 0x2036 <getTandH>
		}
	}
}
    41e8:	62 96       	adiw	r28, 0x12	; 18
    41ea:	0f b6       	in	r0, 0x3f	; 63
    41ec:	f8 94       	cli
    41ee:	de bf       	out	0x3e, r29	; 62
    41f0:	0f be       	out	0x3f, r0	; 63
    41f2:	cd bf       	out	0x3d, r28	; 61
    41f4:	cf 91       	pop	r28
    41f6:	df 91       	pop	r29
    41f8:	1f 91       	pop	r17
    41fa:	0f 91       	pop	r16
    41fc:	08 95       	ret

000041fe <__vector_29>:

ISR(SIG_OVERFLOW3)
{
    41fe:	1f 92       	push	r1
    4200:	0f 92       	push	r0
    4202:	0f b6       	in	r0, 0x3f	; 63
    4204:	0f 92       	push	r0
    4206:	00 90 5b 00 	lds	r0, 0x005B
    420a:	0f 92       	push	r0
    420c:	11 24       	eor	r1, r1
    420e:	8f 93       	push	r24
    4210:	9f 93       	push	r25
    4212:	ef 93       	push	r30
    4214:	ff 93       	push	r31
    4216:	df 93       	push	r29
    4218:	cf 93       	push	r28
    421a:	cd b7       	in	r28, 0x3d	; 61
    421c:	de b7       	in	r29, 0x3e	; 62
 TCCR3B = 0;
    421e:	8a e8       	ldi	r24, 0x8A	; 138
    4220:	90 e0       	ldi	r25, 0x00	; 0
    4222:	fc 01       	movw	r30, r24
    4224:	10 82       	st	Z, r1
 TCNT3H = 0; //reload counter high value
    4226:	89 e8       	ldi	r24, 0x89	; 137
    4228:	90 e0       	ldi	r25, 0x00	; 0
    422a:	fc 01       	movw	r30, r24
    422c:	10 82       	st	Z, r1
 TCNT3L = 0; //reload counter low value
    422e:	88 e8       	ldi	r24, 0x88	; 136
    4230:	90 e0       	ldi	r25, 0x00	; 0
    4232:	fc 01       	movw	r30, r24
    4234:	10 82       	st	Z, r1
 Sflag=0;
    4236:	10 92 0b 01 	sts	0x010B, r1
    423a:	10 92 0a 01 	sts	0x010A, r1
}
    423e:	cf 91       	pop	r28
    4240:	df 91       	pop	r29
    4242:	ff 91       	pop	r31
    4244:	ef 91       	pop	r30
    4246:	9f 91       	pop	r25
    4248:	8f 91       	pop	r24
    424a:	0f 90       	pop	r0
    424c:	00 92 5b 00 	sts	0x005B, r0
    4250:	0f 90       	pop	r0
    4252:	0f be       	out	0x3f, r0	; 63
    4254:	0f 90       	pop	r0
    4256:	1f 90       	pop	r1
    4258:	18 95       	reti

0000425a <spistar>:
struct tp_pix_  tp_pixad,tp_pixlcd;
//unsigned int LX=0,LY=0;
char SetTem=25;

void spistar(void)
{
    425a:	df 93       	push	r29
    425c:	cf 93       	push	r28
    425e:	cd b7       	in	r28, 0x3d	; 61
    4260:	de b7       	in	r29, 0x3e	; 62
 	 CS_H;
    4262:	82 e3       	ldi	r24, 0x32	; 50
    4264:	90 e0       	ldi	r25, 0x00	; 0
    4266:	22 e3       	ldi	r18, 0x32	; 50
    4268:	30 e0       	ldi	r19, 0x00	; 0
    426a:	f9 01       	movw	r30, r18
    426c:	20 81       	ld	r18, Z
    426e:	20 64       	ori	r18, 0x40	; 64
    4270:	fc 01       	movw	r30, r24
    4272:	20 83       	st	Z, r18
	 DCLK_H;
    4274:	82 e3       	ldi	r24, 0x32	; 50
    4276:	90 e0       	ldi	r25, 0x00	; 0
    4278:	22 e3       	ldi	r18, 0x32	; 50
    427a:	30 e0       	ldi	r19, 0x00	; 0
    427c:	f9 01       	movw	r30, r18
    427e:	20 81       	ld	r18, Z
    4280:	20 68       	ori	r18, 0x80	; 128
    4282:	fc 01       	movw	r30, r24
    4284:	20 83       	st	Z, r18
	 DIN_H;
    4286:	82 e3       	ldi	r24, 0x32	; 50
    4288:	90 e0       	ldi	r25, 0x00	; 0
    428a:	22 e3       	ldi	r18, 0x32	; 50
    428c:	30 e0       	ldi	r19, 0x00	; 0
    428e:	f9 01       	movw	r30, r18
    4290:	20 81       	ld	r18, Z
    4292:	20 62       	ori	r18, 0x20	; 32
    4294:	fc 01       	movw	r30, r24
    4296:	20 83       	st	Z, r18
	 DCLK_H;
    4298:	82 e3       	ldi	r24, 0x32	; 50
    429a:	90 e0       	ldi	r25, 0x00	; 0
    429c:	22 e3       	ldi	r18, 0x32	; 50
    429e:	30 e0       	ldi	r19, 0x00	; 0
    42a0:	f9 01       	movw	r30, r18
    42a2:	20 81       	ld	r18, Z
    42a4:	20 68       	ori	r18, 0x80	; 128
    42a6:	fc 01       	movw	r30, r24
    42a8:	20 83       	st	Z, r18
}
    42aa:	cf 91       	pop	r28
    42ac:	df 91       	pop	r29
    42ae:	08 95       	ret

000042b0 <WriteCharTo7843>:

void WriteCharTo7843(unsigned char num)
{
    42b0:	df 93       	push	r29
    42b2:	cf 93       	push	r28
    42b4:	00 d0       	rcall	.+0      	; 0x42b6 <WriteCharTo7843+0x6>
    42b6:	0f 92       	push	r0
    42b8:	cd b7       	in	r28, 0x3d	; 61
    42ba:	de b7       	in	r29, 0x3e	; 62
    42bc:	8b 83       	std	Y+3, r24	; 0x03
 	 char count=0,icount=0x80;
    42be:	19 82       	std	Y+1, r1	; 0x01
    42c0:	80 e8       	ldi	r24, 0x80	; 128
    42c2:	8a 83       	std	Y+2, r24	; 0x02
	 DCLK_L;
    42c4:	82 e3       	ldi	r24, 0x32	; 50
    42c6:	90 e0       	ldi	r25, 0x00	; 0
    42c8:	22 e3       	ldi	r18, 0x32	; 50
    42ca:	30 e0       	ldi	r19, 0x00	; 0
    42cc:	f9 01       	movw	r30, r18
    42ce:	20 81       	ld	r18, Z
    42d0:	2f 77       	andi	r18, 0x7F	; 127
    42d2:	fc 01       	movw	r30, r24
    42d4:	20 83       	st	Z, r18
	 for(count=0;count<8;count++)
    42d6:	19 82       	std	Y+1, r1	; 0x01
    42d8:	36 c0       	rjmp	.+108    	; 0x4346 <WriteCharTo7843+0x96>
	 {
		 if((num&icount)==0)DIN_L;
    42da:	9b 81       	ldd	r25, Y+3	; 0x03
    42dc:	8a 81       	ldd	r24, Y+2	; 0x02
    42de:	89 23       	and	r24, r25
    42e0:	88 23       	and	r24, r24
    42e2:	51 f4       	brne	.+20     	; 0x42f8 <WriteCharTo7843+0x48>
    42e4:	82 e3       	ldi	r24, 0x32	; 50
    42e6:	90 e0       	ldi	r25, 0x00	; 0
    42e8:	22 e3       	ldi	r18, 0x32	; 50
    42ea:	30 e0       	ldi	r19, 0x00	; 0
    42ec:	f9 01       	movw	r30, r18
    42ee:	20 81       	ld	r18, Z
    42f0:	2f 7d       	andi	r18, 0xDF	; 223
    42f2:	fc 01       	movw	r30, r24
    42f4:	20 83       	st	Z, r18
    42f6:	09 c0       	rjmp	.+18     	; 0x430a <WriteCharTo7843+0x5a>
		 else DIN_H;
    42f8:	82 e3       	ldi	r24, 0x32	; 50
    42fa:	90 e0       	ldi	r25, 0x00	; 0
    42fc:	22 e3       	ldi	r18, 0x32	; 50
    42fe:	30 e0       	ldi	r19, 0x00	; 0
    4300:	f9 01       	movw	r30, r18
    4302:	20 81       	ld	r18, Z
    4304:	20 62       	ori	r18, 0x20	; 32
    4306:	fc 01       	movw	r30, r24
    4308:	20 83       	st	Z, r18
		 icount>>=1;
    430a:	8a 81       	ldd	r24, Y+2	; 0x02
    430c:	86 95       	lsr	r24
    430e:	8a 83       	std	Y+2, r24	; 0x02
		 DCLK_L; asm("nop"); asm("nop"); asm("nop");
    4310:	82 e3       	ldi	r24, 0x32	; 50
    4312:	90 e0       	ldi	r25, 0x00	; 0
    4314:	22 e3       	ldi	r18, 0x32	; 50
    4316:	30 e0       	ldi	r19, 0x00	; 0
    4318:	f9 01       	movw	r30, r18
    431a:	20 81       	ld	r18, Z
    431c:	2f 77       	andi	r18, 0x7F	; 127
    431e:	fc 01       	movw	r30, r24
    4320:	20 83       	st	Z, r18
    4322:	00 00       	nop
    4324:	00 00       	nop
    4326:	00 00       	nop
		 DCLK_H; asm("nop"); asm("nop"); asm("nop"); 
    4328:	82 e3       	ldi	r24, 0x32	; 50
    432a:	90 e0       	ldi	r25, 0x00	; 0
    432c:	22 e3       	ldi	r18, 0x32	; 50
    432e:	30 e0       	ldi	r19, 0x00	; 0
    4330:	f9 01       	movw	r30, r18
    4332:	20 81       	ld	r18, Z
    4334:	20 68       	ori	r18, 0x80	; 128
    4336:	fc 01       	movw	r30, r24
    4338:	20 83       	st	Z, r18
    433a:	00 00       	nop
    433c:	00 00       	nop
    433e:	00 00       	nop

void WriteCharTo7843(unsigned char num)
{
 	 char count=0,icount=0x80;
	 DCLK_L;
	 for(count=0;count<8;count++)
    4340:	89 81       	ldd	r24, Y+1	; 0x01
    4342:	8f 5f       	subi	r24, 0xFF	; 255
    4344:	89 83       	std	Y+1, r24	; 0x01
    4346:	89 81       	ldd	r24, Y+1	; 0x01
    4348:	88 30       	cpi	r24, 0x08	; 8
    434a:	38 f2       	brcs	.-114    	; 0x42da <WriteCharTo7843+0x2a>
		 else DIN_H;
		 icount>>=1;
		 DCLK_L; asm("nop"); asm("nop"); asm("nop");
		 DCLK_H; asm("nop"); asm("nop"); asm("nop"); 
	 }
}
    434c:	0f 90       	pop	r0
    434e:	0f 90       	pop	r0
    4350:	0f 90       	pop	r0
    4352:	cf 91       	pop	r28
    4354:	df 91       	pop	r29
    4356:	08 95       	ret

00004358 <ReadFromCharFrom7843>:

unsigned int ReadFromCharFrom7843(void)
{
    4358:	df 93       	push	r29
    435a:	cf 93       	push	r28
    435c:	00 d0       	rcall	.+0      	; 0x435e <ReadFromCharFrom7843+0x6>
    435e:	0f 92       	push	r0
    4360:	cd b7       	in	r28, 0x3d	; 61
    4362:	de b7       	in	r29, 0x3e	; 62
 	 char count=0;
    4364:	19 82       	std	Y+1, r1	; 0x01
	 unsigned int Num=0;
    4366:	1b 82       	std	Y+3, r1	; 0x03
    4368:	1a 82       	std	Y+2, r1	; 0x02
	 for(count=0;count<12;count++)
    436a:	19 82       	std	Y+1, r1	; 0x01
    436c:	30 c0       	rjmp	.+96     	; 0x43ce <ReadFromCharFrom7843+0x76>
	 {
		 DCLK_H;asm("nop"); asm("nop"); asm("nop");
    436e:	82 e3       	ldi	r24, 0x32	; 50
    4370:	90 e0       	ldi	r25, 0x00	; 0
    4372:	22 e3       	ldi	r18, 0x32	; 50
    4374:	30 e0       	ldi	r19, 0x00	; 0
    4376:	f9 01       	movw	r30, r18
    4378:	20 81       	ld	r18, Z
    437a:	20 68       	ori	r18, 0x80	; 128
    437c:	fc 01       	movw	r30, r24
    437e:	20 83       	st	Z, r18
    4380:	00 00       	nop
    4382:	00 00       	nop
    4384:	00 00       	nop
		 DCLK_L;asm("nop"); asm("nop"); asm("nop");
    4386:	82 e3       	ldi	r24, 0x32	; 50
    4388:	90 e0       	ldi	r25, 0x00	; 0
    438a:	22 e3       	ldi	r18, 0x32	; 50
    438c:	30 e0       	ldi	r19, 0x00	; 0
    438e:	f9 01       	movw	r30, r18
    4390:	20 81       	ld	r18, Z
    4392:	2f 77       	andi	r18, 0x7F	; 127
    4394:	fc 01       	movw	r30, r24
    4396:	20 83       	st	Z, r18
    4398:	00 00       	nop
    439a:	00 00       	nop
    439c:	00 00       	nop
		 if((PIND&0x10)!=0) Num++;
    439e:	80 e3       	ldi	r24, 0x30	; 48
    43a0:	90 e0       	ldi	r25, 0x00	; 0
    43a2:	fc 01       	movw	r30, r24
    43a4:	80 81       	ld	r24, Z
    43a6:	88 2f       	mov	r24, r24
    43a8:	90 e0       	ldi	r25, 0x00	; 0
    43aa:	80 71       	andi	r24, 0x10	; 16
    43ac:	90 70       	andi	r25, 0x00	; 0
    43ae:	00 97       	sbiw	r24, 0x00	; 0
    43b0:	29 f0       	breq	.+10     	; 0x43bc <ReadFromCharFrom7843+0x64>
    43b2:	8a 81       	ldd	r24, Y+2	; 0x02
    43b4:	9b 81       	ldd	r25, Y+3	; 0x03
    43b6:	01 96       	adiw	r24, 0x01	; 1
    43b8:	9b 83       	std	Y+3, r25	; 0x03
    43ba:	8a 83       	std	Y+2, r24	; 0x02
		 Num<<=1;
    43bc:	8a 81       	ldd	r24, Y+2	; 0x02
    43be:	9b 81       	ldd	r25, Y+3	; 0x03
    43c0:	88 0f       	add	r24, r24
    43c2:	99 1f       	adc	r25, r25
    43c4:	9b 83       	std	Y+3, r25	; 0x03
    43c6:	8a 83       	std	Y+2, r24	; 0x02

unsigned int ReadFromCharFrom7843(void)
{
 	 char count=0;
	 unsigned int Num=0;
	 for(count=0;count<12;count++)
    43c8:	89 81       	ldd	r24, Y+1	; 0x01
    43ca:	8f 5f       	subi	r24, 0xFF	; 255
    43cc:	89 83       	std	Y+1, r24	; 0x01
    43ce:	89 81       	ldd	r24, Y+1	; 0x01
    43d0:	8c 30       	cpi	r24, 0x0C	; 12
    43d2:	68 f2       	brcs	.-102    	; 0x436e <ReadFromCharFrom7843+0x16>
		 DCLK_H;asm("nop"); asm("nop"); asm("nop");
		 DCLK_L;asm("nop"); asm("nop"); asm("nop");
		 if((PIND&0x10)!=0) Num++;
		 Num<<=1;
	 }
	 return(Num);
    43d4:	8a 81       	ldd	r24, Y+2	; 0x02
    43d6:	9b 81       	ldd	r25, Y+3	; 0x03
}
    43d8:	0f 90       	pop	r0
    43da:	0f 90       	pop	r0
    43dc:	0f 90       	pop	r0
    43de:	cf 91       	pop	r28
    43e0:	df 91       	pop	r29
    43e2:	08 95       	ret

000043e4 <ADS_Read_AD>:

unsigned int ADS_Read_AD(unsigned int CMD)
{
    43e4:	df 93       	push	r29
    43e6:	cf 93       	push	r28
    43e8:	00 d0       	rcall	.+0      	; 0x43ea <ADS_Read_AD+0x6>
    43ea:	00 d0       	rcall	.+0      	; 0x43ec <ADS_Read_AD+0x8>
    43ec:	cd b7       	in	r28, 0x3d	; 61
    43ee:	de b7       	in	r29, 0x3e	; 62
    43f0:	9c 83       	std	Y+4, r25	; 0x04
    43f2:	8b 83       	std	Y+3, r24	; 0x03
	unsigned int l;
	CS_L;
    43f4:	82 e3       	ldi	r24, 0x32	; 50
    43f6:	90 e0       	ldi	r25, 0x00	; 0
    43f8:	22 e3       	ldi	r18, 0x32	; 50
    43fa:	30 e0       	ldi	r19, 0x00	; 0
    43fc:	f9 01       	movw	r30, r18
    43fe:	20 81       	ld	r18, Z
    4400:	2f 7b       	andi	r18, 0xBF	; 191
    4402:	fc 01       	movw	r30, r24
    4404:	20 83       	st	Z, r18
	WriteCharTo7843(CMD);
    4406:	8b 81       	ldd	r24, Y+3	; 0x03
    4408:	0e 94 58 21 	call	0x42b0	; 0x42b0 <WriteCharTo7843>
	DCLK_H; asm("nop"); asm("nop"); asm("nop"); asm("nop");
    440c:	82 e3       	ldi	r24, 0x32	; 50
    440e:	90 e0       	ldi	r25, 0x00	; 0
    4410:	22 e3       	ldi	r18, 0x32	; 50
    4412:	30 e0       	ldi	r19, 0x00	; 0
    4414:	f9 01       	movw	r30, r18
    4416:	20 81       	ld	r18, Z
    4418:	20 68       	ori	r18, 0x80	; 128
    441a:	fc 01       	movw	r30, r24
    441c:	20 83       	st	Z, r18
	...
	DCLK_L; asm("nop"); asm("nop"); asm("nop"); asm("nop");
    4426:	82 e3       	ldi	r24, 0x32	; 50
    4428:	90 e0       	ldi	r25, 0x00	; 0
    442a:	22 e3       	ldi	r18, 0x32	; 50
    442c:	30 e0       	ldi	r19, 0x00	; 0
    442e:	f9 01       	movw	r30, r18
    4430:	20 81       	ld	r18, Z
    4432:	2f 77       	andi	r18, 0x7F	; 127
    4434:	fc 01       	movw	r30, r24
    4436:	20 83       	st	Z, r18
	...
	l=ReadFromCharFrom7843();
    4440:	0e 94 ac 21 	call	0x4358	; 0x4358 <ReadFromCharFrom7843>
    4444:	9a 83       	std	Y+2, r25	; 0x02
    4446:	89 83       	std	Y+1, r24	; 0x01
	CS_H;
    4448:	82 e3       	ldi	r24, 0x32	; 50
    444a:	90 e0       	ldi	r25, 0x00	; 0
    444c:	22 e3       	ldi	r18, 0x32	; 50
    444e:	30 e0       	ldi	r19, 0x00	; 0
    4450:	f9 01       	movw	r30, r18
    4452:	20 81       	ld	r18, Z
    4454:	20 64       	ori	r18, 0x40	; 64
    4456:	fc 01       	movw	r30, r24
    4458:	20 83       	st	Z, r18
	return l;
    445a:	89 81       	ldd	r24, Y+1	; 0x01
    445c:	9a 81       	ldd	r25, Y+2	; 0x02
}
    445e:	0f 90       	pop	r0
    4460:	0f 90       	pop	r0
    4462:	0f 90       	pop	r0
    4464:	0f 90       	pop	r0
    4466:	cf 91       	pop	r28
    4468:	df 91       	pop	r29
    446a:	08 95       	ret

0000446c <ADS_Read_XY>:

unsigned int ADS_Read_XY(unsigned char xy)
{
    446c:	df 93       	push	r29
    446e:	cf 93       	push	r28
    4470:	cd b7       	in	r28, 0x3d	; 61
    4472:	de b7       	in	r29, 0x3e	; 62
    4474:	a7 97       	sbiw	r28, 0x27	; 39
    4476:	0f b6       	in	r0, 0x3f	; 63
    4478:	f8 94       	cli
    447a:	de bf       	out	0x3e, r29	; 62
    447c:	0f be       	out	0x3f, r0	; 63
    447e:	cd bf       	out	0x3d, r28	; 61
    4480:	8f a3       	std	Y+39, r24	; 0x27
	unsigned int i, j;
	unsigned int buf[READ_TIMES];
	unsigned int sum=0;
    4482:	1e 82       	std	Y+6, r1	; 0x06
    4484:	1d 82       	std	Y+5, r1	; 0x05
	unsigned int temp;
	for(i=0;i<READ_TIMES;i++)
    4486:	1a 82       	std	Y+2, r1	; 0x02
    4488:	19 82       	std	Y+1, r1	; 0x01
    448a:	18 c0       	rjmp	.+48     	; 0x44bc <ADS_Read_XY+0x50>
	{
		buf[i]=ADS_Read_AD(xy);
    448c:	8f a1       	ldd	r24, Y+39	; 0x27
    448e:	88 2f       	mov	r24, r24
    4490:	90 e0       	ldi	r25, 0x00	; 0
    4492:	0e 94 f2 21 	call	0x43e4	; 0x43e4 <ADS_Read_AD>
    4496:	9c 01       	movw	r18, r24
    4498:	89 81       	ldd	r24, Y+1	; 0x01
    449a:	9a 81       	ldd	r25, Y+2	; 0x02
    449c:	88 0f       	add	r24, r24
    449e:	99 1f       	adc	r25, r25
    44a0:	ae 01       	movw	r20, r28
    44a2:	4f 5f       	subi	r20, 0xFF	; 255
    44a4:	5f 4f       	sbci	r21, 0xFF	; 255
    44a6:	84 0f       	add	r24, r20
    44a8:	95 1f       	adc	r25, r21
    44aa:	08 96       	adiw	r24, 0x08	; 8
    44ac:	fc 01       	movw	r30, r24
    44ae:	31 83       	std	Z+1, r19	; 0x01
    44b0:	20 83       	st	Z, r18
{
	unsigned int i, j;
	unsigned int buf[READ_TIMES];
	unsigned int sum=0;
	unsigned int temp;
	for(i=0;i<READ_TIMES;i++)
    44b2:	89 81       	ldd	r24, Y+1	; 0x01
    44b4:	9a 81       	ldd	r25, Y+2	; 0x02
    44b6:	01 96       	adiw	r24, 0x01	; 1
    44b8:	9a 83       	std	Y+2, r25	; 0x02
    44ba:	89 83       	std	Y+1, r24	; 0x01
    44bc:	89 81       	ldd	r24, Y+1	; 0x01
    44be:	9a 81       	ldd	r25, Y+2	; 0x02
    44c0:	8f 30       	cpi	r24, 0x0F	; 15
    44c2:	91 05       	cpc	r25, r1
    44c4:	18 f3       	brcs	.-58     	; 0x448c <ADS_Read_XY+0x20>
	{
		buf[i]=ADS_Read_AD(xy);
	}
	for(i=0;i<READ_TIMES-1; i++)//
    44c6:	1a 82       	std	Y+2, r1	; 0x02
    44c8:	19 82       	std	Y+1, r1	; 0x01
    44ca:	6b c0       	rjmp	.+214    	; 0x45a2 <ADS_Read_XY+0x136>
	{
		for(j=i+1;j<READ_TIMES;j++)
    44cc:	89 81       	ldd	r24, Y+1	; 0x01
    44ce:	9a 81       	ldd	r25, Y+2	; 0x02
    44d0:	01 96       	adiw	r24, 0x01	; 1
    44d2:	9c 83       	std	Y+4, r25	; 0x04
    44d4:	8b 83       	std	Y+3, r24	; 0x03
    44d6:	5a c0       	rjmp	.+180    	; 0x458c <ADS_Read_XY+0x120>
		{
			if(buf[i]>buf[j])//
    44d8:	89 81       	ldd	r24, Y+1	; 0x01
    44da:	9a 81       	ldd	r25, Y+2	; 0x02
    44dc:	88 0f       	add	r24, r24
    44de:	99 1f       	adc	r25, r25
    44e0:	9e 01       	movw	r18, r28
    44e2:	2f 5f       	subi	r18, 0xFF	; 255
    44e4:	3f 4f       	sbci	r19, 0xFF	; 255
    44e6:	82 0f       	add	r24, r18
    44e8:	93 1f       	adc	r25, r19
    44ea:	08 96       	adiw	r24, 0x08	; 8
    44ec:	fc 01       	movw	r30, r24
    44ee:	20 81       	ld	r18, Z
    44f0:	31 81       	ldd	r19, Z+1	; 0x01
    44f2:	8b 81       	ldd	r24, Y+3	; 0x03
    44f4:	9c 81       	ldd	r25, Y+4	; 0x04
    44f6:	88 0f       	add	r24, r24
    44f8:	99 1f       	adc	r25, r25
    44fa:	ae 01       	movw	r20, r28
    44fc:	4f 5f       	subi	r20, 0xFF	; 255
    44fe:	5f 4f       	sbci	r21, 0xFF	; 255
    4500:	84 0f       	add	r24, r20
    4502:	95 1f       	adc	r25, r21
    4504:	08 96       	adiw	r24, 0x08	; 8
    4506:	fc 01       	movw	r30, r24
    4508:	80 81       	ld	r24, Z
    450a:	91 81       	ldd	r25, Z+1	; 0x01
    450c:	82 17       	cp	r24, r18
    450e:	93 07       	cpc	r25, r19
    4510:	c0 f5       	brcc	.+112    	; 0x4582 <ADS_Read_XY+0x116>
			{
				temp=buf[i];
    4512:	89 81       	ldd	r24, Y+1	; 0x01
    4514:	9a 81       	ldd	r25, Y+2	; 0x02
    4516:	88 0f       	add	r24, r24
    4518:	99 1f       	adc	r25, r25
    451a:	9e 01       	movw	r18, r28
    451c:	2f 5f       	subi	r18, 0xFF	; 255
    451e:	3f 4f       	sbci	r19, 0xFF	; 255
    4520:	82 0f       	add	r24, r18
    4522:	93 1f       	adc	r25, r19
    4524:	08 96       	adiw	r24, 0x08	; 8
    4526:	fc 01       	movw	r30, r24
    4528:	80 81       	ld	r24, Z
    452a:	91 81       	ldd	r25, Z+1	; 0x01
    452c:	98 87       	std	Y+8, r25	; 0x08
    452e:	8f 83       	std	Y+7, r24	; 0x07
				buf[i]=buf[j];
    4530:	8b 81       	ldd	r24, Y+3	; 0x03
    4532:	9c 81       	ldd	r25, Y+4	; 0x04
    4534:	88 0f       	add	r24, r24
    4536:	99 1f       	adc	r25, r25
    4538:	9e 01       	movw	r18, r28
    453a:	2f 5f       	subi	r18, 0xFF	; 255
    453c:	3f 4f       	sbci	r19, 0xFF	; 255
    453e:	82 0f       	add	r24, r18
    4540:	93 1f       	adc	r25, r19
    4542:	08 96       	adiw	r24, 0x08	; 8
    4544:	fc 01       	movw	r30, r24
    4546:	20 81       	ld	r18, Z
    4548:	31 81       	ldd	r19, Z+1	; 0x01
    454a:	89 81       	ldd	r24, Y+1	; 0x01
    454c:	9a 81       	ldd	r25, Y+2	; 0x02
    454e:	88 0f       	add	r24, r24
    4550:	99 1f       	adc	r25, r25
    4552:	ae 01       	movw	r20, r28
    4554:	4f 5f       	subi	r20, 0xFF	; 255
    4556:	5f 4f       	sbci	r21, 0xFF	; 255
    4558:	84 0f       	add	r24, r20
    455a:	95 1f       	adc	r25, r21
    455c:	08 96       	adiw	r24, 0x08	; 8
    455e:	fc 01       	movw	r30, r24
    4560:	31 83       	std	Z+1, r19	; 0x01
    4562:	20 83       	st	Z, r18
				buf[j]=temp;
    4564:	8b 81       	ldd	r24, Y+3	; 0x03
    4566:	9c 81       	ldd	r25, Y+4	; 0x04
    4568:	88 0f       	add	r24, r24
    456a:	99 1f       	adc	r25, r25
    456c:	9e 01       	movw	r18, r28
    456e:	2f 5f       	subi	r18, 0xFF	; 255
    4570:	3f 4f       	sbci	r19, 0xFF	; 255
    4572:	82 0f       	add	r24, r18
    4574:	93 1f       	adc	r25, r19
    4576:	08 96       	adiw	r24, 0x08	; 8
    4578:	2f 81       	ldd	r18, Y+7	; 0x07
    457a:	38 85       	ldd	r19, Y+8	; 0x08
    457c:	fc 01       	movw	r30, r24
    457e:	31 83       	std	Z+1, r19	; 0x01
    4580:	20 83       	st	Z, r18
	{
		buf[i]=ADS_Read_AD(xy);
	}
	for(i=0;i<READ_TIMES-1; i++)//
	{
		for(j=i+1;j<READ_TIMES;j++)
    4582:	8b 81       	ldd	r24, Y+3	; 0x03
    4584:	9c 81       	ldd	r25, Y+4	; 0x04
    4586:	01 96       	adiw	r24, 0x01	; 1
    4588:	9c 83       	std	Y+4, r25	; 0x04
    458a:	8b 83       	std	Y+3, r24	; 0x03
    458c:	8b 81       	ldd	r24, Y+3	; 0x03
    458e:	9c 81       	ldd	r25, Y+4	; 0x04
    4590:	8f 30       	cpi	r24, 0x0F	; 15
    4592:	91 05       	cpc	r25, r1
    4594:	08 f4       	brcc	.+2      	; 0x4598 <ADS_Read_XY+0x12c>
    4596:	a0 cf       	rjmp	.-192    	; 0x44d8 <ADS_Read_XY+0x6c>
	unsigned int temp;
	for(i=0;i<READ_TIMES;i++)
	{
		buf[i]=ADS_Read_AD(xy);
	}
	for(i=0;i<READ_TIMES-1; i++)//
    4598:	89 81       	ldd	r24, Y+1	; 0x01
    459a:	9a 81       	ldd	r25, Y+2	; 0x02
    459c:	01 96       	adiw	r24, 0x01	; 1
    459e:	9a 83       	std	Y+2, r25	; 0x02
    45a0:	89 83       	std	Y+1, r24	; 0x01
    45a2:	89 81       	ldd	r24, Y+1	; 0x01
    45a4:	9a 81       	ldd	r25, Y+2	; 0x02
    45a6:	8e 30       	cpi	r24, 0x0E	; 14
    45a8:	91 05       	cpc	r25, r1
    45aa:	08 f4       	brcc	.+2      	; 0x45ae <ADS_Read_XY+0x142>
    45ac:	8f cf       	rjmp	.-226    	; 0x44cc <ADS_Read_XY+0x60>
				buf[i]=buf[j];
				buf[j]=temp;
			}
		}
	}
	sum=0;
    45ae:	1e 82       	std	Y+6, r1	; 0x06
    45b0:	1d 82       	std	Y+5, r1	; 0x05
	for(i=LOST_VAL;i<READ_TIMES-LOST_VAL;i++)sum+=buf[i];
    45b2:	85 e0       	ldi	r24, 0x05	; 5
    45b4:	90 e0       	ldi	r25, 0x00	; 0
    45b6:	9a 83       	std	Y+2, r25	; 0x02
    45b8:	89 83       	std	Y+1, r24	; 0x01
    45ba:	18 c0       	rjmp	.+48     	; 0x45ec <ADS_Read_XY+0x180>
    45bc:	89 81       	ldd	r24, Y+1	; 0x01
    45be:	9a 81       	ldd	r25, Y+2	; 0x02
    45c0:	88 0f       	add	r24, r24
    45c2:	99 1f       	adc	r25, r25
    45c4:	9e 01       	movw	r18, r28
    45c6:	2f 5f       	subi	r18, 0xFF	; 255
    45c8:	3f 4f       	sbci	r19, 0xFF	; 255
    45ca:	82 0f       	add	r24, r18
    45cc:	93 1f       	adc	r25, r19
    45ce:	08 96       	adiw	r24, 0x08	; 8
    45d0:	fc 01       	movw	r30, r24
    45d2:	80 81       	ld	r24, Z
    45d4:	91 81       	ldd	r25, Z+1	; 0x01
    45d6:	2d 81       	ldd	r18, Y+5	; 0x05
    45d8:	3e 81       	ldd	r19, Y+6	; 0x06
    45da:	82 0f       	add	r24, r18
    45dc:	93 1f       	adc	r25, r19
    45de:	9e 83       	std	Y+6, r25	; 0x06
    45e0:	8d 83       	std	Y+5, r24	; 0x05
    45e2:	89 81       	ldd	r24, Y+1	; 0x01
    45e4:	9a 81       	ldd	r25, Y+2	; 0x02
    45e6:	01 96       	adiw	r24, 0x01	; 1
    45e8:	9a 83       	std	Y+2, r25	; 0x02
    45ea:	89 83       	std	Y+1, r24	; 0x01
    45ec:	89 81       	ldd	r24, Y+1	; 0x01
    45ee:	9a 81       	ldd	r25, Y+2	; 0x02
    45f0:	8a 30       	cpi	r24, 0x0A	; 10
    45f2:	91 05       	cpc	r25, r1
    45f4:	18 f3       	brcs	.-58     	; 0x45bc <ADS_Read_XY+0x150>
	temp=sum/(READ_TIMES-2*LOST_VAL);
    45f6:	8d 81       	ldd	r24, Y+5	; 0x05
    45f8:	9e 81       	ldd	r25, Y+6	; 0x06
    45fa:	25 e0       	ldi	r18, 0x05	; 5
    45fc:	30 e0       	ldi	r19, 0x00	; 0
    45fe:	b9 01       	movw	r22, r18
    4600:	0e 94 6a 30 	call	0x60d4	; 0x60d4 <__udivmodhi4>
    4604:	9b 01       	movw	r18, r22
    4606:	38 87       	std	Y+8, r19	; 0x08
    4608:	2f 83       	std	Y+7, r18	; 0x07
	return temp;
    460a:	8f 81       	ldd	r24, Y+7	; 0x07
    460c:	98 85       	ldd	r25, Y+8	; 0x08
}
    460e:	a7 96       	adiw	r28, 0x27	; 39
    4610:	0f b6       	in	r0, 0x3f	; 63
    4612:	f8 94       	cli
    4614:	de bf       	out	0x3e, r29	; 62
    4616:	0f be       	out	0x3f, r0	; 63
    4618:	cd bf       	out	0x3d, r28	; 61
    461a:	cf 91       	pop	r28
    461c:	df 91       	pop	r29
    461e:	08 95       	ret

00004620 <Read_ADS>:

unsigned char Read_ADS(unsigned int *x,unsigned int *y)
{
    4620:	df 93       	push	r29
    4622:	cf 93       	push	r28
    4624:	cd b7       	in	r28, 0x3d	; 61
    4626:	de b7       	in	r29, 0x3e	; 62
    4628:	28 97       	sbiw	r28, 0x08	; 8
    462a:	0f b6       	in	r0, 0x3f	; 63
    462c:	f8 94       	cli
    462e:	de bf       	out	0x3e, r29	; 62
    4630:	0f be       	out	0x3f, r0	; 63
    4632:	cd bf       	out	0x3d, r28	; 61
    4634:	9e 83       	std	Y+6, r25	; 0x06
    4636:	8d 83       	std	Y+5, r24	; 0x05
    4638:	78 87       	std	Y+8, r23	; 0x08
    463a:	6f 83       	std	Y+7, r22	; 0x07
	unsigned int xtemp,ytemp;
	xtemp=ADS_Read_XY(CMD_RDX);
    463c:	80 ed       	ldi	r24, 0xD0	; 208
    463e:	0e 94 36 22 	call	0x446c	; 0x446c <ADS_Read_XY>
    4642:	9a 83       	std	Y+2, r25	; 0x02
    4644:	89 83       	std	Y+1, r24	; 0x01
	ytemp=ADS_Read_XY(CMD_RDY);
    4646:	80 e9       	ldi	r24, 0x90	; 144
    4648:	0e 94 36 22 	call	0x446c	; 0x446c <ADS_Read_XY>
    464c:	9c 83       	std	Y+4, r25	; 0x04
    464e:	8b 83       	std	Y+3, r24	; 0x03
	if(xtemp<100||ytemp<100)return 0;
    4650:	89 81       	ldd	r24, Y+1	; 0x01
    4652:	9a 81       	ldd	r25, Y+2	; 0x02
    4654:	84 36       	cpi	r24, 0x64	; 100
    4656:	91 05       	cpc	r25, r1
    4658:	28 f0       	brcs	.+10     	; 0x4664 <Read_ADS+0x44>
    465a:	8b 81       	ldd	r24, Y+3	; 0x03
    465c:	9c 81       	ldd	r25, Y+4	; 0x04
    465e:	84 36       	cpi	r24, 0x64	; 100
    4660:	91 05       	cpc	r25, r1
    4662:	10 f4       	brcc	.+4      	; 0x4668 <Read_ADS+0x48>
    4664:	80 e0       	ldi	r24, 0x00	; 0
    4666:	0f c0       	rjmp	.+30     	; 0x4686 <Read_ADS+0x66>
	*x=xtemp;
    4668:	8d 81       	ldd	r24, Y+5	; 0x05
    466a:	9e 81       	ldd	r25, Y+6	; 0x06
    466c:	29 81       	ldd	r18, Y+1	; 0x01
    466e:	3a 81       	ldd	r19, Y+2	; 0x02
    4670:	fc 01       	movw	r30, r24
    4672:	31 83       	std	Z+1, r19	; 0x01
    4674:	20 83       	st	Z, r18
	*y=ytemp;
    4676:	8f 81       	ldd	r24, Y+7	; 0x07
    4678:	98 85       	ldd	r25, Y+8	; 0x08
    467a:	2b 81       	ldd	r18, Y+3	; 0x03
    467c:	3c 81       	ldd	r19, Y+4	; 0x04
    467e:	fc 01       	movw	r30, r24
    4680:	31 83       	std	Z+1, r19	; 0x01
    4682:	20 83       	st	Z, r18
	return 1;
    4684:	81 e0       	ldi	r24, 0x01	; 1
}
    4686:	28 96       	adiw	r28, 0x08	; 8
    4688:	0f b6       	in	r0, 0x3f	; 63
    468a:	f8 94       	cli
    468c:	de bf       	out	0x3e, r29	; 62
    468e:	0f be       	out	0x3f, r0	; 63
    4690:	cd bf       	out	0x3d, r28	; 61
    4692:	cf 91       	pop	r28
    4694:	df 91       	pop	r29
    4696:	08 95       	ret

00004698 <Read_ADS2>:

unsigned char Read_ADS2(unsigned int *x,unsigned int *y)
{
    4698:	df 93       	push	r29
    469a:	cf 93       	push	r28
    469c:	cd b7       	in	r28, 0x3d	; 61
    469e:	de b7       	in	r29, 0x3e	; 62
    46a0:	2d 97       	sbiw	r28, 0x0d	; 13
    46a2:	0f b6       	in	r0, 0x3f	; 63
    46a4:	f8 94       	cli
    46a6:	de bf       	out	0x3e, r29	; 62
    46a8:	0f be       	out	0x3f, r0	; 63
    46aa:	cd bf       	out	0x3d, r28	; 61
    46ac:	9b 87       	std	Y+11, r25	; 0x0b
    46ae:	8a 87       	std	Y+10, r24	; 0x0a
    46b0:	7d 87       	std	Y+13, r23	; 0x0d
    46b2:	6c 87       	std	Y+12, r22	; 0x0c
    unsigned int x1,y1;
    unsigned int x2,y2;
 	char flag;
    flag=Read_ADS(&x1,&y1);   
    46b4:	ce 01       	movw	r24, r28
    46b6:	02 96       	adiw	r24, 0x02	; 2
    46b8:	9e 01       	movw	r18, r28
    46ba:	2c 5f       	subi	r18, 0xFC	; 252
    46bc:	3f 4f       	sbci	r19, 0xFF	; 255
    46be:	b9 01       	movw	r22, r18
    46c0:	0e 94 10 23 	call	0x4620	; 0x4620 <Read_ADS>
    46c4:	89 83       	std	Y+1, r24	; 0x01
    if(flag==0)return(0);
    46c6:	89 81       	ldd	r24, Y+1	; 0x01
    46c8:	88 23       	and	r24, r24
    46ca:	11 f4       	brne	.+4      	; 0x46d0 <Read_ADS2+0x38>
    46cc:	80 e0       	ldi	r24, 0x00	; 0
    46ce:	73 c0       	rjmp	.+230    	; 0x47b6 <Read_ADS2+0x11e>
    flag=Read_ADS(&x2,&y2);
    46d0:	ce 01       	movw	r24, r28
    46d2:	06 96       	adiw	r24, 0x06	; 6
    46d4:	9e 01       	movw	r18, r28
    46d6:	28 5f       	subi	r18, 0xF8	; 248
    46d8:	3f 4f       	sbci	r19, 0xFF	; 255
    46da:	b9 01       	movw	r22, r18
    46dc:	0e 94 10 23 	call	0x4620	; 0x4620 <Read_ADS>
    46e0:	89 83       	std	Y+1, r24	; 0x01
    if(flag==0)return(0);
    46e2:	89 81       	ldd	r24, Y+1	; 0x01
    46e4:	88 23       	and	r24, r24
    46e6:	11 f4       	brne	.+4      	; 0x46ec <Read_ADS2+0x54>
    46e8:	80 e0       	ldi	r24, 0x00	; 0
    46ea:	65 c0       	rjmp	.+202    	; 0x47b6 <Read_ADS2+0x11e>
    if(((x2<=x1&&x1<x2+ERR_RANGE)||(x1<=x2&&x2<x1+ERR_RANGE))&&((y2<=y1&&y1<y2+ERR_RANGE)||(y1<=y2&&y2<y1+ERR_RANGE)))
    46ec:	2e 81       	ldd	r18, Y+6	; 0x06
    46ee:	3f 81       	ldd	r19, Y+7	; 0x07
    46f0:	8a 81       	ldd	r24, Y+2	; 0x02
    46f2:	9b 81       	ldd	r25, Y+3	; 0x03
    46f4:	82 17       	cp	r24, r18
    46f6:	93 07       	cpc	r25, r19
    46f8:	50 f0       	brcs	.+20     	; 0x470e <Read_ADS2+0x76>
    46fa:	8e 81       	ldd	r24, Y+6	; 0x06
    46fc:	9f 81       	ldd	r25, Y+7	; 0x07
    46fe:	9c 01       	movw	r18, r24
    4700:	2c 5e       	subi	r18, 0xEC	; 236
    4702:	3f 4f       	sbci	r19, 0xFF	; 255
    4704:	8a 81       	ldd	r24, Y+2	; 0x02
    4706:	9b 81       	ldd	r25, Y+3	; 0x03
    4708:	82 17       	cp	r24, r18
    470a:	93 07       	cpc	r25, r19
    470c:	98 f0       	brcs	.+38     	; 0x4734 <Read_ADS2+0x9c>
    470e:	2a 81       	ldd	r18, Y+2	; 0x02
    4710:	3b 81       	ldd	r19, Y+3	; 0x03
    4712:	8e 81       	ldd	r24, Y+6	; 0x06
    4714:	9f 81       	ldd	r25, Y+7	; 0x07
    4716:	82 17       	cp	r24, r18
    4718:	93 07       	cpc	r25, r19
    471a:	08 f4       	brcc	.+2      	; 0x471e <Read_ADS2+0x86>
    471c:	4b c0       	rjmp	.+150    	; 0x47b4 <Read_ADS2+0x11c>
    471e:	8a 81       	ldd	r24, Y+2	; 0x02
    4720:	9b 81       	ldd	r25, Y+3	; 0x03
    4722:	9c 01       	movw	r18, r24
    4724:	2c 5e       	subi	r18, 0xEC	; 236
    4726:	3f 4f       	sbci	r19, 0xFF	; 255
    4728:	8e 81       	ldd	r24, Y+6	; 0x06
    472a:	9f 81       	ldd	r25, Y+7	; 0x07
    472c:	82 17       	cp	r24, r18
    472e:	93 07       	cpc	r25, r19
    4730:	08 f0       	brcs	.+2      	; 0x4734 <Read_ADS2+0x9c>
    4732:	40 c0       	rjmp	.+128    	; 0x47b4 <Read_ADS2+0x11c>
    4734:	28 85       	ldd	r18, Y+8	; 0x08
    4736:	39 85       	ldd	r19, Y+9	; 0x09
    4738:	8c 81       	ldd	r24, Y+4	; 0x04
    473a:	9d 81       	ldd	r25, Y+5	; 0x05
    473c:	82 17       	cp	r24, r18
    473e:	93 07       	cpc	r25, r19
    4740:	50 f0       	brcs	.+20     	; 0x4756 <Read_ADS2+0xbe>
    4742:	88 85       	ldd	r24, Y+8	; 0x08
    4744:	99 85       	ldd	r25, Y+9	; 0x09
    4746:	9c 01       	movw	r18, r24
    4748:	2c 5e       	subi	r18, 0xEC	; 236
    474a:	3f 4f       	sbci	r19, 0xFF	; 255
    474c:	8c 81       	ldd	r24, Y+4	; 0x04
    474e:	9d 81       	ldd	r25, Y+5	; 0x05
    4750:	82 17       	cp	r24, r18
    4752:	93 07       	cpc	r25, r19
    4754:	88 f0       	brcs	.+34     	; 0x4778 <Read_ADS2+0xe0>
    4756:	2c 81       	ldd	r18, Y+4	; 0x04
    4758:	3d 81       	ldd	r19, Y+5	; 0x05
    475a:	88 85       	ldd	r24, Y+8	; 0x08
    475c:	99 85       	ldd	r25, Y+9	; 0x09
    475e:	82 17       	cp	r24, r18
    4760:	93 07       	cpc	r25, r19
    4762:	40 f1       	brcs	.+80     	; 0x47b4 <Read_ADS2+0x11c>
    4764:	8c 81       	ldd	r24, Y+4	; 0x04
    4766:	9d 81       	ldd	r25, Y+5	; 0x05
    4768:	9c 01       	movw	r18, r24
    476a:	2c 5e       	subi	r18, 0xEC	; 236
    476c:	3f 4f       	sbci	r19, 0xFF	; 255
    476e:	88 85       	ldd	r24, Y+8	; 0x08
    4770:	99 85       	ldd	r25, Y+9	; 0x09
    4772:	82 17       	cp	r24, r18
    4774:	93 07       	cpc	r25, r19
    4776:	f0 f4       	brcc	.+60     	; 0x47b4 <Read_ADS2+0x11c>
    {
        *x=(x1+x2)/2;
    4778:	2a 81       	ldd	r18, Y+2	; 0x02
    477a:	3b 81       	ldd	r19, Y+3	; 0x03
    477c:	8e 81       	ldd	r24, Y+6	; 0x06
    477e:	9f 81       	ldd	r25, Y+7	; 0x07
    4780:	82 0f       	add	r24, r18
    4782:	93 1f       	adc	r25, r19
    4784:	9c 01       	movw	r18, r24
    4786:	36 95       	lsr	r19
    4788:	27 95       	ror	r18
    478a:	8a 85       	ldd	r24, Y+10	; 0x0a
    478c:	9b 85       	ldd	r25, Y+11	; 0x0b
    478e:	fc 01       	movw	r30, r24
    4790:	31 83       	std	Z+1, r19	; 0x01
    4792:	20 83       	st	Z, r18
        *y=(y1+y2)/2;
    4794:	2c 81       	ldd	r18, Y+4	; 0x04
    4796:	3d 81       	ldd	r19, Y+5	; 0x05
    4798:	88 85       	ldd	r24, Y+8	; 0x08
    479a:	99 85       	ldd	r25, Y+9	; 0x09
    479c:	82 0f       	add	r24, r18
    479e:	93 1f       	adc	r25, r19
    47a0:	9c 01       	movw	r18, r24
    47a2:	36 95       	lsr	r19
    47a4:	27 95       	ror	r18
    47a6:	8c 85       	ldd	r24, Y+12	; 0x0c
    47a8:	9d 85       	ldd	r25, Y+13	; 0x0d
    47aa:	fc 01       	movw	r30, r24
    47ac:	31 83       	std	Z+1, r19	; 0x01
    47ae:	20 83       	st	Z, r18
        return 1;
    47b0:	81 e0       	ldi	r24, 0x01	; 1
    47b2:	01 c0       	rjmp	.+2      	; 0x47b6 <Read_ADS2+0x11e>
    }else return 0;
    47b4:	80 e0       	ldi	r24, 0x00	; 0
}
    47b6:	2d 96       	adiw	r28, 0x0d	; 13
    47b8:	0f b6       	in	r0, 0x3f	; 63
    47ba:	f8 94       	cli
    47bc:	de bf       	out	0x3e, r29	; 62
    47be:	0f be       	out	0x3f, r0	; 63
    47c0:	cd bf       	out	0x3d, r28	; 61
    47c2:	cf 91       	pop	r28
    47c4:	df 91       	pop	r29
    47c6:	08 95       	ret

000047c8 <Read_TP_Once>:

unsigned char Read_TP_Once(void)
{
    47c8:	df 93       	push	r29
    47ca:	cf 93       	push	r28
    47cc:	00 d0       	rcall	.+0      	; 0x47ce <Read_TP_Once+0x6>
    47ce:	00 d0       	rcall	.+0      	; 0x47d0 <Read_TP_Once+0x8>
    47d0:	0f 92       	push	r0
    47d2:	cd b7       	in	r28, 0x3d	; 61
    47d4:	de b7       	in	r29, 0x3e	; 62
	unsigned char re=0;
    47d6:	19 82       	std	Y+1, r1	; 0x01
	unsigned int x1,y1;
	while(re==0)
    47d8:	2d c0       	rjmp	.+90     	; 0x4834 <Read_TP_Once+0x6c>
	{
		while(!Read_ADS2(&tp_pixad.x,&tp_pixad.y));
    47da:	00 00       	nop
    47dc:	8b ec       	ldi	r24, 0xCB	; 203
    47de:	93 e0       	ldi	r25, 0x03	; 3
    47e0:	2d ec       	ldi	r18, 0xCD	; 205
    47e2:	33 e0       	ldi	r19, 0x03	; 3
    47e4:	b9 01       	movw	r22, r18
    47e6:	0e 94 4c 23 	call	0x4698	; 0x4698 <Read_ADS2>
    47ea:	88 23       	and	r24, r24
    47ec:	b9 f3       	breq	.-18     	; 0x47dc <Read_TP_Once+0x14>
		delayms(10);
    47ee:	8a e0       	ldi	r24, 0x0A	; 10
    47f0:	90 e0       	ldi	r25, 0x00	; 0
    47f2:	0e 94 f1 0d 	call	0x1be2	; 0x1be2 <delayms>
		while(!Read_ADS2(&x1,&y1));
    47f6:	00 00       	nop
    47f8:	ce 01       	movw	r24, r28
    47fa:	02 96       	adiw	r24, 0x02	; 2
    47fc:	9e 01       	movw	r18, r28
    47fe:	2c 5f       	subi	r18, 0xFC	; 252
    4800:	3f 4f       	sbci	r19, 0xFF	; 255
    4802:	b9 01       	movw	r22, r18
    4804:	0e 94 4c 23 	call	0x4698	; 0x4698 <Read_ADS2>
    4808:	88 23       	and	r24, r24
    480a:	b1 f3       	breq	.-20     	; 0x47f8 <Read_TP_Once+0x30>
		if(tp_pixad.x==x1&&tp_pixad.y==y1)
    480c:	20 91 cb 03 	lds	r18, 0x03CB
    4810:	30 91 cc 03 	lds	r19, 0x03CC
    4814:	8a 81       	ldd	r24, Y+2	; 0x02
    4816:	9b 81       	ldd	r25, Y+3	; 0x03
    4818:	28 17       	cp	r18, r24
    481a:	39 07       	cpc	r19, r25
    481c:	59 f4       	brne	.+22     	; 0x4834 <Read_TP_Once+0x6c>
    481e:	20 91 cd 03 	lds	r18, 0x03CD
    4822:	30 91 ce 03 	lds	r19, 0x03CE
    4826:	8c 81       	ldd	r24, Y+4	; 0x04
    4828:	9d 81       	ldd	r25, Y+5	; 0x05
    482a:	28 17       	cp	r18, r24
    482c:	39 07       	cpc	r19, r25
    482e:	11 f4       	brne	.+4      	; 0x4834 <Read_TP_Once+0x6c>
		{
			re=1;
    4830:	81 e0       	ldi	r24, 0x01	; 1
    4832:	89 83       	std	Y+1, r24	; 0x01

unsigned char Read_TP_Once(void)
{
	unsigned char re=0;
	unsigned int x1,y1;
	while(re==0)
    4834:	89 81       	ldd	r24, Y+1	; 0x01
    4836:	88 23       	and	r24, r24
    4838:	81 f2       	breq	.-96     	; 0x47da <Read_TP_Once+0x12>
		if(tp_pixad.x==x1&&tp_pixad.y==y1)
		{
			re=1;
		}
	}
	return re;
    483a:	89 81       	ldd	r24, Y+1	; 0x01
}
    483c:	0f 90       	pop	r0
    483e:	0f 90       	pop	r0
    4840:	0f 90       	pop	r0
    4842:	0f 90       	pop	r0
    4844:	0f 90       	pop	r0
    4846:	cf 91       	pop	r28
    4848:	df 91       	pop	r29
    484a:	08 95       	ret

0000484c <Convert_Pos>:

unsigned char Convert_Pos(void)
{
    484c:	df 93       	push	r29
    484e:	cf 93       	push	r28
    4850:	0f 92       	push	r0
    4852:	cd b7       	in	r28, 0x3d	; 61
    4854:	de b7       	in	r29, 0x3e	; 62
	unsigned char l=0;
    4856:	19 82       	std	Y+1, r1	; 0x01
	if(Read_ADS2(&tp_pixad.x,&tp_pixad.y)==1)
    4858:	8b ec       	ldi	r24, 0xCB	; 203
    485a:	93 e0       	ldi	r25, 0x03	; 3
    485c:	2d ec       	ldi	r18, 0xCD	; 205
    485e:	33 e0       	ldi	r19, 0x03	; 3
    4860:	b9 01       	movw	r22, r18
    4862:	0e 94 4c 23 	call	0x4698	; 0x4698 <Read_ADS2>
    4866:	81 30       	cpi	r24, 0x01	; 1
    4868:	09 f0       	breq	.+2      	; 0x486c <Convert_Pos+0x20>
    486a:	98 c0       	rjmp	.+304    	; 0x499c <Convert_Pos+0x150>
	{
		l=1;
    486c:	81 e0       	ldi	r24, 0x01	; 1
    486e:	89 83       	std	Y+1, r24	; 0x01
		tp_pixlcd.x=tp_pixad.x>chx?((unsigned long)tp_pixad.x-chx)*1000/vx:(chx-(unsigned long)tp_pixad.x)*1000/vx;
    4870:	80 91 cb 03 	lds	r24, 0x03CB
    4874:	90 91 cc 03 	lds	r25, 0x03CC
    4878:	2e e1       	ldi	r18, 0x1E	; 30
    487a:	81 34       	cpi	r24, 0x41	; 65
    487c:	92 07       	cpc	r25, r18
    487e:	00 f1       	brcs	.+64     	; 0x48c0 <Convert_Pos+0x74>
    4880:	80 91 cb 03 	lds	r24, 0x03CB
    4884:	90 91 cc 03 	lds	r25, 0x03CC
    4888:	cc 01       	movw	r24, r24
    488a:	a0 e0       	ldi	r26, 0x00	; 0
    488c:	b0 e0       	ldi	r27, 0x00	; 0
    488e:	28 ee       	ldi	r18, 0xE8	; 232
    4890:	33 e0       	ldi	r19, 0x03	; 3
    4892:	40 e0       	ldi	r20, 0x00	; 0
    4894:	50 e0       	ldi	r21, 0x00	; 0
    4896:	bc 01       	movw	r22, r24
    4898:	cd 01       	movw	r24, r26
    489a:	0e 94 4b 30 	call	0x6096	; 0x6096 <__mulsi3>
    489e:	dc 01       	movw	r26, r24
    48a0:	cb 01       	movw	r24, r22
    48a2:	80 50       	subi	r24, 0x00	; 0
    48a4:	9a 42       	sbci	r25, 0x2A	; 42
    48a6:	a6 47       	sbci	r26, 0x76	; 118
    48a8:	b0 40       	sbci	r27, 0x00	; 0
    48aa:	28 e5       	ldi	r18, 0x58	; 88
    48ac:	3c e3       	ldi	r19, 0x3C	; 60
    48ae:	40 e0       	ldi	r20, 0x00	; 0
    48b0:	50 e0       	ldi	r21, 0x00	; 0
    48b2:	bc 01       	movw	r22, r24
    48b4:	cd 01       	movw	r24, r26
    48b6:	0e 94 91 30 	call	0x6122	; 0x6122 <__udivmodsi4>
    48ba:	da 01       	movw	r26, r20
    48bc:	c9 01       	movw	r24, r18
    48be:	1f c0       	rjmp	.+62     	; 0x48fe <Convert_Pos+0xb2>
    48c0:	80 91 cb 03 	lds	r24, 0x03CB
    48c4:	90 91 cc 03 	lds	r25, 0x03CC
    48c8:	cc 01       	movw	r24, r24
    48ca:	a0 e0       	ldi	r26, 0x00	; 0
    48cc:	b0 e0       	ldi	r27, 0x00	; 0
    48ce:	28 e1       	ldi	r18, 0x18	; 24
    48d0:	3c ef       	ldi	r19, 0xFC	; 252
    48d2:	4f ef       	ldi	r20, 0xFF	; 255
    48d4:	5f ef       	ldi	r21, 0xFF	; 255
    48d6:	bc 01       	movw	r22, r24
    48d8:	cd 01       	movw	r24, r26
    48da:	0e 94 4b 30 	call	0x6096	; 0x6096 <__mulsi3>
    48de:	dc 01       	movw	r26, r24
    48e0:	cb 01       	movw	r24, r22
    48e2:	80 50       	subi	r24, 0x00	; 0
    48e4:	96 4d       	sbci	r25, 0xD6	; 214
    48e6:	a9 48       	sbci	r26, 0x89	; 137
    48e8:	bf 4f       	sbci	r27, 0xFF	; 255
    48ea:	28 e5       	ldi	r18, 0x58	; 88
    48ec:	3c e3       	ldi	r19, 0x3C	; 60
    48ee:	40 e0       	ldi	r20, 0x00	; 0
    48f0:	50 e0       	ldi	r21, 0x00	; 0
    48f2:	bc 01       	movw	r22, r24
    48f4:	cd 01       	movw	r24, r26
    48f6:	0e 94 91 30 	call	0x6122	; 0x6122 <__udivmodsi4>
    48fa:	da 01       	movw	r26, r20
    48fc:	c9 01       	movw	r24, r18
    48fe:	90 93 d0 03 	sts	0x03D0, r25
    4902:	80 93 cf 03 	sts	0x03CF, r24
		tp_pixlcd.y=tp_pixad.y>chy?((unsigned long)tp_pixad.y-chy)*1000/vy:(chy-(unsigned long)tp_pixad.y)*1000/vy;
    4906:	80 91 cd 03 	lds	r24, 0x03CD
    490a:	90 91 ce 03 	lds	r25, 0x03CE
    490e:	2d e1       	ldi	r18, 0x1D	; 29
    4910:	87 36       	cpi	r24, 0x67	; 103
    4912:	92 07       	cpc	r25, r18
    4914:	00 f1       	brcs	.+64     	; 0x4956 <Convert_Pos+0x10a>
    4916:	80 91 cd 03 	lds	r24, 0x03CD
    491a:	90 91 ce 03 	lds	r25, 0x03CE
    491e:	cc 01       	movw	r24, r24
    4920:	a0 e0       	ldi	r26, 0x00	; 0
    4922:	b0 e0       	ldi	r27, 0x00	; 0
    4924:	28 ee       	ldi	r18, 0xE8	; 232
    4926:	33 e0       	ldi	r19, 0x03	; 3
    4928:	40 e0       	ldi	r20, 0x00	; 0
    492a:	50 e0       	ldi	r21, 0x00	; 0
    492c:	bc 01       	movw	r22, r24
    492e:	cd 01       	movw	r24, r26
    4930:	0e 94 4b 30 	call	0x6096	; 0x6096 <__mulsi3>
    4934:	dc 01       	movw	r26, r24
    4936:	cb 01       	movw	r24, r22
    4938:	80 57       	subi	r24, 0x70	; 112
    493a:	96 4d       	sbci	r25, 0xD6	; 214
    493c:	a2 47       	sbci	r26, 0x72	; 114
    493e:	b0 40       	sbci	r27, 0x00	; 0
    4940:	24 e5       	ldi	r18, 0x54	; 84
    4942:	35 e6       	ldi	r19, 0x65	; 101
    4944:	40 e0       	ldi	r20, 0x00	; 0
    4946:	50 e0       	ldi	r21, 0x00	; 0
    4948:	bc 01       	movw	r22, r24
    494a:	cd 01       	movw	r24, r26
    494c:	0e 94 91 30 	call	0x6122	; 0x6122 <__udivmodsi4>
    4950:	da 01       	movw	r26, r20
    4952:	c9 01       	movw	r24, r18
    4954:	1f c0       	rjmp	.+62     	; 0x4994 <Convert_Pos+0x148>
    4956:	80 91 cd 03 	lds	r24, 0x03CD
    495a:	90 91 ce 03 	lds	r25, 0x03CE
    495e:	cc 01       	movw	r24, r24
    4960:	a0 e0       	ldi	r26, 0x00	; 0
    4962:	b0 e0       	ldi	r27, 0x00	; 0
    4964:	28 e1       	ldi	r18, 0x18	; 24
    4966:	3c ef       	ldi	r19, 0xFC	; 252
    4968:	4f ef       	ldi	r20, 0xFF	; 255
    496a:	5f ef       	ldi	r21, 0xFF	; 255
    496c:	bc 01       	movw	r22, r24
    496e:	cd 01       	movw	r24, r26
    4970:	0e 94 4b 30 	call	0x6096	; 0x6096 <__mulsi3>
    4974:	dc 01       	movw	r26, r24
    4976:	cb 01       	movw	r24, r22
    4978:	80 59       	subi	r24, 0x90	; 144
    497a:	99 42       	sbci	r25, 0x29	; 41
    497c:	ad 48       	sbci	r26, 0x8D	; 141
    497e:	bf 4f       	sbci	r27, 0xFF	; 255
    4980:	24 e5       	ldi	r18, 0x54	; 84
    4982:	35 e6       	ldi	r19, 0x65	; 101
    4984:	40 e0       	ldi	r20, 0x00	; 0
    4986:	50 e0       	ldi	r21, 0x00	; 0
    4988:	bc 01       	movw	r22, r24
    498a:	cd 01       	movw	r24, r26
    498c:	0e 94 91 30 	call	0x6122	; 0x6122 <__udivmodsi4>
    4990:	da 01       	movw	r26, r20
    4992:	c9 01       	movw	r24, r18
    4994:	90 93 d2 03 	sts	0x03D2, r25
    4998:	80 93 d1 03 	sts	0x03D1, r24
	}
	return l;
    499c:	89 81       	ldd	r24, Y+1	; 0x01
}
    499e:	0f 90       	pop	r0
    49a0:	cf 91       	pop	r28
    49a2:	df 91       	pop	r29
    49a4:	08 95       	ret

000049a6 <function>:

char function(void)
{
    49a6:	df 93       	push	r29
    49a8:	cf 93       	push	r28
    49aa:	cd b7       	in	r28, 0x3d	; 61
    49ac:	de b7       	in	r29, 0x3e	; 62
	 Convert_Pos();
    49ae:	0e 94 26 24 	call	0x484c	; 0x484c <Convert_Pos>
	 if((((tp_pixlcd.x)>100)&&((tp_pixlcd.x)<190))&&(((tp_pixlcd.y)>200)&&((tp_pixlcd.y)<280)))return 1;
    49b2:	80 91 cf 03 	lds	r24, 0x03CF
    49b6:	90 91 d0 03 	lds	r25, 0x03D0
    49ba:	85 36       	cpi	r24, 0x65	; 101
    49bc:	91 05       	cpc	r25, r1
    49be:	c0 f0       	brcs	.+48     	; 0x49f0 <function+0x4a>
    49c0:	80 91 cf 03 	lds	r24, 0x03CF
    49c4:	90 91 d0 03 	lds	r25, 0x03D0
    49c8:	8e 3b       	cpi	r24, 0xBE	; 190
    49ca:	91 05       	cpc	r25, r1
    49cc:	88 f4       	brcc	.+34     	; 0x49f0 <function+0x4a>
    49ce:	80 91 d1 03 	lds	r24, 0x03D1
    49d2:	90 91 d2 03 	lds	r25, 0x03D2
    49d6:	89 3c       	cpi	r24, 0xC9	; 201
    49d8:	91 05       	cpc	r25, r1
    49da:	50 f0       	brcs	.+20     	; 0x49f0 <function+0x4a>
    49dc:	80 91 d1 03 	lds	r24, 0x03D1
    49e0:	90 91 d2 03 	lds	r25, 0x03D2
    49e4:	21 e0       	ldi	r18, 0x01	; 1
    49e6:	88 31       	cpi	r24, 0x18	; 24
    49e8:	92 07       	cpc	r25, r18
    49ea:	10 f4       	brcc	.+4      	; 0x49f0 <function+0x4a>
    49ec:	81 e0       	ldi	r24, 0x01	; 1
    49ee:	42 c0       	rjmp	.+132    	; 0x4a74 <function+0xce>
	 else if((((tp_pixlcd.x)>230)&&((tp_pixlcd.x)<320))&&(((tp_pixlcd.y)>200)&&((tp_pixlcd.y)<280)))return 2;
    49f0:	80 91 cf 03 	lds	r24, 0x03CF
    49f4:	90 91 d0 03 	lds	r25, 0x03D0
    49f8:	87 3e       	cpi	r24, 0xE7	; 231
    49fa:	91 05       	cpc	r25, r1
    49fc:	c8 f0       	brcs	.+50     	; 0x4a30 <function+0x8a>
    49fe:	80 91 cf 03 	lds	r24, 0x03CF
    4a02:	90 91 d0 03 	lds	r25, 0x03D0
    4a06:	21 e0       	ldi	r18, 0x01	; 1
    4a08:	80 34       	cpi	r24, 0x40	; 64
    4a0a:	92 07       	cpc	r25, r18
    4a0c:	88 f4       	brcc	.+34     	; 0x4a30 <function+0x8a>
    4a0e:	80 91 d1 03 	lds	r24, 0x03D1
    4a12:	90 91 d2 03 	lds	r25, 0x03D2
    4a16:	89 3c       	cpi	r24, 0xC9	; 201
    4a18:	91 05       	cpc	r25, r1
    4a1a:	50 f0       	brcs	.+20     	; 0x4a30 <function+0x8a>
    4a1c:	80 91 d1 03 	lds	r24, 0x03D1
    4a20:	90 91 d2 03 	lds	r25, 0x03D2
    4a24:	21 e0       	ldi	r18, 0x01	; 1
    4a26:	88 31       	cpi	r24, 0x18	; 24
    4a28:	92 07       	cpc	r25, r18
    4a2a:	10 f4       	brcc	.+4      	; 0x4a30 <function+0x8a>
    4a2c:	82 e0       	ldi	r24, 0x02	; 2
    4a2e:	22 c0       	rjmp	.+68     	; 0x4a74 <function+0xce>
	 else if((((tp_pixlcd.x)>320)&&((tp_pixlcd.x)<479))&&(((tp_pixlcd.y)>151)&&((tp_pixlcd.y)<281)))return 3;
    4a30:	80 91 cf 03 	lds	r24, 0x03CF
    4a34:	90 91 d0 03 	lds	r25, 0x03D0
    4a38:	21 e0       	ldi	r18, 0x01	; 1
    4a3a:	81 34       	cpi	r24, 0x41	; 65
    4a3c:	92 07       	cpc	r25, r18
    4a3e:	c8 f0       	brcs	.+50     	; 0x4a72 <function+0xcc>
    4a40:	80 91 cf 03 	lds	r24, 0x03CF
    4a44:	90 91 d0 03 	lds	r25, 0x03D0
    4a48:	21 e0       	ldi	r18, 0x01	; 1
    4a4a:	8f 3d       	cpi	r24, 0xDF	; 223
    4a4c:	92 07       	cpc	r25, r18
    4a4e:	88 f4       	brcc	.+34     	; 0x4a72 <function+0xcc>
    4a50:	80 91 d1 03 	lds	r24, 0x03D1
    4a54:	90 91 d2 03 	lds	r25, 0x03D2
    4a58:	88 39       	cpi	r24, 0x98	; 152
    4a5a:	91 05       	cpc	r25, r1
    4a5c:	50 f0       	brcs	.+20     	; 0x4a72 <function+0xcc>
    4a5e:	80 91 d1 03 	lds	r24, 0x03D1
    4a62:	90 91 d2 03 	lds	r25, 0x03D2
    4a66:	21 e0       	ldi	r18, 0x01	; 1
    4a68:	89 31       	cpi	r24, 0x19	; 25
    4a6a:	92 07       	cpc	r25, r18
    4a6c:	10 f4       	brcc	.+4      	; 0x4a72 <function+0xcc>
    4a6e:	83 e0       	ldi	r24, 0x03	; 3
    4a70:	01 c0       	rjmp	.+2      	; 0x4a74 <function+0xce>
	 else return 0;
    4a72:	80 e0       	ldi	r24, 0x00	; 0
    4a74:	cf 91       	pop	r28
    4a76:	df 91       	pop	r29
    4a78:	08 95       	ret

00004a7a <UI>:
#include "UI.h"
#include <string.h>
#include "config.h"

void UI(void)
{
    4a7a:	0f 93       	push	r16
    4a7c:	1f 93       	push	r17
    4a7e:	df 93       	push	r29
    4a80:	cf 93       	push	r28
    4a82:	00 d0       	rcall	.+0      	; 0x4a84 <UI+0xa>
    4a84:	00 d0       	rcall	.+0      	; 0x4a86 <UI+0xc>
    4a86:	00 d0       	rcall	.+0      	; 0x4a88 <UI+0xe>
    4a88:	cd b7       	in	r28, 0x3d	; 61
    4a8a:	de b7       	in	r29, 0x3e	; 62
	char ss[6];
 	LCD_BG_H;
    4a8c:	85 e6       	ldi	r24, 0x65	; 101
    4a8e:	90 e0       	ldi	r25, 0x00	; 0
    4a90:	25 e6       	ldi	r18, 0x65	; 101
    4a92:	30 e0       	ldi	r19, 0x00	; 0
    4a94:	f9 01       	movw	r30, r18
    4a96:	20 81       	ld	r18, Z
    4a98:	28 60       	ori	r18, 0x08	; 8
    4a9a:	fc 01       	movw	r30, r24
    4a9c:	20 83       	st	Z, r18
	LCD_Clear(0xffff);
    4a9e:	8f ef       	ldi	r24, 0xFF	; 255
    4aa0:	9f ef       	ldi	r25, 0xFF	; 255
    4aa2:	0e 94 f2 18 	call	0x31e4	; 0x31e4 <LCD_Clear>
	LCD_Fill(0,0,259,150,0x3b35);
    4aa6:	80 e0       	ldi	r24, 0x00	; 0
    4aa8:	90 e0       	ldi	r25, 0x00	; 0
    4aaa:	60 e0       	ldi	r22, 0x00	; 0
    4aac:	70 e0       	ldi	r23, 0x00	; 0
    4aae:	43 e0       	ldi	r20, 0x03	; 3
    4ab0:	51 e0       	ldi	r21, 0x01	; 1
    4ab2:	26 e9       	ldi	r18, 0x96	; 150
    4ab4:	30 e0       	ldi	r19, 0x00	; 0
    4ab6:	05 e3       	ldi	r16, 0x35	; 53
    4ab8:	1b e3       	ldi	r17, 0x3B	; 59
    4aba:	0e 94 53 19 	call	0x32a6	; 0x32a6 <LCD_Fill>
	LCD_Fill(260,0,479,150,0x32b2);
    4abe:	84 e0       	ldi	r24, 0x04	; 4
    4ac0:	91 e0       	ldi	r25, 0x01	; 1
    4ac2:	60 e0       	ldi	r22, 0x00	; 0
    4ac4:	70 e0       	ldi	r23, 0x00	; 0
    4ac6:	4f ed       	ldi	r20, 0xDF	; 223
    4ac8:	51 e0       	ldi	r21, 0x01	; 1
    4aca:	26 e9       	ldi	r18, 0x96	; 150
    4acc:	30 e0       	ldi	r19, 0x00	; 0
    4ace:	02 eb       	ldi	r16, 0xB2	; 178
    4ad0:	12 e3       	ldi	r17, 0x32	; 50
    4ad2:	0e 94 53 19 	call	0x32a6	; 0x32a6 <LCD_Fill>
	LCD_Fill(0,151,319,281,0xffff);
    4ad6:	80 e0       	ldi	r24, 0x00	; 0
    4ad8:	90 e0       	ldi	r25, 0x00	; 0
    4ada:	67 e9       	ldi	r22, 0x97	; 151
    4adc:	70 e0       	ldi	r23, 0x00	; 0
    4ade:	4f e3       	ldi	r20, 0x3F	; 63
    4ae0:	51 e0       	ldi	r21, 0x01	; 1
    4ae2:	29 e1       	ldi	r18, 0x19	; 25
    4ae4:	31 e0       	ldi	r19, 0x01	; 1
    4ae6:	0f ef       	ldi	r16, 0xFF	; 255
    4ae8:	1f ef       	ldi	r17, 0xFF	; 255
    4aea:	0e 94 53 19 	call	0x32a6	; 0x32a6 <LCD_Fill>
	LCD_Fill(320,151,479,281,0x012C);
    4aee:	80 e4       	ldi	r24, 0x40	; 64
    4af0:	91 e0       	ldi	r25, 0x01	; 1
    4af2:	67 e9       	ldi	r22, 0x97	; 151
    4af4:	70 e0       	ldi	r23, 0x00	; 0
    4af6:	4f ed       	ldi	r20, 0xDF	; 223
    4af8:	51 e0       	ldi	r21, 0x01	; 1
    4afa:	29 e1       	ldi	r18, 0x19	; 25
    4afc:	31 e0       	ldi	r19, 0x01	; 1
    4afe:	0c e2       	ldi	r16, 0x2C	; 44
    4b00:	11 e0       	ldi	r17, 0x01	; 1
    4b02:	0e 94 53 19 	call	0x32a6	; 0x32a6 <LCD_Fill>
	showzifustr(15,25,"Temperature",0xffff,0x3b35);
    4b06:	2d e0       	ldi	r18, 0x0D	; 13
    4b08:	31 e0       	ldi	r19, 0x01	; 1
    4b0a:	8f e0       	ldi	r24, 0x0F	; 15
    4b0c:	90 e0       	ldi	r25, 0x00	; 0
    4b0e:	69 e1       	ldi	r22, 0x19	; 25
    4b10:	70 e0       	ldi	r23, 0x00	; 0
    4b12:	a9 01       	movw	r20, r18
    4b14:	2f ef       	ldi	r18, 0xFF	; 255
    4b16:	3f ef       	ldi	r19, 0xFF	; 255
    4b18:	05 e3       	ldi	r16, 0x35	; 53
    4b1a:	1b e3       	ldi	r17, 0x3B	; 59
    4b1c:	0e 94 4c 1b 	call	0x3698	; 0x3698 <showzifustr>
	showzifustr(192,80,"$C",0xffff,0x3b35);
    4b20:	29 e1       	ldi	r18, 0x19	; 25
    4b22:	31 e0       	ldi	r19, 0x01	; 1
    4b24:	80 ec       	ldi	r24, 0xC0	; 192
    4b26:	90 e0       	ldi	r25, 0x00	; 0
    4b28:	60 e5       	ldi	r22, 0x50	; 80
    4b2a:	70 e0       	ldi	r23, 0x00	; 0
    4b2c:	a9 01       	movw	r20, r18
    4b2e:	2f ef       	ldi	r18, 0xFF	; 255
    4b30:	3f ef       	ldi	r19, 0xFF	; 255
    4b32:	05 e3       	ldi	r16, 0x35	; 53
    4b34:	1b e3       	ldi	r17, 0x3B	; 59
    4b36:	0e 94 4c 1b 	call	0x3698	; 0x3698 <showzifustr>
	showzifustr(285,25,"Humidity",0xffff,0x32b2);
    4b3a:	2c e1       	ldi	r18, 0x1C	; 28
    4b3c:	31 e0       	ldi	r19, 0x01	; 1
    4b3e:	8d e1       	ldi	r24, 0x1D	; 29
    4b40:	91 e0       	ldi	r25, 0x01	; 1
    4b42:	69 e1       	ldi	r22, 0x19	; 25
    4b44:	70 e0       	ldi	r23, 0x00	; 0
    4b46:	a9 01       	movw	r20, r18
    4b48:	2f ef       	ldi	r18, 0xFF	; 255
    4b4a:	3f ef       	ldi	r19, 0xFF	; 255
    4b4c:	02 eb       	ldi	r16, 0xB2	; 178
    4b4e:	12 e3       	ldi	r17, 0x32	; 50
    4b50:	0e 94 4c 1b 	call	0x3698	; 0x3698 <showzifustr>
	showzifustr(427,80,"%",0xffff,0x32b2);
    4b54:	25 e2       	ldi	r18, 0x25	; 37
    4b56:	31 e0       	ldi	r19, 0x01	; 1
    4b58:	8b ea       	ldi	r24, 0xAB	; 171
    4b5a:	91 e0       	ldi	r25, 0x01	; 1
    4b5c:	60 e5       	ldi	r22, 0x50	; 80
    4b5e:	70 e0       	ldi	r23, 0x00	; 0
    4b60:	a9 01       	movw	r20, r18
    4b62:	2f ef       	ldi	r18, 0xFF	; 255
    4b64:	3f ef       	ldi	r19, 0xFF	; 255
    4b66:	02 eb       	ldi	r16, 0xB2	; 178
    4b68:	12 e3       	ldi	r17, 0x32	; 50
    4b6a:	0e 94 4c 1b 	call	0x3698	; 0x3698 <showzifustr>
	showzifustr(15,156,"Setting",0x3b35,0xffff);
    4b6e:	27 e2       	ldi	r18, 0x27	; 39
    4b70:	31 e0       	ldi	r19, 0x01	; 1
    4b72:	8f e0       	ldi	r24, 0x0F	; 15
    4b74:	90 e0       	ldi	r25, 0x00	; 0
    4b76:	6c e9       	ldi	r22, 0x9C	; 156
    4b78:	70 e0       	ldi	r23, 0x00	; 0
    4b7a:	a9 01       	movw	r20, r18
    4b7c:	25 e3       	ldi	r18, 0x35	; 53
    4b7e:	3b e3       	ldi	r19, 0x3B	; 59
    4b80:	0f ef       	ldi	r16, 0xFF	; 255
    4b82:	1f ef       	ldi	r17, 0xFF	; 255
    4b84:	0e 94 4c 1b 	call	0x3698	; 0x3698 <showzifustr>
	inttostrC(25,ss);
    4b88:	89 e1       	ldi	r24, 0x19	; 25
    4b8a:	90 e0       	ldi	r25, 0x00	; 0
    4b8c:	9e 01       	movw	r18, r28
    4b8e:	2f 5f       	subi	r18, 0xFF	; 255
    4b90:	3f 4f       	sbci	r19, 0xFF	; 255
    4b92:	b9 01       	movw	r22, r18
    4b94:	0e 94 02 1e 	call	0x3c04	; 0x3c04 <inttostrC>
	showzifustr(180,220,ss,0,0xffff);
    4b98:	84 eb       	ldi	r24, 0xB4	; 180
    4b9a:	90 e0       	ldi	r25, 0x00	; 0
    4b9c:	6c ed       	ldi	r22, 0xDC	; 220
    4b9e:	70 e0       	ldi	r23, 0x00	; 0
    4ba0:	9e 01       	movw	r18, r28
    4ba2:	2f 5f       	subi	r18, 0xFF	; 255
    4ba4:	3f 4f       	sbci	r19, 0xFF	; 255
    4ba6:	a9 01       	movw	r20, r18
    4ba8:	20 e0       	ldi	r18, 0x00	; 0
    4baa:	30 e0       	ldi	r19, 0x00	; 0
    4bac:	0f ef       	ldi	r16, 0xFF	; 255
    4bae:	1f ef       	ldi	r17, 0xFF	; 255
    4bb0:	0e 94 4c 1b 	call	0x3698	; 0x3698 <showzifustr>
	showzifustr(145,220,"<",0x8410,0xffff);
    4bb4:	2f e2       	ldi	r18, 0x2F	; 47
    4bb6:	31 e0       	ldi	r19, 0x01	; 1
    4bb8:	81 e9       	ldi	r24, 0x91	; 145
    4bba:	90 e0       	ldi	r25, 0x00	; 0
    4bbc:	6c ed       	ldi	r22, 0xDC	; 220
    4bbe:	70 e0       	ldi	r23, 0x00	; 0
    4bc0:	a9 01       	movw	r20, r18
    4bc2:	20 e1       	ldi	r18, 0x10	; 16
    4bc4:	34 e8       	ldi	r19, 0x84	; 132
    4bc6:	0f ef       	ldi	r16, 0xFF	; 255
    4bc8:	1f ef       	ldi	r17, 0xFF	; 255
    4bca:	0e 94 4c 1b 	call	0x3698	; 0x3698 <showzifustr>
	showzifustr(280,220,">",0x32b2,0xffff);
    4bce:	21 e3       	ldi	r18, 0x31	; 49
    4bd0:	31 e0       	ldi	r19, 0x01	; 1
    4bd2:	88 e1       	ldi	r24, 0x18	; 24
    4bd4:	91 e0       	ldi	r25, 0x01	; 1
    4bd6:	6c ed       	ldi	r22, 0xDC	; 220
    4bd8:	70 e0       	ldi	r23, 0x00	; 0
    4bda:	a9 01       	movw	r20, r18
    4bdc:	22 eb       	ldi	r18, 0xB2	; 178
    4bde:	32 e3       	ldi	r19, 0x32	; 50
    4be0:	0f ef       	ldi	r16, 0xFF	; 255
    4be2:	1f ef       	ldi	r17, 0xFF	; 255
    4be4:	0e 94 4c 1b 	call	0x3698	; 0x3698 <showzifustr>
	showzifustr(355,198,"ON",0x8410,0x012C);
    4be8:	23 e3       	ldi	r18, 0x33	; 51
    4bea:	31 e0       	ldi	r19, 0x01	; 1
    4bec:	83 e6       	ldi	r24, 0x63	; 99
    4bee:	91 e0       	ldi	r25, 0x01	; 1
    4bf0:	66 ec       	ldi	r22, 0xC6	; 198
    4bf2:	70 e0       	ldi	r23, 0x00	; 0
    4bf4:	a9 01       	movw	r20, r18
    4bf6:	20 e1       	ldi	r18, 0x10	; 16
    4bf8:	34 e8       	ldi	r19, 0x84	; 132
    4bfa:	0c e2       	ldi	r16, 0x2C	; 44
    4bfc:	11 e0       	ldi	r17, 0x01	; 1
    4bfe:	0e 94 4c 1b 	call	0x3698	; 0x3698 <showzifustr>
	showzifustr(410,198,"OFF",0xffff,0x012C);
    4c02:	26 e3       	ldi	r18, 0x36	; 54
    4c04:	31 e0       	ldi	r19, 0x01	; 1
    4c06:	8a e9       	ldi	r24, 0x9A	; 154
    4c08:	91 e0       	ldi	r25, 0x01	; 1
    4c0a:	66 ec       	ldi	r22, 0xC6	; 198
    4c0c:	70 e0       	ldi	r23, 0x00	; 0
    4c0e:	a9 01       	movw	r20, r18
    4c10:	2f ef       	ldi	r18, 0xFF	; 255
    4c12:	3f ef       	ldi	r19, 0xFF	; 255
    4c14:	0c e2       	ldi	r16, 0x2C	; 44
    4c16:	11 e0       	ldi	r17, 0x01	; 1
    4c18:	0e 94 4c 1b 	call	0x3698	; 0x3698 <showzifustr>
//	showlogostr(340,198,"01234",0xffff,0x012C);
}
    4c1c:	26 96       	adiw	r28, 0x06	; 6
    4c1e:	0f b6       	in	r0, 0x3f	; 63
    4c20:	f8 94       	cli
    4c22:	de bf       	out	0x3e, r29	; 62
    4c24:	0f be       	out	0x3f, r0	; 63
    4c26:	cd bf       	out	0x3d, r28	; 61
    4c28:	cf 91       	pop	r28
    4c2a:	df 91       	pop	r29
    4c2c:	1f 91       	pop	r17
    4c2e:	0f 91       	pop	r16
    4c30:	08 95       	ret

00004c32 <uart0_init>:
unsigned char Back_bpid[53]={0x55,0x66,1,0,1,0,0,1,0,0x61,0x26,0,0,0,0,0,0,0,0,0,0,0,0,0,0,0,0,0,0,0,0,0,0,0,0,0,0,0,0,0,0,0,0,0,0,0,0,0,0,0,0,0x66,0x55};
unsigned char Back_eror[53]={0x55,0x66,1,0,1,0,0,1,0,0xaa,0x26,0xaa,0xaa,0xaa,0xaa,0xaa,0xaa,0xaa,0xaa,0xaa,0xaa,0xaa,0xaa,0xaa,0xaa,0xaa,0xaa,0xaa,0xaa,0xaa,0xaa,0xaa,0xaa,0xaa,0xaa,0xaa,0xaa,0xaa,0xaa,0xaa,0xaa,0xaa,0xaa,0xaa,0xaa,0xaa,0xaa,0xaa,0xaa,0,202,0x66,0x55};
unsigned char buffercnt0=0;
int kflag0=0;
void uart0_init(void)
{
    4c32:	df 93       	push	r29
    4c34:	cf 93       	push	r28
    4c36:	cd b7       	in	r28, 0x3d	; 61
    4c38:	de b7       	in	r29, 0x3e	; 62
	UCSR0B = 0x00; //disable while setting baud rate
    4c3a:	8a e2       	ldi	r24, 0x2A	; 42
    4c3c:	90 e0       	ldi	r25, 0x00	; 0
    4c3e:	fc 01       	movw	r30, r24
    4c40:	10 82       	st	Z, r1
	UCSR0A = 0x00;
    4c42:	8b e2       	ldi	r24, 0x2B	; 43
    4c44:	90 e0       	ldi	r25, 0x00	; 0
    4c46:	fc 01       	movw	r30, r24
    4c48:	10 82       	st	Z, r1
	UCSR0C = 0x36;
    4c4a:	85 e9       	ldi	r24, 0x95	; 149
    4c4c:	90 e0       	ldi	r25, 0x00	; 0
    4c4e:	26 e3       	ldi	r18, 0x36	; 54
    4c50:	fc 01       	movw	r30, r24
    4c52:	20 83       	st	Z, r18
	UBRR0L = 0x67; //set baud rate lo
    4c54:	89 e2       	ldi	r24, 0x29	; 41
    4c56:	90 e0       	ldi	r25, 0x00	; 0
    4c58:	27 e6       	ldi	r18, 0x67	; 103
    4c5a:	fc 01       	movw	r30, r24
    4c5c:	20 83       	st	Z, r18
	UBRR0H = 0x00; //set baud rate hi
    4c5e:	80 e9       	ldi	r24, 0x90	; 144
    4c60:	90 e0       	ldi	r25, 0x00	; 0
    4c62:	fc 01       	movw	r30, r24
    4c64:	10 82       	st	Z, r1
	UCSR0B = 0x98;
    4c66:	8a e2       	ldi	r24, 0x2A	; 42
    4c68:	90 e0       	ldi	r25, 0x00	; 0
    4c6a:	28 e9       	ldi	r18, 0x98	; 152
    4c6c:	fc 01       	movw	r30, r24
    4c6e:	20 83       	st	Z, r18
}
    4c70:	cf 91       	pop	r28
    4c72:	df 91       	pop	r29
    4c74:	08 95       	ret

00004c76 <__vector_18>:


SIGNAL(SIG_UART0_RECV)
{
    4c76:	1f 92       	push	r1
    4c78:	0f 92       	push	r0
    4c7a:	0f b6       	in	r0, 0x3f	; 63
    4c7c:	0f 92       	push	r0
    4c7e:	00 90 5b 00 	lds	r0, 0x005B
    4c82:	0f 92       	push	r0
    4c84:	11 24       	eor	r1, r1
    4c86:	2f 93       	push	r18
    4c88:	3f 93       	push	r19
    4c8a:	4f 93       	push	r20
    4c8c:	5f 93       	push	r21
    4c8e:	6f 93       	push	r22
    4c90:	7f 93       	push	r23
    4c92:	8f 93       	push	r24
    4c94:	9f 93       	push	r25
    4c96:	af 93       	push	r26
    4c98:	bf 93       	push	r27
    4c9a:	ef 93       	push	r30
    4c9c:	ff 93       	push	r31
    4c9e:	df 93       	push	r29
    4ca0:	cf 93       	push	r28
    4ca2:	cd b7       	in	r28, 0x3d	; 61
    4ca4:	de b7       	in	r29, 0x3e	; 62
    Receive_buffer0[buffercnt0]=UDR0-0x33;
    4ca6:	80 91 5e 03 	lds	r24, 0x035E
    4caa:	88 2f       	mov	r24, r24
    4cac:	90 e0       	ldi	r25, 0x00	; 0
    4cae:	2c e2       	ldi	r18, 0x2C	; 44
    4cb0:	30 e0       	ldi	r19, 0x00	; 0
    4cb2:	f9 01       	movw	r30, r18
    4cb4:	20 81       	ld	r18, Z
    4cb6:	23 53       	subi	r18, 0x33	; 51
    4cb8:	86 5d       	subi	r24, 0xD6	; 214
    4cba:	9c 4f       	sbci	r25, 0xFC	; 252
    4cbc:	fc 01       	movw	r30, r24
    4cbe:	20 83       	st	Z, r18
    if(Receive_buffer0[0]==0x66)
    4cc0:	80 91 2a 03 	lds	r24, 0x032A
    4cc4:	86 36       	cpi	r24, 0x66	; 102
    4cc6:	09 f0       	breq	.+2      	; 0x4cca <__vector_18+0x54>
    4cc8:	76 c0       	rjmp	.+236    	; 0x4db6 <__vector_18+0x140>
    {
		
        buffercnt0++;
    4cca:	80 91 5e 03 	lds	r24, 0x035E
    4cce:	8f 5f       	subi	r24, 0xFF	; 255
    4cd0:	80 93 5e 03 	sts	0x035E, r24
		switch(buffercnt0)
    4cd4:	80 91 5e 03 	lds	r24, 0x035E
    4cd8:	88 2f       	mov	r24, r24
    4cda:	90 e0       	ldi	r25, 0x00	; 0
    4cdc:	84 30       	cpi	r24, 0x04	; 4
    4cde:	91 05       	cpc	r25, r1
    4ce0:	39 f1       	breq	.+78     	; 0x4d30 <__vector_18+0xba>
    4ce2:	85 30       	cpi	r24, 0x05	; 5
    4ce4:	91 05       	cpc	r25, r1
    4ce6:	3c f4       	brge	.+14     	; 0x4cf6 <__vector_18+0x80>
    4ce8:	82 30       	cpi	r24, 0x02	; 2
    4cea:	91 05       	cpc	r25, r1
    4cec:	89 f0       	breq	.+34     	; 0x4d10 <__vector_18+0x9a>
    4cee:	83 30       	cpi	r24, 0x03	; 3
    4cf0:	91 05       	cpc	r25, r1
    4cf2:	b4 f4       	brge	.+44     	; 0x4d20 <__vector_18+0xaa>
		{
			case 1:break;
    4cf4:	60 c0       	rjmp	.+192    	; 0x4db6 <__vector_18+0x140>
    Receive_buffer0[buffercnt0]=UDR0-0x33;
    if(Receive_buffer0[0]==0x66)
    {
		
        buffercnt0++;
		switch(buffercnt0)
    4cf6:	86 30       	cpi	r24, 0x06	; 6
    4cf8:	91 05       	cpc	r25, r1
    4cfa:	41 f1       	breq	.+80     	; 0x4d4c <__vector_18+0xd6>
    4cfc:	86 30       	cpi	r24, 0x06	; 6
    4cfe:	91 05       	cpc	r25, r1
    4d00:	f4 f0       	brlt	.+60     	; 0x4d3e <__vector_18+0xc8>
    4d02:	87 30       	cpi	r24, 0x07	; 7
    4d04:	91 05       	cpc	r25, r1
    4d06:	49 f1       	breq	.+82     	; 0x4d5a <__vector_18+0xe4>
    4d08:	84 33       	cpi	r24, 0x34	; 52
    4d0a:	91 05       	cpc	r25, r1
    4d0c:	c1 f1       	breq	.+112    	; 0x4d7e <__vector_18+0x108>
    4d0e:	53 c0       	rjmp	.+166    	; 0x4db6 <__vector_18+0x140>
		{
			case 1:break;
			case 2:if(Receive_buffer0[1]!=1)buffercnt0=0;break;
    4d10:	80 91 2b 03 	lds	r24, 0x032B
    4d14:	81 30       	cpi	r24, 0x01	; 1
    4d16:	09 f4       	brne	.+2      	; 0x4d1a <__vector_18+0xa4>
    4d18:	45 c0       	rjmp	.+138    	; 0x4da4 <__vector_18+0x12e>
    4d1a:	10 92 5e 03 	sts	0x035E, r1
    4d1e:	4b c0       	rjmp	.+150    	; 0x4db6 <__vector_18+0x140>
			case 3:if(Receive_buffer0[2]!=0)buffercnt0=0;break;
    4d20:	80 91 2c 03 	lds	r24, 0x032C
    4d24:	88 23       	and	r24, r24
    4d26:	09 f4       	brne	.+2      	; 0x4d2a <__vector_18+0xb4>
    4d28:	3f c0       	rjmp	.+126    	; 0x4da8 <__vector_18+0x132>
    4d2a:	10 92 5e 03 	sts	0x035E, r1
    4d2e:	43 c0       	rjmp	.+134    	; 0x4db6 <__vector_18+0x140>
			case 4:if(Receive_buffer0[3]!=1)buffercnt0=0;break;
    4d30:	80 91 2d 03 	lds	r24, 0x032D
    4d34:	81 30       	cpi	r24, 0x01	; 1
    4d36:	d1 f1       	breq	.+116    	; 0x4dac <__vector_18+0x136>
    4d38:	10 92 5e 03 	sts	0x035E, r1
    4d3c:	3c c0       	rjmp	.+120    	; 0x4db6 <__vector_18+0x140>
			case 5:if(Receive_buffer0[4]!=0)buffercnt0=0;break;
    4d3e:	80 91 2e 03 	lds	r24, 0x032E
    4d42:	88 23       	and	r24, r24
    4d44:	a9 f1       	breq	.+106    	; 0x4db0 <__vector_18+0x13a>
    4d46:	10 92 5e 03 	sts	0x035E, r1
    4d4a:	35 c0       	rjmp	.+106    	; 0x4db6 <__vector_18+0x140>
			case 6:if(Receive_buffer0[5]!=0)buffercnt0=0;break;
    4d4c:	80 91 2f 03 	lds	r24, 0x032F
    4d50:	88 23       	and	r24, r24
    4d52:	81 f1       	breq	.+96     	; 0x4db4 <__vector_18+0x13e>
    4d54:	10 92 5e 03 	sts	0x035E, r1
    4d58:	2e c0       	rjmp	.+92     	; 0x4db6 <__vector_18+0x140>
			case 7:if(Receive_buffer0[6]!=1)buffercnt0=0;else TCNT0 = 0x64;TCCR0 = 0x07; break;
    4d5a:	80 91 30 03 	lds	r24, 0x0330
    4d5e:	81 30       	cpi	r24, 0x01	; 1
    4d60:	19 f0       	breq	.+6      	; 0x4d68 <__vector_18+0xf2>
    4d62:	10 92 5e 03 	sts	0x035E, r1
    4d66:	05 c0       	rjmp	.+10     	; 0x4d72 <__vector_18+0xfc>
    4d68:	82 e5       	ldi	r24, 0x52	; 82
    4d6a:	90 e0       	ldi	r25, 0x00	; 0
    4d6c:	24 e6       	ldi	r18, 0x64	; 100
    4d6e:	fc 01       	movw	r30, r24
    4d70:	20 83       	st	Z, r18
    4d72:	83 e5       	ldi	r24, 0x53	; 83
    4d74:	90 e0       	ldi	r25, 0x00	; 0
    4d76:	27 e0       	ldi	r18, 0x07	; 7
    4d78:	fc 01       	movw	r30, r24
    4d7a:	20 83       	st	Z, r18
    4d7c:	1c c0       	rjmp	.+56     	; 0x4db6 <__vector_18+0x140>
			case 52:Reciver_process0();TCCR1B = 0x05;TCNT0 = 0;buffercnt0=0;kflag0=0;
    4d7e:	0e 94 42 28 	call	0x5084	; 0x5084 <Reciver_process0>
    4d82:	8e e4       	ldi	r24, 0x4E	; 78
    4d84:	90 e0       	ldi	r25, 0x00	; 0
    4d86:	25 e0       	ldi	r18, 0x05	; 5
    4d88:	fc 01       	movw	r30, r24
    4d8a:	20 83       	st	Z, r18
    4d8c:	82 e5       	ldi	r24, 0x52	; 82
    4d8e:	90 e0       	ldi	r25, 0x00	; 0
    4d90:	fc 01       	movw	r30, r24
    4d92:	10 82       	st	Z, r1
    4d94:	10 92 5e 03 	sts	0x035E, r1
    4d98:	10 92 60 03 	sts	0x0360, r1
    4d9c:	10 92 5f 03 	sts	0x035F, r1
			break;
    4da0:	00 00       	nop
    4da2:	09 c0       	rjmp	.+18     	; 0x4db6 <__vector_18+0x140>
		
        buffercnt0++;
		switch(buffercnt0)
		{
			case 1:break;
			case 2:if(Receive_buffer0[1]!=1)buffercnt0=0;break;
    4da4:	00 00       	nop
    4da6:	07 c0       	rjmp	.+14     	; 0x4db6 <__vector_18+0x140>
			case 3:if(Receive_buffer0[2]!=0)buffercnt0=0;break;
    4da8:	00 00       	nop
    4daa:	05 c0       	rjmp	.+10     	; 0x4db6 <__vector_18+0x140>
			case 4:if(Receive_buffer0[3]!=1)buffercnt0=0;break;
    4dac:	00 00       	nop
    4dae:	03 c0       	rjmp	.+6      	; 0x4db6 <__vector_18+0x140>
			case 5:if(Receive_buffer0[4]!=0)buffercnt0=0;break;
    4db0:	00 00       	nop
    4db2:	01 c0       	rjmp	.+2      	; 0x4db6 <__vector_18+0x140>
			case 6:if(Receive_buffer0[5]!=0)buffercnt0=0;break;
    4db4:	00 00       	nop
			case 7:if(Receive_buffer0[6]!=1)buffercnt0=0;else TCNT0 = 0x64;TCCR0 = 0x07; break;
			case 52:Reciver_process0();TCCR1B = 0x05;TCNT0 = 0;buffercnt0=0;kflag0=0;
			break;
		}
    }
}
    4db6:	cf 91       	pop	r28
    4db8:	df 91       	pop	r29
    4dba:	ff 91       	pop	r31
    4dbc:	ef 91       	pop	r30
    4dbe:	bf 91       	pop	r27
    4dc0:	af 91       	pop	r26
    4dc2:	9f 91       	pop	r25
    4dc4:	8f 91       	pop	r24
    4dc6:	7f 91       	pop	r23
    4dc8:	6f 91       	pop	r22
    4dca:	5f 91       	pop	r21
    4dcc:	4f 91       	pop	r20
    4dce:	3f 91       	pop	r19
    4dd0:	2f 91       	pop	r18
    4dd2:	0f 90       	pop	r0
    4dd4:	00 92 5b 00 	sts	0x005B, r0
    4dd8:	0f 90       	pop	r0
    4dda:	0f be       	out	0x3f, r0	; 63
    4ddc:	0f 90       	pop	r0
    4dde:	1f 90       	pop	r1
    4de0:	18 95       	reti

00004de2 <uart0_Tx>:

void uart0_Tx(unsigned char data)
{
    4de2:	df 93       	push	r29
    4de4:	cf 93       	push	r28
    4de6:	0f 92       	push	r0
    4de8:	cd b7       	in	r28, 0x3d	; 61
    4dea:	de b7       	in	r29, 0x3e	; 62
    4dec:	89 83       	std	Y+1, r24	; 0x01
	while ( !( UCSR0A & (1<<UDRE0)) );
    4dee:	00 00       	nop
    4df0:	8b e2       	ldi	r24, 0x2B	; 43
    4df2:	90 e0       	ldi	r25, 0x00	; 0
    4df4:	fc 01       	movw	r30, r24
    4df6:	80 81       	ld	r24, Z
    4df8:	88 2f       	mov	r24, r24
    4dfa:	90 e0       	ldi	r25, 0x00	; 0
    4dfc:	80 72       	andi	r24, 0x20	; 32
    4dfe:	90 70       	andi	r25, 0x00	; 0
    4e00:	00 97       	sbiw	r24, 0x00	; 0
    4e02:	b1 f3       	breq	.-20     	; 0x4df0 <uart0_Tx+0xe>
	UDR0 = data;
    4e04:	8c e2       	ldi	r24, 0x2C	; 44
    4e06:	90 e0       	ldi	r25, 0x00	; 0
    4e08:	29 81       	ldd	r18, Y+1	; 0x01
    4e0a:	fc 01       	movw	r30, r24
    4e0c:	20 83       	st	Z, r18
	while ( !( UCSR0A & (1<<TXC0)) );
    4e0e:	00 00       	nop
    4e10:	8b e2       	ldi	r24, 0x2B	; 43
    4e12:	90 e0       	ldi	r25, 0x00	; 0
    4e14:	fc 01       	movw	r30, r24
    4e16:	80 81       	ld	r24, Z
    4e18:	88 2f       	mov	r24, r24
    4e1a:	90 e0       	ldi	r25, 0x00	; 0
    4e1c:	80 74       	andi	r24, 0x40	; 64
    4e1e:	90 70       	andi	r25, 0x00	; 0
    4e20:	00 97       	sbiw	r24, 0x00	; 0
    4e22:	b1 f3       	breq	.-20     	; 0x4e10 <uart0_Tx+0x2e>
	del(1);
    4e24:	81 e0       	ldi	r24, 0x01	; 1
    4e26:	90 e0       	ldi	r25, 0x00	; 0
    4e28:	0e 94 92 0d 	call	0x1b24	; 0x1b24 <del>
}
    4e2c:	0f 90       	pop	r0
    4e2e:	cf 91       	pop	r28
    4e30:	df 91       	pop	r29
    4e32:	08 95       	ret

00004e34 <send_data0>:

void send_data0(unsigned typeA)
{
    4e34:	df 93       	push	r29
    4e36:	cf 93       	push	r28
    4e38:	00 d0       	rcall	.+0      	; 0x4e3a <send_data0+0x6>
    4e3a:	00 d0       	rcall	.+0      	; 0x4e3c <send_data0+0x8>
    4e3c:	cd b7       	in	r28, 0x3d	; 61
    4e3e:	de b7       	in	r29, 0x3e	; 62
    4e40:	9c 83       	std	Y+4, r25	; 0x04
    4e42:	8b 83       	std	Y+3, r24	; 0x03
    unsigned int i=0;
    4e44:	1a 82       	std	Y+2, r1	; 0x02
    4e46:	19 82       	std	Y+1, r1	; 0x01
	asm("cli");
    4e48:	f8 94       	cli
	switch(typeA)
    4e4a:	8b 81       	ldd	r24, Y+3	; 0x03
    4e4c:	9c 81       	ldd	r25, Y+4	; 0x04
    4e4e:	82 30       	cpi	r24, 0x02	; 2
    4e50:	91 05       	cpc	r25, r1
    4e52:	09 f4       	brne	.+2      	; 0x4e56 <send_data0+0x22>
    4e54:	68 c0       	rjmp	.+208    	; 0x4f26 <send_data0+0xf2>
    4e56:	83 30       	cpi	r24, 0x03	; 3
    4e58:	91 05       	cpc	r25, r1
    4e5a:	30 f4       	brcc	.+12     	; 0x4e68 <send_data0+0x34>
    4e5c:	00 97       	sbiw	r24, 0x00	; 0
    4e5e:	89 f0       	breq	.+34     	; 0x4e82 <send_data0+0x4e>
    4e60:	81 30       	cpi	r24, 0x01	; 1
    4e62:	91 05       	cpc	r25, r1
    4e64:	b9 f1       	breq	.+110    	; 0x4ed4 <send_data0+0xa0>
		PORTE&=0xFB;
		for(i=0;i<53;i++)uart0_Tx(Back_eror[i]+0x33);
		PORTE|=0x04;
	
		default:
		break;
    4e66:	02 c1       	rjmp	.+516    	; 0x506c <send_data0+0x238>

void send_data0(unsigned typeA)
{
    unsigned int i=0;
	asm("cli");
	switch(typeA)
    4e68:	84 30       	cpi	r24, 0x04	; 4
    4e6a:	91 05       	cpc	r25, r1
    4e6c:	09 f4       	brne	.+2      	; 0x4e70 <send_data0+0x3c>
    4e6e:	ad c0       	rjmp	.+346    	; 0x4fca <send_data0+0x196>
    4e70:	84 30       	cpi	r24, 0x04	; 4
    4e72:	91 05       	cpc	r25, r1
    4e74:	08 f4       	brcc	.+2      	; 0x4e78 <send_data0+0x44>
    4e76:	80 c0       	rjmp	.+256    	; 0x4f78 <send_data0+0x144>
    4e78:	85 30       	cpi	r24, 0x05	; 5
    4e7a:	91 05       	cpc	r25, r1
    4e7c:	09 f4       	brne	.+2      	; 0x4e80 <send_data0+0x4c>
    4e7e:	cd c0       	rjmp	.+410    	; 0x501a <send_data0+0x1e6>
		PORTE&=0xFB;
		for(i=0;i<53;i++)uart0_Tx(Back_eror[i]+0x33);
		PORTE|=0x04;
	
		default:
		break;
    4e80:	f5 c0       	rjmp	.+490    	; 0x506c <send_data0+0x238>
    unsigned int i=0;
	asm("cli");
	switch(typeA)
	{
		case 0:
		PORTE&=0xFB;
    4e82:	83 e2       	ldi	r24, 0x23	; 35
    4e84:	90 e0       	ldi	r25, 0x00	; 0
    4e86:	23 e2       	ldi	r18, 0x23	; 35
    4e88:	30 e0       	ldi	r19, 0x00	; 0
    4e8a:	f9 01       	movw	r30, r18
    4e8c:	20 81       	ld	r18, Z
    4e8e:	2b 7f       	andi	r18, 0xFB	; 251
    4e90:	fc 01       	movw	r30, r24
    4e92:	20 83       	st	Z, r18
		for(i=0;i<53;i++)uart0_Tx(Send_data[i]+0x33);
    4e94:	1a 82       	std	Y+2, r1	; 0x02
    4e96:	19 82       	std	Y+1, r1	; 0x01
    4e98:	0e c0       	rjmp	.+28     	; 0x4eb6 <send_data0+0x82>
    4e9a:	89 81       	ldd	r24, Y+1	; 0x01
    4e9c:	9a 81       	ldd	r25, Y+2	; 0x02
    4e9e:	86 5c       	subi	r24, 0xC6	; 198
    4ea0:	9e 4f       	sbci	r25, 0xFE	; 254
    4ea2:	fc 01       	movw	r30, r24
    4ea4:	80 81       	ld	r24, Z
    4ea6:	8d 5c       	subi	r24, 0xCD	; 205
    4ea8:	0e 94 f1 26 	call	0x4de2	; 0x4de2 <uart0_Tx>
    4eac:	89 81       	ldd	r24, Y+1	; 0x01
    4eae:	9a 81       	ldd	r25, Y+2	; 0x02
    4eb0:	01 96       	adiw	r24, 0x01	; 1
    4eb2:	9a 83       	std	Y+2, r25	; 0x02
    4eb4:	89 83       	std	Y+1, r24	; 0x01
    4eb6:	89 81       	ldd	r24, Y+1	; 0x01
    4eb8:	9a 81       	ldd	r25, Y+2	; 0x02
    4eba:	85 33       	cpi	r24, 0x35	; 53
    4ebc:	91 05       	cpc	r25, r1
    4ebe:	68 f3       	brcs	.-38     	; 0x4e9a <send_data0+0x66>
		PORTE|=0x04;
    4ec0:	83 e2       	ldi	r24, 0x23	; 35
    4ec2:	90 e0       	ldi	r25, 0x00	; 0
    4ec4:	23 e2       	ldi	r18, 0x23	; 35
    4ec6:	30 e0       	ldi	r19, 0x00	; 0
    4ec8:	f9 01       	movw	r30, r18
    4eca:	20 81       	ld	r18, Z
    4ecc:	24 60       	ori	r18, 0x04	; 4
    4ece:	fc 01       	movw	r30, r24
    4ed0:	20 83       	st	Z, r18
		break;
    4ed2:	cc c0       	rjmp	.+408    	; 0x506c <send_data0+0x238>
		
		case 1:
		PORTE&=0xFB;
    4ed4:	83 e2       	ldi	r24, 0x23	; 35
    4ed6:	90 e0       	ldi	r25, 0x00	; 0
    4ed8:	23 e2       	ldi	r18, 0x23	; 35
    4eda:	30 e0       	ldi	r19, 0x00	; 0
    4edc:	f9 01       	movw	r30, r18
    4ede:	20 81       	ld	r18, Z
    4ee0:	2b 7f       	andi	r18, 0xFB	; 251
    4ee2:	fc 01       	movw	r30, r24
    4ee4:	20 83       	st	Z, r18
		for(i=0;i<53;i++)uart0_Tx(Back_seto[i]+0x33);
    4ee6:	1a 82       	std	Y+2, r1	; 0x02
    4ee8:	19 82       	std	Y+1, r1	; 0x01
    4eea:	0e c0       	rjmp	.+28     	; 0x4f08 <send_data0+0xd4>
    4eec:	89 81       	ldd	r24, Y+1	; 0x01
    4eee:	9a 81       	ldd	r25, Y+2	; 0x02
    4ef0:	81 59       	subi	r24, 0x91	; 145
    4ef2:	9e 4f       	sbci	r25, 0xFE	; 254
    4ef4:	fc 01       	movw	r30, r24
    4ef6:	80 81       	ld	r24, Z
    4ef8:	8d 5c       	subi	r24, 0xCD	; 205
    4efa:	0e 94 f1 26 	call	0x4de2	; 0x4de2 <uart0_Tx>
    4efe:	89 81       	ldd	r24, Y+1	; 0x01
    4f00:	9a 81       	ldd	r25, Y+2	; 0x02
    4f02:	01 96       	adiw	r24, 0x01	; 1
    4f04:	9a 83       	std	Y+2, r25	; 0x02
    4f06:	89 83       	std	Y+1, r24	; 0x01
    4f08:	89 81       	ldd	r24, Y+1	; 0x01
    4f0a:	9a 81       	ldd	r25, Y+2	; 0x02
    4f0c:	85 33       	cpi	r24, 0x35	; 53
    4f0e:	91 05       	cpc	r25, r1
    4f10:	68 f3       	brcs	.-38     	; 0x4eec <send_data0+0xb8>
		PORTE|=0x04;
    4f12:	83 e2       	ldi	r24, 0x23	; 35
    4f14:	90 e0       	ldi	r25, 0x00	; 0
    4f16:	23 e2       	ldi	r18, 0x23	; 35
    4f18:	30 e0       	ldi	r19, 0x00	; 0
    4f1a:	f9 01       	movw	r30, r18
    4f1c:	20 81       	ld	r18, Z
    4f1e:	24 60       	ori	r18, 0x04	; 4
    4f20:	fc 01       	movw	r30, r24
    4f22:	20 83       	st	Z, r18
		break;
    4f24:	a3 c0       	rjmp	.+326    	; 0x506c <send_data0+0x238>
		
		case 2:
		PORTE&=0xFB;
    4f26:	83 e2       	ldi	r24, 0x23	; 35
    4f28:	90 e0       	ldi	r25, 0x00	; 0
    4f2a:	23 e2       	ldi	r18, 0x23	; 35
    4f2c:	30 e0       	ldi	r19, 0x00	; 0
    4f2e:	f9 01       	movw	r30, r18
    4f30:	20 81       	ld	r18, Z
    4f32:	2b 7f       	andi	r18, 0xFB	; 251
    4f34:	fc 01       	movw	r30, r24
    4f36:	20 83       	st	Z, r18
		for(i=0;i<53;i++)uart0_Tx(Back_sett[i]+0x33);
    4f38:	1a 82       	std	Y+2, r1	; 0x02
    4f3a:	19 82       	std	Y+1, r1	; 0x01
    4f3c:	0e c0       	rjmp	.+28     	; 0x4f5a <send_data0+0x126>
    4f3e:	89 81       	ldd	r24, Y+1	; 0x01
    4f40:	9a 81       	ldd	r25, Y+2	; 0x02
    4f42:	8c 55       	subi	r24, 0x5C	; 92
    4f44:	9e 4f       	sbci	r25, 0xFE	; 254
    4f46:	fc 01       	movw	r30, r24
    4f48:	80 81       	ld	r24, Z
    4f4a:	8d 5c       	subi	r24, 0xCD	; 205
    4f4c:	0e 94 f1 26 	call	0x4de2	; 0x4de2 <uart0_Tx>
    4f50:	89 81       	ldd	r24, Y+1	; 0x01
    4f52:	9a 81       	ldd	r25, Y+2	; 0x02
    4f54:	01 96       	adiw	r24, 0x01	; 1
    4f56:	9a 83       	std	Y+2, r25	; 0x02
    4f58:	89 83       	std	Y+1, r24	; 0x01
    4f5a:	89 81       	ldd	r24, Y+1	; 0x01
    4f5c:	9a 81       	ldd	r25, Y+2	; 0x02
    4f5e:	85 33       	cpi	r24, 0x35	; 53
    4f60:	91 05       	cpc	r25, r1
    4f62:	68 f3       	brcs	.-38     	; 0x4f3e <send_data0+0x10a>
		PORTE|=0x04;
    4f64:	83 e2       	ldi	r24, 0x23	; 35
    4f66:	90 e0       	ldi	r25, 0x00	; 0
    4f68:	23 e2       	ldi	r18, 0x23	; 35
    4f6a:	30 e0       	ldi	r19, 0x00	; 0
    4f6c:	f9 01       	movw	r30, r18
    4f6e:	20 81       	ld	r18, Z
    4f70:	24 60       	ori	r18, 0x04	; 4
    4f72:	fc 01       	movw	r30, r24
    4f74:	20 83       	st	Z, r18
		break;
    4f76:	7a c0       	rjmp	.+244    	; 0x506c <send_data0+0x238>
	
		case 3:
		PORTE&=0xFB;
    4f78:	83 e2       	ldi	r24, 0x23	; 35
    4f7a:	90 e0       	ldi	r25, 0x00	; 0
    4f7c:	23 e2       	ldi	r18, 0x23	; 35
    4f7e:	30 e0       	ldi	r19, 0x00	; 0
    4f80:	f9 01       	movw	r30, r18
    4f82:	20 81       	ld	r18, Z
    4f84:	2b 7f       	andi	r18, 0xFB	; 251
    4f86:	fc 01       	movw	r30, r24
    4f88:	20 83       	st	Z, r18
		for(i=0;i<53;i++)uart0_Tx(Back_spid[i]+0x33);
    4f8a:	1a 82       	std	Y+2, r1	; 0x02
    4f8c:	19 82       	std	Y+1, r1	; 0x01
    4f8e:	0e c0       	rjmp	.+28     	; 0x4fac <send_data0+0x178>
    4f90:	89 81       	ldd	r24, Y+1	; 0x01
    4f92:	9a 81       	ldd	r25, Y+2	; 0x02
    4f94:	87 52       	subi	r24, 0x27	; 39
    4f96:	9e 4f       	sbci	r25, 0xFE	; 254
    4f98:	fc 01       	movw	r30, r24
    4f9a:	80 81       	ld	r24, Z
    4f9c:	8d 5c       	subi	r24, 0xCD	; 205
    4f9e:	0e 94 f1 26 	call	0x4de2	; 0x4de2 <uart0_Tx>
    4fa2:	89 81       	ldd	r24, Y+1	; 0x01
    4fa4:	9a 81       	ldd	r25, Y+2	; 0x02
    4fa6:	01 96       	adiw	r24, 0x01	; 1
    4fa8:	9a 83       	std	Y+2, r25	; 0x02
    4faa:	89 83       	std	Y+1, r24	; 0x01
    4fac:	89 81       	ldd	r24, Y+1	; 0x01
    4fae:	9a 81       	ldd	r25, Y+2	; 0x02
    4fb0:	85 33       	cpi	r24, 0x35	; 53
    4fb2:	91 05       	cpc	r25, r1
    4fb4:	68 f3       	brcs	.-38     	; 0x4f90 <send_data0+0x15c>
		PORTE|=0x04;
    4fb6:	83 e2       	ldi	r24, 0x23	; 35
    4fb8:	90 e0       	ldi	r25, 0x00	; 0
    4fba:	23 e2       	ldi	r18, 0x23	; 35
    4fbc:	30 e0       	ldi	r19, 0x00	; 0
    4fbe:	f9 01       	movw	r30, r18
    4fc0:	20 81       	ld	r18, Z
    4fc2:	24 60       	ori	r18, 0x04	; 4
    4fc4:	fc 01       	movw	r30, r24
    4fc6:	20 83       	st	Z, r18
		break;
    4fc8:	51 c0       	rjmp	.+162    	; 0x506c <send_data0+0x238>
	
		case 4:
		PORTE&=0xFB;
    4fca:	83 e2       	ldi	r24, 0x23	; 35
    4fcc:	90 e0       	ldi	r25, 0x00	; 0
    4fce:	23 e2       	ldi	r18, 0x23	; 35
    4fd0:	30 e0       	ldi	r19, 0x00	; 0
    4fd2:	f9 01       	movw	r30, r18
    4fd4:	20 81       	ld	r18, Z
    4fd6:	2b 7f       	andi	r18, 0xFB	; 251
    4fd8:	fc 01       	movw	r30, r24
    4fda:	20 83       	st	Z, r18
		for(i=0;i<53;i++)uart0_Tx(Back_bpid[i]+0x33);
    4fdc:	1a 82       	std	Y+2, r1	; 0x02
    4fde:	19 82       	std	Y+1, r1	; 0x01
    4fe0:	0e c0       	rjmp	.+28     	; 0x4ffe <send_data0+0x1ca>
    4fe2:	89 81       	ldd	r24, Y+1	; 0x01
    4fe4:	9a 81       	ldd	r25, Y+2	; 0x02
    4fe6:	82 5f       	subi	r24, 0xF2	; 242
    4fe8:	9d 4f       	sbci	r25, 0xFD	; 253
    4fea:	fc 01       	movw	r30, r24
    4fec:	80 81       	ld	r24, Z
    4fee:	8d 5c       	subi	r24, 0xCD	; 205
    4ff0:	0e 94 f1 26 	call	0x4de2	; 0x4de2 <uart0_Tx>
    4ff4:	89 81       	ldd	r24, Y+1	; 0x01
    4ff6:	9a 81       	ldd	r25, Y+2	; 0x02
    4ff8:	01 96       	adiw	r24, 0x01	; 1
    4ffa:	9a 83       	std	Y+2, r25	; 0x02
    4ffc:	89 83       	std	Y+1, r24	; 0x01
    4ffe:	89 81       	ldd	r24, Y+1	; 0x01
    5000:	9a 81       	ldd	r25, Y+2	; 0x02
    5002:	85 33       	cpi	r24, 0x35	; 53
    5004:	91 05       	cpc	r25, r1
    5006:	68 f3       	brcs	.-38     	; 0x4fe2 <send_data0+0x1ae>
		PORTE|=0x04;
    5008:	83 e2       	ldi	r24, 0x23	; 35
    500a:	90 e0       	ldi	r25, 0x00	; 0
    500c:	23 e2       	ldi	r18, 0x23	; 35
    500e:	30 e0       	ldi	r19, 0x00	; 0
    5010:	f9 01       	movw	r30, r18
    5012:	20 81       	ld	r18, Z
    5014:	24 60       	ori	r18, 0x04	; 4
    5016:	fc 01       	movw	r30, r24
    5018:	20 83       	st	Z, r18
	
		case 5:
		PORTE&=0xFB;
    501a:	83 e2       	ldi	r24, 0x23	; 35
    501c:	90 e0       	ldi	r25, 0x00	; 0
    501e:	23 e2       	ldi	r18, 0x23	; 35
    5020:	30 e0       	ldi	r19, 0x00	; 0
    5022:	f9 01       	movw	r30, r18
    5024:	20 81       	ld	r18, Z
    5026:	2b 7f       	andi	r18, 0xFB	; 251
    5028:	fc 01       	movw	r30, r24
    502a:	20 83       	st	Z, r18
		for(i=0;i<53;i++)uart0_Tx(Back_eror[i]+0x33);
    502c:	1a 82       	std	Y+2, r1	; 0x02
    502e:	19 82       	std	Y+1, r1	; 0x01
    5030:	0e c0       	rjmp	.+28     	; 0x504e <send_data0+0x21a>
    5032:	89 81       	ldd	r24, Y+1	; 0x01
    5034:	9a 81       	ldd	r25, Y+2	; 0x02
    5036:	8d 5b       	subi	r24, 0xBD	; 189
    5038:	9d 4f       	sbci	r25, 0xFD	; 253
    503a:	fc 01       	movw	r30, r24
    503c:	80 81       	ld	r24, Z
    503e:	8d 5c       	subi	r24, 0xCD	; 205
    5040:	0e 94 f1 26 	call	0x4de2	; 0x4de2 <uart0_Tx>
    5044:	89 81       	ldd	r24, Y+1	; 0x01
    5046:	9a 81       	ldd	r25, Y+2	; 0x02
    5048:	01 96       	adiw	r24, 0x01	; 1
    504a:	9a 83       	std	Y+2, r25	; 0x02
    504c:	89 83       	std	Y+1, r24	; 0x01
    504e:	89 81       	ldd	r24, Y+1	; 0x01
    5050:	9a 81       	ldd	r25, Y+2	; 0x02
    5052:	85 33       	cpi	r24, 0x35	; 53
    5054:	91 05       	cpc	r25, r1
    5056:	68 f3       	brcs	.-38     	; 0x5032 <send_data0+0x1fe>
		PORTE|=0x04;
    5058:	83 e2       	ldi	r24, 0x23	; 35
    505a:	90 e0       	ldi	r25, 0x00	; 0
    505c:	23 e2       	ldi	r18, 0x23	; 35
    505e:	30 e0       	ldi	r19, 0x00	; 0
    5060:	f9 01       	movw	r30, r18
    5062:	20 81       	ld	r18, Z
    5064:	24 60       	ori	r18, 0x04	; 4
    5066:	fc 01       	movw	r30, r24
    5068:	20 83       	st	Z, r18
	
		default:
		break;
    506a:	00 00       	nop
	}
	asm("sei");
    506c:	78 94       	sei
	delayms(300);
    506e:	8c e2       	ldi	r24, 0x2C	; 44
    5070:	91 e0       	ldi	r25, 0x01	; 1
    5072:	0e 94 f1 0d 	call	0x1be2	; 0x1be2 <delayms>
}
    5076:	0f 90       	pop	r0
    5078:	0f 90       	pop	r0
    507a:	0f 90       	pop	r0
    507c:	0f 90       	pop	r0
    507e:	cf 91       	pop	r28
    5080:	df 91       	pop	r29
    5082:	08 95       	ret

00005084 <Reciver_process0>:

void Reciver_process0(void)
{
    5084:	4f 92       	push	r4
    5086:	5f 92       	push	r5
    5088:	6f 92       	push	r6
    508a:	7f 92       	push	r7
    508c:	8f 92       	push	r8
    508e:	9f 92       	push	r9
    5090:	af 92       	push	r10
    5092:	bf 92       	push	r11
    5094:	cf 92       	push	r12
    5096:	df 92       	push	r13
    5098:	ef 92       	push	r14
    509a:	ff 92       	push	r15
    509c:	0f 93       	push	r16
    509e:	1f 93       	push	r17
    50a0:	df 93       	push	r29
    50a2:	cf 93       	push	r28
    50a4:	00 d0       	rcall	.+0      	; 0x50a6 <Reciver_process0+0x22>
    50a6:	cd b7       	in	r28, 0x3d	; 61
    50a8:	de b7       	in	r29, 0x3e	; 62
      switch(Receive_buffer0[8])
    50aa:	80 91 32 03 	lds	r24, 0x0332
    50ae:	88 2f       	mov	r24, r24
    50b0:	90 e0       	ldi	r25, 0x00	; 0
    50b2:	84 34       	cpi	r24, 0x44	; 68
    50b4:	91 05       	cpc	r25, r1
    50b6:	b9 f0       	breq	.+46     	; 0x50e6 <Reciver_process0+0x62>
    50b8:	85 34       	cpi	r24, 0x45	; 69
    50ba:	91 05       	cpc	r25, r1
    50bc:	24 f4       	brge	.+8      	; 0x50c6 <Reciver_process0+0x42>
    50be:	81 34       	cpi	r24, 0x41	; 65
    50c0:	91 05       	cpc	r25, r1
    50c2:	51 f0       	breq	.+20     	; 0x50d8 <Reciver_process0+0x54>
    50c4:	b7 c0       	rjmp	.+366    	; 0x5234 <Reciver_process0+0x1b0>
    50c6:	81 35       	cpi	r24, 0x51	; 81
    50c8:	91 05       	cpc	r25, r1
    50ca:	09 f4       	brne	.+2      	; 0x50ce <Reciver_process0+0x4a>
    50cc:	5c c0       	rjmp	.+184    	; 0x5186 <Reciver_process0+0x102>
    50ce:	84 35       	cpi	r24, 0x54	; 84
    50d0:	91 05       	cpc	r25, r1
    50d2:	09 f4       	brne	.+2      	; 0x50d6 <Reciver_process0+0x52>
    50d4:	a8 c0       	rjmp	.+336    	; 0x5226 <Reciver_process0+0x1a2>
    50d6:	ae c0       	rjmp	.+348    	; 0x5234 <Reciver_process0+0x1b0>
     {
         case 0x41:usarS();send_data0(0);break;
    50d8:	0e 94 db 0e 	call	0x1db6	; 0x1db6 <usarS>
    50dc:	80 e0       	ldi	r24, 0x00	; 0
    50de:	90 e0       	ldi	r25, 0x00	; 0
    50e0:	0e 94 1a 27 	call	0x4e34	; 0x4e34 <send_data0>
    50e4:	ac c0       	rjmp	.+344    	; 0x523e <Reciver_process0+0x1ba>
         case 0x44:usarH(Receive_buffer0[10],Receive_buffer0[11],Receive_buffer0[12],Receive_buffer0[13],Receive_buffer0[14],Receive_buffer0[15],Receive_buffer0[16],Receive_buffer0[17],Receive_buffer0[18],Receive_buffer0[19],Receive_buffer0[20],Receive_buffer0[21]);break;
    50e6:	80 91 34 03 	lds	r24, 0x0334
    50ea:	a8 2e       	mov	r10, r24
    50ec:	bb 24       	eor	r11, r11
    50ee:	80 91 35 03 	lds	r24, 0x0335
    50f2:	68 2f       	mov	r22, r24
    50f4:	70 e0       	ldi	r23, 0x00	; 0
    50f6:	80 91 36 03 	lds	r24, 0x0336
    50fa:	48 2f       	mov	r20, r24
    50fc:	50 e0       	ldi	r21, 0x00	; 0
    50fe:	80 91 37 03 	lds	r24, 0x0337
    5102:	28 2f       	mov	r18, r24
    5104:	30 e0       	ldi	r19, 0x00	; 0
    5106:	80 91 38 03 	lds	r24, 0x0338
    510a:	08 2f       	mov	r16, r24
    510c:	10 e0       	ldi	r17, 0x00	; 0
    510e:	80 91 39 03 	lds	r24, 0x0339
    5112:	e8 2e       	mov	r14, r24
    5114:	ff 24       	eor	r15, r15
    5116:	80 91 3a 03 	lds	r24, 0x033A
    511a:	c8 2e       	mov	r12, r24
    511c:	dd 24       	eor	r13, r13
    511e:	80 91 3b 03 	lds	r24, 0x033B
    5122:	a8 2f       	mov	r26, r24
    5124:	b0 e0       	ldi	r27, 0x00	; 0
    5126:	80 91 3c 03 	lds	r24, 0x033C
    512a:	e8 2f       	mov	r30, r24
    512c:	f0 e0       	ldi	r31, 0x00	; 0
    512e:	fa 83       	std	Y+2, r31	; 0x02
    5130:	e9 83       	std	Y+1, r30	; 0x01
    5132:	80 91 3d 03 	lds	r24, 0x033D
    5136:	48 2e       	mov	r4, r24
    5138:	55 24       	eor	r5, r5
    513a:	80 91 3e 03 	lds	r24, 0x033E
    513e:	68 2e       	mov	r6, r24
    5140:	77 24       	eor	r7, r7
    5142:	80 91 3f 03 	lds	r24, 0x033F
    5146:	88 2e       	mov	r8, r24
    5148:	99 24       	eor	r9, r9
    514a:	00 d0       	rcall	.+0      	; 0x514c <Reciver_process0+0xc8>
    514c:	00 d0       	rcall	.+0      	; 0x514e <Reciver_process0+0xca>
    514e:	00 d0       	rcall	.+0      	; 0x5150 <Reciver_process0+0xcc>
    5150:	8d b7       	in	r24, 0x3d	; 61
    5152:	9e b7       	in	r25, 0x3e	; 62
    5154:	01 96       	adiw	r24, 0x01	; 1
    5156:	fc 01       	movw	r30, r24
    5158:	51 82       	std	Z+1, r5	; 0x01
    515a:	40 82       	st	Z, r4
    515c:	fc 01       	movw	r30, r24
    515e:	73 82       	std	Z+3, r7	; 0x03
    5160:	62 82       	std	Z+2, r6	; 0x02
    5162:	fc 01       	movw	r30, r24
    5164:	95 82       	std	Z+5, r9	; 0x05
    5166:	84 82       	std	Z+4, r8	; 0x04
    5168:	c5 01       	movw	r24, r10
    516a:	5d 01       	movw	r10, r26
    516c:	89 80       	ldd	r8, Y+1	; 0x01
    516e:	9a 80       	ldd	r9, Y+2	; 0x02
    5170:	0e 94 48 0f 	call	0x1e90	; 0x1e90 <usarH>
    5174:	8d b7       	in	r24, 0x3d	; 61
    5176:	9e b7       	in	r25, 0x3e	; 62
    5178:	06 96       	adiw	r24, 0x06	; 6
    517a:	0f b6       	in	r0, 0x3f	; 63
    517c:	f8 94       	cli
    517e:	9e bf       	out	0x3e, r25	; 62
    5180:	0f be       	out	0x3f, r0	; 63
    5182:	8d bf       	out	0x3d, r24	; 61
    5184:	5c c0       	rjmp	.+184    	; 0x523e <Reciver_process0+0x1ba>
		 case 0x51:usarP(Receive_buffer0[10],Receive_buffer0[11],Receive_buffer0[12],Receive_buffer0[13],Receive_buffer0[14],Receive_buffer0[15],Receive_buffer0[16],Receive_buffer0[17],Receive_buffer0[18],Receive_buffer0[19],Receive_buffer0[20],Receive_buffer0[21]);break;
    5186:	80 91 34 03 	lds	r24, 0x0334
    518a:	a8 2e       	mov	r10, r24
    518c:	bb 24       	eor	r11, r11
    518e:	80 91 35 03 	lds	r24, 0x0335
    5192:	68 2f       	mov	r22, r24
    5194:	70 e0       	ldi	r23, 0x00	; 0
    5196:	80 91 36 03 	lds	r24, 0x0336
    519a:	48 2f       	mov	r20, r24
    519c:	50 e0       	ldi	r21, 0x00	; 0
    519e:	80 91 37 03 	lds	r24, 0x0337
    51a2:	28 2f       	mov	r18, r24
    51a4:	30 e0       	ldi	r19, 0x00	; 0
    51a6:	80 91 38 03 	lds	r24, 0x0338
    51aa:	08 2f       	mov	r16, r24
    51ac:	10 e0       	ldi	r17, 0x00	; 0
    51ae:	80 91 39 03 	lds	r24, 0x0339
    51b2:	e8 2e       	mov	r14, r24
    51b4:	ff 24       	eor	r15, r15
    51b6:	80 91 3a 03 	lds	r24, 0x033A
    51ba:	c8 2e       	mov	r12, r24
    51bc:	dd 24       	eor	r13, r13
    51be:	80 91 3b 03 	lds	r24, 0x033B
    51c2:	a8 2f       	mov	r26, r24
    51c4:	b0 e0       	ldi	r27, 0x00	; 0
    51c6:	80 91 3c 03 	lds	r24, 0x033C
    51ca:	e8 2f       	mov	r30, r24
    51cc:	f0 e0       	ldi	r31, 0x00	; 0
    51ce:	fa 83       	std	Y+2, r31	; 0x02
    51d0:	e9 83       	std	Y+1, r30	; 0x01
    51d2:	80 91 3d 03 	lds	r24, 0x033D
    51d6:	48 2e       	mov	r4, r24
    51d8:	55 24       	eor	r5, r5
    51da:	80 91 3e 03 	lds	r24, 0x033E
    51de:	68 2e       	mov	r6, r24
    51e0:	77 24       	eor	r7, r7
    51e2:	80 91 3f 03 	lds	r24, 0x033F
    51e6:	88 2e       	mov	r8, r24
    51e8:	99 24       	eor	r9, r9
    51ea:	00 d0       	rcall	.+0      	; 0x51ec <Reciver_process0+0x168>
    51ec:	00 d0       	rcall	.+0      	; 0x51ee <Reciver_process0+0x16a>
    51ee:	00 d0       	rcall	.+0      	; 0x51f0 <Reciver_process0+0x16c>
    51f0:	8d b7       	in	r24, 0x3d	; 61
    51f2:	9e b7       	in	r25, 0x3e	; 62
    51f4:	01 96       	adiw	r24, 0x01	; 1
    51f6:	fc 01       	movw	r30, r24
    51f8:	51 82       	std	Z+1, r5	; 0x01
    51fa:	40 82       	st	Z, r4
    51fc:	fc 01       	movw	r30, r24
    51fe:	73 82       	std	Z+3, r7	; 0x03
    5200:	62 82       	std	Z+2, r6	; 0x02
    5202:	fc 01       	movw	r30, r24
    5204:	95 82       	std	Z+5, r9	; 0x05
    5206:	84 82       	std	Z+4, r8	; 0x04
    5208:	c5 01       	movw	r24, r10
    520a:	5d 01       	movw	r10, r26
    520c:	89 80       	ldd	r8, Y+1	; 0x01
    520e:	9a 80       	ldd	r9, Y+2	; 0x02
    5210:	0e 94 e4 0e 	call	0x1dc8	; 0x1dc8 <usarP>
    5214:	8d b7       	in	r24, 0x3d	; 61
    5216:	9e b7       	in	r25, 0x3e	; 62
    5218:	06 96       	adiw	r24, 0x06	; 6
    521a:	0f b6       	in	r0, 0x3f	; 63
    521c:	f8 94       	cli
    521e:	9e bf       	out	0x3e, r25	; 62
    5220:	0f be       	out	0x3f, r0	; 63
    5222:	8d bf       	out	0x3d, r24	; 61
    5224:	0c c0       	rjmp	.+24     	; 0x523e <Reciver_process0+0x1ba>
         case 0x54:usarT(Receive_buffer0[10]);break;
    5226:	80 91 34 03 	lds	r24, 0x0334
    522a:	88 2f       	mov	r24, r24
    522c:	90 e0       	ldi	r25, 0x00	; 0
    522e:	0e 94 e9 0f 	call	0x1fd2	; 0x1fd2 <usarT>
    5232:	05 c0       	rjmp	.+10     	; 0x523e <Reciver_process0+0x1ba>
         default: send_data0(5);break;
    5234:	85 e0       	ldi	r24, 0x05	; 5
    5236:	90 e0       	ldi	r25, 0x00	; 0
    5238:	0e 94 1a 27 	call	0x4e34	; 0x4e34 <send_data0>
    523c:	00 00       	nop
      }
}
    523e:	0f 90       	pop	r0
    5240:	0f 90       	pop	r0
    5242:	cf 91       	pop	r28
    5244:	df 91       	pop	r29
    5246:	1f 91       	pop	r17
    5248:	0f 91       	pop	r16
    524a:	ff 90       	pop	r15
    524c:	ef 90       	pop	r14
    524e:	df 90       	pop	r13
    5250:	cf 90       	pop	r12
    5252:	bf 90       	pop	r11
    5254:	af 90       	pop	r10
    5256:	9f 90       	pop	r9
    5258:	8f 90       	pop	r8
    525a:	7f 90       	pop	r7
    525c:	6f 90       	pop	r6
    525e:	5f 90       	pop	r5
    5260:	4f 90       	pop	r4
    5262:	08 95       	ret

00005264 <__vector_16>:

ISR(SIG_OVERFLOW0)
{
    5264:	1f 92       	push	r1
    5266:	0f 92       	push	r0
    5268:	0f b6       	in	r0, 0x3f	; 63
    526a:	0f 92       	push	r0
    526c:	00 90 5b 00 	lds	r0, 0x005B
    5270:	0f 92       	push	r0
    5272:	11 24       	eor	r1, r1
    5274:	8f 93       	push	r24
    5276:	9f 93       	push	r25
    5278:	ef 93       	push	r30
    527a:	ff 93       	push	r31
    527c:	df 93       	push	r29
    527e:	cf 93       	push	r28
    5280:	cd b7       	in	r28, 0x3d	; 61
    5282:	de b7       	in	r29, 0x3e	; 62
	asm("sei");
    5284:	78 94       	sei
	kflag0++;
    5286:	80 91 5f 03 	lds	r24, 0x035F
    528a:	90 91 60 03 	lds	r25, 0x0360
    528e:	01 96       	adiw	r24, 0x01	; 1
    5290:	90 93 60 03 	sts	0x0360, r25
    5294:	80 93 5f 03 	sts	0x035F, r24
	if(kflag0==8)
    5298:	80 91 5f 03 	lds	r24, 0x035F
    529c:	90 91 60 03 	lds	r25, 0x0360
    52a0:	88 30       	cpi	r24, 0x08	; 8
    52a2:	91 05       	cpc	r25, r1
    52a4:	71 f4       	brne	.+28     	; 0x52c2 <__vector_16+0x5e>
	{
		TCCR0 = 0x0;
    52a6:	83 e5       	ldi	r24, 0x53	; 83
    52a8:	90 e0       	ldi	r25, 0x00	; 0
    52aa:	fc 01       	movw	r30, r24
    52ac:	10 82       	st	Z, r1
		TCNT0 = 0; //reload counter high value
    52ae:	82 e5       	ldi	r24, 0x52	; 82
    52b0:	90 e0       	ldi	r25, 0x00	; 0
    52b2:	fc 01       	movw	r30, r24
    52b4:	10 82       	st	Z, r1
		buffercnt0=0;
    52b6:	10 92 5e 03 	sts	0x035E, r1
		kflag0=0;
    52ba:	10 92 60 03 	sts	0x0360, r1
    52be:	10 92 5f 03 	sts	0x035F, r1
	}
}
    52c2:	cf 91       	pop	r28
    52c4:	df 91       	pop	r29
    52c6:	ff 91       	pop	r31
    52c8:	ef 91       	pop	r30
    52ca:	9f 91       	pop	r25
    52cc:	8f 91       	pop	r24
    52ce:	0f 90       	pop	r0
    52d0:	00 92 5b 00 	sts	0x005B, r0
    52d4:	0f 90       	pop	r0
    52d6:	0f be       	out	0x3f, r0	; 63
    52d8:	0f 90       	pop	r0
    52da:	1f 90       	pop	r1
    52dc:	18 95       	reti

000052de <getsend>:

void getsend(unsigned char getdata,unsigned char i)
{
    52de:	df 93       	push	r29
    52e0:	cf 93       	push	r28
    52e2:	00 d0       	rcall	.+0      	; 0x52e4 <getsend+0x6>
    52e4:	cd b7       	in	r28, 0x3d	; 61
    52e6:	de b7       	in	r29, 0x3e	; 62
    52e8:	89 83       	std	Y+1, r24	; 0x01
    52ea:	6a 83       	std	Y+2, r22	; 0x02
	Send_data[i]=getdata;
    52ec:	8a 81       	ldd	r24, Y+2	; 0x02
    52ee:	88 2f       	mov	r24, r24
    52f0:	90 e0       	ldi	r25, 0x00	; 0
    52f2:	86 5c       	subi	r24, 0xC6	; 198
    52f4:	9e 4f       	sbci	r25, 0xFE	; 254
    52f6:	29 81       	ldd	r18, Y+1	; 0x01
    52f8:	fc 01       	movw	r30, r24
    52fa:	20 83       	st	Z, r18
}
    52fc:	0f 90       	pop	r0
    52fe:	0f 90       	pop	r0
    5300:	cf 91       	pop	r28
    5302:	df 91       	pop	r29
    5304:	08 95       	ret

00005306 <getsensor>:

void getsensor(unsigned int getTem,unsigned int getHum,unsigned int locflag)
{
    5306:	df 93       	push	r29
    5308:	cf 93       	push	r28
    530a:	00 d0       	rcall	.+0      	; 0x530c <getsensor+0x6>
    530c:	00 d0       	rcall	.+0      	; 0x530e <getsensor+0x8>
    530e:	00 d0       	rcall	.+0      	; 0x5310 <getsensor+0xa>
    5310:	cd b7       	in	r28, 0x3d	; 61
    5312:	de b7       	in	r29, 0x3e	; 62
    5314:	9a 83       	std	Y+2, r25	; 0x02
    5316:	89 83       	std	Y+1, r24	; 0x01
    5318:	7c 83       	std	Y+4, r23	; 0x04
    531a:	6b 83       	std	Y+3, r22	; 0x03
    531c:	5e 83       	std	Y+6, r21	; 0x06
    531e:	4d 83       	std	Y+5, r20	; 0x05
	Send_data[11]=getTem/10000;
    5320:	89 81       	ldd	r24, Y+1	; 0x01
    5322:	9a 81       	ldd	r25, Y+2	; 0x02
    5324:	20 e1       	ldi	r18, 0x10	; 16
    5326:	37 e2       	ldi	r19, 0x27	; 39
    5328:	b9 01       	movw	r22, r18
    532a:	0e 94 6a 30 	call	0x60d4	; 0x60d4 <__udivmodhi4>
    532e:	9b 01       	movw	r18, r22
    5330:	c9 01       	movw	r24, r18
    5332:	80 93 45 01 	sts	0x0145, r24
	Send_data[12]=getTem%10000/100;
    5336:	89 81       	ldd	r24, Y+1	; 0x01
    5338:	9a 81       	ldd	r25, Y+2	; 0x02
    533a:	20 e1       	ldi	r18, 0x10	; 16
    533c:	37 e2       	ldi	r19, 0x27	; 39
    533e:	b9 01       	movw	r22, r18
    5340:	0e 94 6a 30 	call	0x60d4	; 0x60d4 <__udivmodhi4>
    5344:	24 e6       	ldi	r18, 0x64	; 100
    5346:	30 e0       	ldi	r19, 0x00	; 0
    5348:	b9 01       	movw	r22, r18
    534a:	0e 94 6a 30 	call	0x60d4	; 0x60d4 <__udivmodhi4>
    534e:	9b 01       	movw	r18, r22
    5350:	c9 01       	movw	r24, r18
    5352:	80 93 46 01 	sts	0x0146, r24
	Send_data[13]=getTem%100;
    5356:	89 81       	ldd	r24, Y+1	; 0x01
    5358:	9a 81       	ldd	r25, Y+2	; 0x02
    535a:	24 e6       	ldi	r18, 0x64	; 100
    535c:	30 e0       	ldi	r19, 0x00	; 0
    535e:	b9 01       	movw	r22, r18
    5360:	0e 94 6a 30 	call	0x60d4	; 0x60d4 <__udivmodhi4>
    5364:	80 93 47 01 	sts	0x0147, r24
	Send_data[14]=getHum/10000;
    5368:	8b 81       	ldd	r24, Y+3	; 0x03
    536a:	9c 81       	ldd	r25, Y+4	; 0x04
    536c:	20 e1       	ldi	r18, 0x10	; 16
    536e:	37 e2       	ldi	r19, 0x27	; 39
    5370:	b9 01       	movw	r22, r18
    5372:	0e 94 6a 30 	call	0x60d4	; 0x60d4 <__udivmodhi4>
    5376:	9b 01       	movw	r18, r22
    5378:	c9 01       	movw	r24, r18
    537a:	80 93 48 01 	sts	0x0148, r24
	Send_data[15]=getHum%10000/100;
    537e:	8b 81       	ldd	r24, Y+3	; 0x03
    5380:	9c 81       	ldd	r25, Y+4	; 0x04
    5382:	20 e1       	ldi	r18, 0x10	; 16
    5384:	37 e2       	ldi	r19, 0x27	; 39
    5386:	b9 01       	movw	r22, r18
    5388:	0e 94 6a 30 	call	0x60d4	; 0x60d4 <__udivmodhi4>
    538c:	24 e6       	ldi	r18, 0x64	; 100
    538e:	30 e0       	ldi	r19, 0x00	; 0
    5390:	b9 01       	movw	r22, r18
    5392:	0e 94 6a 30 	call	0x60d4	; 0x60d4 <__udivmodhi4>
    5396:	9b 01       	movw	r18, r22
    5398:	c9 01       	movw	r24, r18
    539a:	80 93 49 01 	sts	0x0149, r24
	Send_data[16]=getHum%100;
    539e:	8b 81       	ldd	r24, Y+3	; 0x03
    53a0:	9c 81       	ldd	r25, Y+4	; 0x04
    53a2:	24 e6       	ldi	r18, 0x64	; 100
    53a4:	30 e0       	ldi	r19, 0x00	; 0
    53a6:	b9 01       	movw	r22, r18
    53a8:	0e 94 6a 30 	call	0x60d4	; 0x60d4 <__udivmodhi4>
    53ac:	80 93 4a 01 	sts	0x014A, r24
	Send_data[49]=locflag;
    53b0:	8d 81       	ldd	r24, Y+5	; 0x05
    53b2:	80 93 6b 01 	sts	0x016B, r24
}
    53b6:	26 96       	adiw	r28, 0x06	; 6
    53b8:	0f b6       	in	r0, 0x3f	; 63
    53ba:	f8 94       	cli
    53bc:	de bf       	out	0x3e, r29	; 62
    53be:	0f be       	out	0x3f, r0	; 63
    53c0:	cd bf       	out	0x3d, r28	; 61
    53c2:	cf 91       	pop	r28
    53c4:	df 91       	pop	r29
    53c6:	08 95       	ret

000053c8 <getdo>:

void getdo(unsigned char do1,unsigned char do2)
{
    53c8:	df 93       	push	r29
    53ca:	cf 93       	push	r28
    53cc:	00 d0       	rcall	.+0      	; 0x53ce <getdo+0x6>
    53ce:	cd b7       	in	r28, 0x3d	; 61
    53d0:	de b7       	in	r29, 0x3e	; 62
    53d2:	89 83       	std	Y+1, r24	; 0x01
    53d4:	6a 83       	std	Y+2, r22	; 0x02
	if(do1==1)Send_data[36]|=0x80;
    53d6:	89 81       	ldd	r24, Y+1	; 0x01
    53d8:	81 30       	cpi	r24, 0x01	; 1
    53da:	31 f4       	brne	.+12     	; 0x53e8 <getdo+0x20>
    53dc:	80 91 5e 01 	lds	r24, 0x015E
    53e0:	80 68       	ori	r24, 0x80	; 128
    53e2:	80 93 5e 01 	sts	0x015E, r24
    53e6:	08 c0       	rjmp	.+16     	; 0x53f8 <getdo+0x30>
	else if(do1==0)Send_data[36]&=0x7f;
    53e8:	89 81       	ldd	r24, Y+1	; 0x01
    53ea:	88 23       	and	r24, r24
    53ec:	29 f4       	brne	.+10     	; 0x53f8 <getdo+0x30>
    53ee:	80 91 5e 01 	lds	r24, 0x015E
    53f2:	8f 77       	andi	r24, 0x7F	; 127
    53f4:	80 93 5e 01 	sts	0x015E, r24
	
	if(do2==1)Send_data[36]|=0x40;
    53f8:	8a 81       	ldd	r24, Y+2	; 0x02
    53fa:	81 30       	cpi	r24, 0x01	; 1
    53fc:	31 f4       	brne	.+12     	; 0x540a <getdo+0x42>
    53fe:	80 91 5e 01 	lds	r24, 0x015E
    5402:	80 64       	ori	r24, 0x40	; 64
    5404:	80 93 5e 01 	sts	0x015E, r24
    5408:	08 c0       	rjmp	.+16     	; 0x541a <getdo+0x52>
	else if(do2==0)Send_data[36]&=0xbf;
    540a:	8a 81       	ldd	r24, Y+2	; 0x02
    540c:	88 23       	and	r24, r24
    540e:	29 f4       	brne	.+10     	; 0x541a <getdo+0x52>
    5410:	80 91 5e 01 	lds	r24, 0x015E
    5414:	8f 7b       	andi	r24, 0xBF	; 191
    5416:	80 93 5e 01 	sts	0x015E, r24
    541a:	0f 90       	pop	r0
    541c:	0f 90       	pop	r0
    541e:	cf 91       	pop	r28
    5420:	df 91       	pop	r29
    5422:	08 95       	ret

00005424 <uart1_init>:
unsigned int v=1;
unsigned int kflag=0;
//unsigned int a=0,b=0;
unsigned char ss[6];
void uart1_init(void)
{
    5424:	df 93       	push	r29
    5426:	cf 93       	push	r28
    5428:	cd b7       	in	r28, 0x3d	; 61
    542a:	de b7       	in	r29, 0x3e	; 62
 UCSR1B = 0x00; //disable while setting baud rate
    542c:	8a e9       	ldi	r24, 0x9A	; 154
    542e:	90 e0       	ldi	r25, 0x00	; 0
    5430:	fc 01       	movw	r30, r24
    5432:	10 82       	st	Z, r1
 UCSR1A = 0x00;
    5434:	8b e9       	ldi	r24, 0x9B	; 155
    5436:	90 e0       	ldi	r25, 0x00	; 0
    5438:	fc 01       	movw	r30, r24
    543a:	10 82       	st	Z, r1
 UCSR1C = 0x36;
    543c:	8d e9       	ldi	r24, 0x9D	; 157
    543e:	90 e0       	ldi	r25, 0x00	; 0
    5440:	26 e3       	ldi	r18, 0x36	; 54
    5442:	fc 01       	movw	r30, r24
    5444:	20 83       	st	Z, r18
 UBRR1L = 0x67; //set baud rate lo
    5446:	89 e9       	ldi	r24, 0x99	; 153
    5448:	90 e0       	ldi	r25, 0x00	; 0
    544a:	27 e6       	ldi	r18, 0x67	; 103
    544c:	fc 01       	movw	r30, r24
    544e:	20 83       	st	Z, r18
 UBRR1H = 0x00; //set baud rate hi
    5450:	88 e9       	ldi	r24, 0x98	; 152
    5452:	90 e0       	ldi	r25, 0x00	; 0
    5454:	fc 01       	movw	r30, r24
    5456:	10 82       	st	Z, r1
 UCSR1B = 0x98;
    5458:	8a e9       	ldi	r24, 0x9A	; 154
    545a:	90 e0       	ldi	r25, 0x00	; 0
    545c:	28 e9       	ldi	r18, 0x98	; 152
    545e:	fc 01       	movw	r30, r24
    5460:	20 83       	st	Z, r18
}
    5462:	cf 91       	pop	r28
    5464:	df 91       	pop	r29
    5466:	08 95       	ret

00005468 <__vector_30>:

SIGNAL(SIG_UART1_RECV)
{
    5468:	1f 92       	push	r1
    546a:	0f 92       	push	r0
    546c:	0f b6       	in	r0, 0x3f	; 63
    546e:	0f 92       	push	r0
    5470:	00 90 5b 00 	lds	r0, 0x005B
    5474:	0f 92       	push	r0
    5476:	11 24       	eor	r1, r1
    5478:	2f 93       	push	r18
    547a:	3f 93       	push	r19
    547c:	4f 93       	push	r20
    547e:	5f 93       	push	r21
    5480:	6f 93       	push	r22
    5482:	7f 93       	push	r23
    5484:	8f 93       	push	r24
    5486:	9f 93       	push	r25
    5488:	af 93       	push	r26
    548a:	bf 93       	push	r27
    548c:	ef 93       	push	r30
    548e:	ff 93       	push	r31
    5490:	df 93       	push	r29
    5492:	cf 93       	push	r28
    5494:	cd b7       	in	r28, 0x3d	; 61
    5496:	de b7       	in	r29, 0x3e	; 62
    Receive_buffer[buffercnt]=UDR1;
    5498:	80 91 a2 03 	lds	r24, 0x03A2
    549c:	88 2f       	mov	r24, r24
    549e:	90 e0       	ldi	r25, 0x00	; 0
    54a0:	2c e9       	ldi	r18, 0x9C	; 156
    54a2:	30 e0       	ldi	r19, 0x00	; 0
    54a4:	f9 01       	movw	r30, r18
    54a6:	20 81       	ld	r18, Z
    54a8:	8f 59       	subi	r24, 0x9F	; 159
    54aa:	9c 4f       	sbci	r25, 0xFC	; 252
    54ac:	fc 01       	movw	r30, r24
    54ae:	20 83       	st	Z, r18
   if(Receive_buffer[0]==0x55)
    54b0:	80 91 61 03 	lds	r24, 0x0361
    54b4:	85 35       	cpi	r24, 0x55	; 85
    54b6:	09 f0       	breq	.+2      	; 0x54ba <__vector_30+0x52>
    54b8:	62 c0       	rjmp	.+196    	; 0x557e <__vector_30+0x116>
    {
          buffercnt++;
    54ba:	80 91 a2 03 	lds	r24, 0x03A2
    54be:	8f 5f       	subi	r24, 0xFF	; 255
    54c0:	80 93 a2 03 	sts	0x03A2, r24
		  switch(buffercnt)
    54c4:	80 91 a2 03 	lds	r24, 0x03A2
    54c8:	88 2f       	mov	r24, r24
    54ca:	90 e0       	ldi	r25, 0x00	; 0
    54cc:	86 30       	cpi	r24, 0x06	; 6
    54ce:	91 05       	cpc	r25, r1
    54d0:	61 f1       	breq	.+88     	; 0x552a <__vector_30+0xc2>
    54d2:	87 30       	cpi	r24, 0x07	; 7
    54d4:	91 05       	cpc	r25, r1
    54d6:	54 f4       	brge	.+20     	; 0x54ec <__vector_30+0x84>
    54d8:	84 30       	cpi	r24, 0x04	; 4
    54da:	91 05       	cpc	r25, r1
    54dc:	c1 f0       	breq	.+48     	; 0x550e <__vector_30+0xa6>
    54de:	85 30       	cpi	r24, 0x05	; 5
    54e0:	91 05       	cpc	r25, r1
    54e2:	e4 f4       	brge	.+56     	; 0x551c <__vector_30+0xb4>
    54e4:	83 30       	cpi	r24, 0x03	; 3
    54e6:	91 05       	cpc	r25, r1
    54e8:	59 f0       	breq	.+22     	; 0x5500 <__vector_30+0x98>
    54ea:	49 c0       	rjmp	.+146    	; 0x557e <__vector_30+0x116>
    54ec:	88 30       	cpi	r24, 0x08	; 8
    54ee:	91 05       	cpc	r25, r1
    54f0:	51 f1       	breq	.+84     	; 0x5546 <__vector_30+0xde>
    54f2:	88 30       	cpi	r24, 0x08	; 8
    54f4:	91 05       	cpc	r25, r1
    54f6:	04 f1       	brlt	.+64     	; 0x5538 <__vector_30+0xd0>
    54f8:	81 34       	cpi	r24, 0x41	; 65
    54fa:	91 05       	cpc	r25, r1
    54fc:	59 f1       	breq	.+86     	; 0x5554 <__vector_30+0xec>
    54fe:	3f c0       	rjmp	.+126    	; 0x557e <__vector_30+0x116>
		  {
		  case 3:if(Receive_buffer[2]!=1)buffercnt=0;break;
    5500:	80 91 63 03 	lds	r24, 0x0363
    5504:	81 30       	cpi	r24, 0x01	; 1
    5506:	81 f1       	breq	.+96     	; 0x5568 <__vector_30+0x100>
    5508:	10 92 a2 03 	sts	0x03A2, r1
    550c:	38 c0       	rjmp	.+112    	; 0x557e <__vector_30+0x116>
		  case 4:if(Receive_buffer[3]!=0)buffercnt=0;break;
    550e:	80 91 64 03 	lds	r24, 0x0364
    5512:	88 23       	and	r24, r24
    5514:	59 f1       	breq	.+86     	; 0x556c <__vector_30+0x104>
    5516:	10 92 a2 03 	sts	0x03A2, r1
    551a:	31 c0       	rjmp	.+98     	; 0x557e <__vector_30+0x116>
		  case 5:if(Receive_buffer[4]!=1)buffercnt=0;break;
    551c:	80 91 65 03 	lds	r24, 0x0365
    5520:	81 30       	cpi	r24, 0x01	; 1
    5522:	31 f1       	breq	.+76     	; 0x5570 <__vector_30+0x108>
    5524:	10 92 a2 03 	sts	0x03A2, r1
    5528:	2a c0       	rjmp	.+84     	; 0x557e <__vector_30+0x116>
		  case 6:if(Receive_buffer[5]!=0)buffercnt=0;break;
    552a:	80 91 66 03 	lds	r24, 0x0366
    552e:	88 23       	and	r24, r24
    5530:	09 f1       	breq	.+66     	; 0x5574 <__vector_30+0x10c>
    5532:	10 92 a2 03 	sts	0x03A2, r1
    5536:	23 c0       	rjmp	.+70     	; 0x557e <__vector_30+0x116>
		  case 7:if(Receive_buffer[6]!=0)buffercnt=0;break;
    5538:	80 91 67 03 	lds	r24, 0x0367
    553c:	88 23       	and	r24, r24
    553e:	e1 f0       	breq	.+56     	; 0x5578 <__vector_30+0x110>
    5540:	10 92 a2 03 	sts	0x03A2, r1
    5544:	1c c0       	rjmp	.+56     	; 0x557e <__vector_30+0x116>
		  case 8:if(Receive_buffer[7]!=2)buffercnt=0;break;
    5546:	80 91 68 03 	lds	r24, 0x0368
    554a:	82 30       	cpi	r24, 0x02	; 2
    554c:	b9 f0       	breq	.+46     	; 0x557c <__vector_30+0x114>
    554e:	10 92 a2 03 	sts	0x03A2, r1
    5552:	15 c0       	rjmp	.+42     	; 0x557e <__vector_30+0x116>
		  // case 63:if(Receive_buffer[62]!=0x66)buffercnt=0;break;
		  case 65:if(Receive_buffer[64]!=0x55)buffercnt=0;getflag();break;
    5554:	80 91 a1 03 	lds	r24, 0x03A1
    5558:	85 35       	cpi	r24, 0x55	; 85
    555a:	11 f0       	breq	.+4      	; 0x5560 <__vector_30+0xf8>
    555c:	10 92 a2 03 	sts	0x03A2, r1
    5560:	0e 94 7a 12 	call	0x24f4	; 0x24f4 <getflag>
    5564:	00 00       	nop
    5566:	0b c0       	rjmp	.+22     	; 0x557e <__vector_30+0x116>
   if(Receive_buffer[0]==0x55)
    {
          buffercnt++;
		  switch(buffercnt)
		  {
		  case 3:if(Receive_buffer[2]!=1)buffercnt=0;break;
    5568:	00 00       	nop
    556a:	09 c0       	rjmp	.+18     	; 0x557e <__vector_30+0x116>
		  case 4:if(Receive_buffer[3]!=0)buffercnt=0;break;
    556c:	00 00       	nop
    556e:	07 c0       	rjmp	.+14     	; 0x557e <__vector_30+0x116>
		  case 5:if(Receive_buffer[4]!=1)buffercnt=0;break;
    5570:	00 00       	nop
    5572:	05 c0       	rjmp	.+10     	; 0x557e <__vector_30+0x116>
		  case 6:if(Receive_buffer[5]!=0)buffercnt=0;break;
    5574:	00 00       	nop
    5576:	03 c0       	rjmp	.+6      	; 0x557e <__vector_30+0x116>
		  case 7:if(Receive_buffer[6]!=0)buffercnt=0;break;
    5578:	00 00       	nop
    557a:	01 c0       	rjmp	.+2      	; 0x557e <__vector_30+0x116>
		  case 8:if(Receive_buffer[7]!=2)buffercnt=0;break;
    557c:	00 00       	nop
		  // case 63:if(Receive_buffer[62]!=0x66)buffercnt=0;break;
		  case 65:if(Receive_buffer[64]!=0x55)buffercnt=0;getflag();break;
		  }
    }
}
    557e:	cf 91       	pop	r28
    5580:	df 91       	pop	r29
    5582:	ff 91       	pop	r31
    5584:	ef 91       	pop	r30
    5586:	bf 91       	pop	r27
    5588:	af 91       	pop	r26
    558a:	9f 91       	pop	r25
    558c:	8f 91       	pop	r24
    558e:	7f 91       	pop	r23
    5590:	6f 91       	pop	r22
    5592:	5f 91       	pop	r21
    5594:	4f 91       	pop	r20
    5596:	3f 91       	pop	r19
    5598:	2f 91       	pop	r18
    559a:	0f 90       	pop	r0
    559c:	00 92 5b 00 	sts	0x005B, r0
    55a0:	0f 90       	pop	r0
    55a2:	0f be       	out	0x3f, r0	; 63
    55a4:	0f 90       	pop	r0
    55a6:	1f 90       	pop	r1
    55a8:	18 95       	reti

000055aa <uart1_Tx>:

void uart1_Tx(unsigned char data)
{
    55aa:	df 93       	push	r29
    55ac:	cf 93       	push	r28
    55ae:	0f 92       	push	r0
    55b0:	cd b7       	in	r28, 0x3d	; 61
    55b2:	de b7       	in	r29, 0x3e	; 62
    55b4:	89 83       	std	Y+1, r24	; 0x01
	while ( !( UCSR1A & (1<<UDRE1)) );
    55b6:	00 00       	nop
    55b8:	8b e9       	ldi	r24, 0x9B	; 155
    55ba:	90 e0       	ldi	r25, 0x00	; 0
    55bc:	fc 01       	movw	r30, r24
    55be:	80 81       	ld	r24, Z
    55c0:	88 2f       	mov	r24, r24
    55c2:	90 e0       	ldi	r25, 0x00	; 0
    55c4:	80 72       	andi	r24, 0x20	; 32
    55c6:	90 70       	andi	r25, 0x00	; 0
    55c8:	00 97       	sbiw	r24, 0x00	; 0
    55ca:	b1 f3       	breq	.-20     	; 0x55b8 <uart1_Tx+0xe>
	UDR1 = data;
    55cc:	8c e9       	ldi	r24, 0x9C	; 156
    55ce:	90 e0       	ldi	r25, 0x00	; 0
    55d0:	29 81       	ldd	r18, Y+1	; 0x01
    55d2:	fc 01       	movw	r30, r24
    55d4:	20 83       	st	Z, r18
	while ( !( UCSR1A & (1<<TXC1)) );
    55d6:	00 00       	nop
    55d8:	8b e9       	ldi	r24, 0x9B	; 155
    55da:	90 e0       	ldi	r25, 0x00	; 0
    55dc:	fc 01       	movw	r30, r24
    55de:	80 81       	ld	r24, Z
    55e0:	88 2f       	mov	r24, r24
    55e2:	90 e0       	ldi	r25, 0x00	; 0
    55e4:	80 74       	andi	r24, 0x40	; 64
    55e6:	90 70       	andi	r25, 0x00	; 0
    55e8:	00 97       	sbiw	r24, 0x00	; 0
    55ea:	b1 f3       	breq	.-20     	; 0x55d8 <uart1_Tx+0x2e>
	del(3);
    55ec:	83 e0       	ldi	r24, 0x03	; 3
    55ee:	90 e0       	ldi	r25, 0x00	; 0
    55f0:	0e 94 92 0d 	call	0x1b24	; 0x1b24 <del>
}
    55f4:	0f 90       	pop	r0
    55f6:	cf 91       	pop	r28
    55f8:	df 91       	pop	r29
    55fa:	08 95       	ret

000055fc <send_data1>:

void send_data1(unsigned int typeA,unsigned int data1,unsigned int data2,unsigned int data3,unsigned int data4,unsigned int data5,unsigned int data6,unsigned int data7,unsigned int data8,unsigned int data9,unsigned int data10,unsigned int data11,unsigned int data12)
{
    55fc:	8f 92       	push	r8
    55fe:	9f 92       	push	r9
    5600:	af 92       	push	r10
    5602:	bf 92       	push	r11
    5604:	cf 92       	push	r12
    5606:	df 92       	push	r13
    5608:	ef 92       	push	r14
    560a:	ff 92       	push	r15
    560c:	0f 93       	push	r16
    560e:	1f 93       	push	r17
    5610:	df 93       	push	r29
    5612:	cf 93       	push	r28
    5614:	cd b7       	in	r28, 0x3d	; 61
    5616:	de b7       	in	r29, 0x3e	; 62
    5618:	64 97       	sbiw	r28, 0x14	; 20
    561a:	0f b6       	in	r0, 0x3f	; 63
    561c:	f8 94       	cli
    561e:	de bf       	out	0x3e, r29	; 62
    5620:	0f be       	out	0x3f, r0	; 63
    5622:	cd bf       	out	0x3d, r28	; 61
    5624:	9c 83       	std	Y+4, r25	; 0x04
    5626:	8b 83       	std	Y+3, r24	; 0x03
    5628:	7e 83       	std	Y+6, r23	; 0x06
    562a:	6d 83       	std	Y+5, r22	; 0x05
    562c:	58 87       	std	Y+8, r21	; 0x08
    562e:	4f 83       	std	Y+7, r20	; 0x07
    5630:	3a 87       	std	Y+10, r19	; 0x0a
    5632:	29 87       	std	Y+9, r18	; 0x09
    5634:	1c 87       	std	Y+12, r17	; 0x0c
    5636:	0b 87       	std	Y+11, r16	; 0x0b
    5638:	fe 86       	std	Y+14, r15	; 0x0e
    563a:	ed 86       	std	Y+13, r14	; 0x0d
    563c:	d8 8a       	std	Y+16, r13	; 0x10
    563e:	cf 86       	std	Y+15, r12	; 0x0f
    5640:	ba 8a       	std	Y+18, r11	; 0x12
    5642:	a9 8a       	std	Y+17, r10	; 0x11
    5644:	9c 8a       	std	Y+20, r9	; 0x14
    5646:	8b 8a       	std	Y+19, r8	; 0x13
    unsigned int i=0;
    5648:	1a 82       	std	Y+2, r1	; 0x02
    564a:	19 82       	std	Y+1, r1	; 0x01
	buffercnt=0;
    564c:	10 92 a2 03 	sts	0x03A2, r1
	switch(typeA)
    5650:	8b 81       	ldd	r24, Y+3	; 0x03
    5652:	9c 81       	ldd	r25, Y+4	; 0x04
    5654:	82 30       	cpi	r24, 0x02	; 2
    5656:	91 05       	cpc	r25, r1
    5658:	09 f4       	brne	.+2      	; 0x565c <send_data1+0x60>
    565a:	8c c0       	rjmp	.+280    	; 0x5774 <send_data1+0x178>
    565c:	83 30       	cpi	r24, 0x03	; 3
    565e:	91 05       	cpc	r25, r1
    5660:	30 f4       	brcc	.+12     	; 0x566e <send_data1+0x72>
    5662:	00 97       	sbiw	r24, 0x00	; 0
    5664:	69 f0       	breq	.+26     	; 0x5680 <send_data1+0x84>
    5666:	81 30       	cpi	r24, 0x01	; 1
    5668:	91 05       	cpc	r25, r1
    566a:	a9 f1       	breq	.+106    	; 0x56d6 <send_data1+0xda>
	for(i=0;i<65;i++) uart1_Tx(send_buffer[i]);
	PORTB|=0x40;
	break;
	
	default:
	break;
    566c:	2b c1       	rjmp	.+598    	; 0x58c4 <send_data1+0x2c8>

void send_data1(unsigned int typeA,unsigned int data1,unsigned int data2,unsigned int data3,unsigned int data4,unsigned int data5,unsigned int data6,unsigned int data7,unsigned int data8,unsigned int data9,unsigned int data10,unsigned int data11,unsigned int data12)
{
    unsigned int i=0;
	buffercnt=0;
	switch(typeA)
    566e:	83 30       	cpi	r24, 0x03	; 3
    5670:	91 05       	cpc	r25, r1
    5672:	09 f4       	brne	.+2      	; 0x5676 <send_data1+0x7a>
    5674:	ad c0       	rjmp	.+346    	; 0x57d0 <send_data1+0x1d4>
    5676:	84 30       	cpi	r24, 0x04	; 4
    5678:	91 05       	cpc	r25, r1
    567a:	09 f4       	brne	.+2      	; 0x567e <send_data1+0x82>
    567c:	f8 c0       	rjmp	.+496    	; 0x586e <send_data1+0x272>
	for(i=0;i<65;i++) uart1_Tx(send_buffer[i]);
	PORTB|=0x40;
	break;
	
	default:
	break;
    567e:	22 c1       	rjmp	.+580    	; 0x58c4 <send_data1+0x2c8>
    unsigned int i=0;
	buffercnt=0;
	switch(typeA)
	{
	case 0:
	send_buffer[9]=0x41;
    5680:	81 e4       	ldi	r24, 0x41	; 65
    5682:	80 93 81 02 	sts	0x0281, r24
	PORTB&=0xBF;
    5686:	88 e3       	ldi	r24, 0x38	; 56
    5688:	90 e0       	ldi	r25, 0x00	; 0
    568a:	28 e3       	ldi	r18, 0x38	; 56
    568c:	30 e0       	ldi	r19, 0x00	; 0
    568e:	f9 01       	movw	r30, r18
    5690:	20 81       	ld	r18, Z
    5692:	2f 7b       	andi	r18, 0xBF	; 191
    5694:	fc 01       	movw	r30, r24
    5696:	20 83       	st	Z, r18
	for(i=0;i<65;i++) uart1_Tx(send_buffer[i]);
    5698:	1a 82       	std	Y+2, r1	; 0x02
    569a:	19 82       	std	Y+1, r1	; 0x01
    569c:	0d c0       	rjmp	.+26     	; 0x56b8 <send_data1+0xbc>
    569e:	89 81       	ldd	r24, Y+1	; 0x01
    56a0:	9a 81       	ldd	r25, Y+2	; 0x02
    56a2:	88 58       	subi	r24, 0x88	; 136
    56a4:	9d 4f       	sbci	r25, 0xFD	; 253
    56a6:	fc 01       	movw	r30, r24
    56a8:	80 81       	ld	r24, Z
    56aa:	0e 94 d5 2a 	call	0x55aa	; 0x55aa <uart1_Tx>
    56ae:	89 81       	ldd	r24, Y+1	; 0x01
    56b0:	9a 81       	ldd	r25, Y+2	; 0x02
    56b2:	01 96       	adiw	r24, 0x01	; 1
    56b4:	9a 83       	std	Y+2, r25	; 0x02
    56b6:	89 83       	std	Y+1, r24	; 0x01
    56b8:	89 81       	ldd	r24, Y+1	; 0x01
    56ba:	9a 81       	ldd	r25, Y+2	; 0x02
    56bc:	81 34       	cpi	r24, 0x41	; 65
    56be:	91 05       	cpc	r25, r1
    56c0:	70 f3       	brcs	.-36     	; 0x569e <send_data1+0xa2>
	PORTB|=0x40;
    56c2:	88 e3       	ldi	r24, 0x38	; 56
    56c4:	90 e0       	ldi	r25, 0x00	; 0
    56c6:	28 e3       	ldi	r18, 0x38	; 56
    56c8:	30 e0       	ldi	r19, 0x00	; 0
    56ca:	f9 01       	movw	r30, r18
    56cc:	20 81       	ld	r18, Z
    56ce:	20 64       	ori	r18, 0x40	; 64
    56d0:	fc 01       	movw	r30, r24
    56d2:	20 83       	st	Z, r18
	break;
    56d4:	f7 c0       	rjmp	.+494    	; 0x58c4 <send_data1+0x2c8>
	
	case 1:
	send_buffer[9]=0x44;
    56d6:	84 e4       	ldi	r24, 0x44	; 68
    56d8:	80 93 81 02 	sts	0x0281, r24
	send_buffer[11]=data1;
    56dc:	8d 81       	ldd	r24, Y+5	; 0x05
    56de:	80 93 83 02 	sts	0x0283, r24
	send_buffer[12]=data2;
    56e2:	8f 81       	ldd	r24, Y+7	; 0x07
    56e4:	80 93 84 02 	sts	0x0284, r24
	send_buffer[13]=data3;
    56e8:	89 85       	ldd	r24, Y+9	; 0x09
    56ea:	80 93 85 02 	sts	0x0285, r24
	send_buffer[14]=data4;
    56ee:	8b 85       	ldd	r24, Y+11	; 0x0b
    56f0:	80 93 86 02 	sts	0x0286, r24
	send_buffer[15]=data5;
    56f4:	8d 85       	ldd	r24, Y+13	; 0x0d
    56f6:	80 93 87 02 	sts	0x0287, r24
	send_buffer[16]=data6;
    56fa:	8f 85       	ldd	r24, Y+15	; 0x0f
    56fc:	80 93 88 02 	sts	0x0288, r24
	send_buffer[17]=data7;
    5700:	89 89       	ldd	r24, Y+17	; 0x11
    5702:	80 93 89 02 	sts	0x0289, r24
	send_buffer[18]=data8;
    5706:	8b 89       	ldd	r24, Y+19	; 0x13
    5708:	80 93 8a 02 	sts	0x028A, r24
	send_buffer[19]=data9;
    570c:	8b a1       	ldd	r24, Y+35	; 0x23
    570e:	80 93 8b 02 	sts	0x028B, r24
	send_buffer[20]=data10;
    5712:	8d a1       	ldd	r24, Y+37	; 0x25
    5714:	80 93 8c 02 	sts	0x028C, r24
	send_buffer[21]=data11;
    5718:	8f a1       	ldd	r24, Y+39	; 0x27
    571a:	80 93 8d 02 	sts	0x028D, r24
	send_buffer[22]=data12;
    571e:	89 a5       	ldd	r24, Y+41	; 0x29
    5720:	80 93 8e 02 	sts	0x028E, r24
	PORTB&=0xBF;
    5724:	88 e3       	ldi	r24, 0x38	; 56
    5726:	90 e0       	ldi	r25, 0x00	; 0
    5728:	28 e3       	ldi	r18, 0x38	; 56
    572a:	30 e0       	ldi	r19, 0x00	; 0
    572c:	f9 01       	movw	r30, r18
    572e:	20 81       	ld	r18, Z
    5730:	2f 7b       	andi	r18, 0xBF	; 191
    5732:	fc 01       	movw	r30, r24
    5734:	20 83       	st	Z, r18
	for(i=0;i<65;i++) uart1_Tx(send_buffer[i]);
    5736:	1a 82       	std	Y+2, r1	; 0x02
    5738:	19 82       	std	Y+1, r1	; 0x01
    573a:	0d c0       	rjmp	.+26     	; 0x5756 <send_data1+0x15a>
    573c:	89 81       	ldd	r24, Y+1	; 0x01
    573e:	9a 81       	ldd	r25, Y+2	; 0x02
    5740:	88 58       	subi	r24, 0x88	; 136
    5742:	9d 4f       	sbci	r25, 0xFD	; 253
    5744:	fc 01       	movw	r30, r24
    5746:	80 81       	ld	r24, Z
    5748:	0e 94 d5 2a 	call	0x55aa	; 0x55aa <uart1_Tx>
    574c:	89 81       	ldd	r24, Y+1	; 0x01
    574e:	9a 81       	ldd	r25, Y+2	; 0x02
    5750:	01 96       	adiw	r24, 0x01	; 1
    5752:	9a 83       	std	Y+2, r25	; 0x02
    5754:	89 83       	std	Y+1, r24	; 0x01
    5756:	89 81       	ldd	r24, Y+1	; 0x01
    5758:	9a 81       	ldd	r25, Y+2	; 0x02
    575a:	81 34       	cpi	r24, 0x41	; 65
    575c:	91 05       	cpc	r25, r1
    575e:	70 f3       	brcs	.-36     	; 0x573c <send_data1+0x140>
	PORTB|=0x40;
    5760:	88 e3       	ldi	r24, 0x38	; 56
    5762:	90 e0       	ldi	r25, 0x00	; 0
    5764:	28 e3       	ldi	r18, 0x38	; 56
    5766:	30 e0       	ldi	r19, 0x00	; 0
    5768:	f9 01       	movw	r30, r18
    576a:	20 81       	ld	r18, Z
    576c:	20 64       	ori	r18, 0x40	; 64
    576e:	fc 01       	movw	r30, r24
    5770:	20 83       	st	Z, r18
	break;
    5772:	a8 c0       	rjmp	.+336    	; 0x58c4 <send_data1+0x2c8>
	
	case 2:
	send_buffer[9]=0x54;
    5774:	84 e5       	ldi	r24, 0x54	; 84
    5776:	80 93 81 02 	sts	0x0281, r24
	send_buffer[11]=data1;
    577a:	8d 81       	ldd	r24, Y+5	; 0x05
    577c:	80 93 83 02 	sts	0x0283, r24
	PORTB&=0xBF;
    5780:	88 e3       	ldi	r24, 0x38	; 56
    5782:	90 e0       	ldi	r25, 0x00	; 0
    5784:	28 e3       	ldi	r18, 0x38	; 56
    5786:	30 e0       	ldi	r19, 0x00	; 0
    5788:	f9 01       	movw	r30, r18
    578a:	20 81       	ld	r18, Z
    578c:	2f 7b       	andi	r18, 0xBF	; 191
    578e:	fc 01       	movw	r30, r24
    5790:	20 83       	st	Z, r18
	for(i=0;i<65;i++) uart1_Tx(send_buffer[i]);
    5792:	1a 82       	std	Y+2, r1	; 0x02
    5794:	19 82       	std	Y+1, r1	; 0x01
    5796:	0d c0       	rjmp	.+26     	; 0x57b2 <send_data1+0x1b6>
    5798:	89 81       	ldd	r24, Y+1	; 0x01
    579a:	9a 81       	ldd	r25, Y+2	; 0x02
    579c:	88 58       	subi	r24, 0x88	; 136
    579e:	9d 4f       	sbci	r25, 0xFD	; 253
    57a0:	fc 01       	movw	r30, r24
    57a2:	80 81       	ld	r24, Z
    57a4:	0e 94 d5 2a 	call	0x55aa	; 0x55aa <uart1_Tx>
    57a8:	89 81       	ldd	r24, Y+1	; 0x01
    57aa:	9a 81       	ldd	r25, Y+2	; 0x02
    57ac:	01 96       	adiw	r24, 0x01	; 1
    57ae:	9a 83       	std	Y+2, r25	; 0x02
    57b0:	89 83       	std	Y+1, r24	; 0x01
    57b2:	89 81       	ldd	r24, Y+1	; 0x01
    57b4:	9a 81       	ldd	r25, Y+2	; 0x02
    57b6:	81 34       	cpi	r24, 0x41	; 65
    57b8:	91 05       	cpc	r25, r1
    57ba:	70 f3       	brcs	.-36     	; 0x5798 <send_data1+0x19c>
	PORTB|=0x40;
    57bc:	88 e3       	ldi	r24, 0x38	; 56
    57be:	90 e0       	ldi	r25, 0x00	; 0
    57c0:	28 e3       	ldi	r18, 0x38	; 56
    57c2:	30 e0       	ldi	r19, 0x00	; 0
    57c4:	f9 01       	movw	r30, r18
    57c6:	20 81       	ld	r18, Z
    57c8:	20 64       	ori	r18, 0x40	; 64
    57ca:	fc 01       	movw	r30, r24
    57cc:	20 83       	st	Z, r18
	break;
    57ce:	7a c0       	rjmp	.+244    	; 0x58c4 <send_data1+0x2c8>
	
	case 3:
	send_buffer[9]=0x51;
    57d0:	81 e5       	ldi	r24, 0x51	; 81
    57d2:	80 93 81 02 	sts	0x0281, r24
	send_buffer[11]=data1;
    57d6:	8d 81       	ldd	r24, Y+5	; 0x05
    57d8:	80 93 83 02 	sts	0x0283, r24
	send_buffer[12]=data2;
    57dc:	8f 81       	ldd	r24, Y+7	; 0x07
    57de:	80 93 84 02 	sts	0x0284, r24
	send_buffer[13]=data3;
    57e2:	89 85       	ldd	r24, Y+9	; 0x09
    57e4:	80 93 85 02 	sts	0x0285, r24
	send_buffer[14]=data4;
    57e8:	8b 85       	ldd	r24, Y+11	; 0x0b
    57ea:	80 93 86 02 	sts	0x0286, r24
	send_buffer[15]=data5;
    57ee:	8d 85       	ldd	r24, Y+13	; 0x0d
    57f0:	80 93 87 02 	sts	0x0287, r24
	send_buffer[16]=data6;
    57f4:	8f 85       	ldd	r24, Y+15	; 0x0f
    57f6:	80 93 88 02 	sts	0x0288, r24
	send_buffer[17]=data7;
    57fa:	89 89       	ldd	r24, Y+17	; 0x11
    57fc:	80 93 89 02 	sts	0x0289, r24
	send_buffer[18]=data8;
    5800:	8b 89       	ldd	r24, Y+19	; 0x13
    5802:	80 93 8a 02 	sts	0x028A, r24
	send_buffer[19]=data9;
    5806:	8b a1       	ldd	r24, Y+35	; 0x23
    5808:	80 93 8b 02 	sts	0x028B, r24
	send_buffer[20]=data10;
    580c:	8d a1       	ldd	r24, Y+37	; 0x25
    580e:	80 93 8c 02 	sts	0x028C, r24
	send_buffer[21]=data11;
    5812:	8f a1       	ldd	r24, Y+39	; 0x27
    5814:	80 93 8d 02 	sts	0x028D, r24
	send_buffer[22]=data12;
    5818:	89 a5       	ldd	r24, Y+41	; 0x29
    581a:	80 93 8e 02 	sts	0x028E, r24
	PORTB&=0xBF;
    581e:	88 e3       	ldi	r24, 0x38	; 56
    5820:	90 e0       	ldi	r25, 0x00	; 0
    5822:	28 e3       	ldi	r18, 0x38	; 56
    5824:	30 e0       	ldi	r19, 0x00	; 0
    5826:	f9 01       	movw	r30, r18
    5828:	20 81       	ld	r18, Z
    582a:	2f 7b       	andi	r18, 0xBF	; 191
    582c:	fc 01       	movw	r30, r24
    582e:	20 83       	st	Z, r18
	for(i=0;i<65;i++) uart1_Tx(send_buffer[i]);
    5830:	1a 82       	std	Y+2, r1	; 0x02
    5832:	19 82       	std	Y+1, r1	; 0x01
    5834:	0d c0       	rjmp	.+26     	; 0x5850 <send_data1+0x254>
    5836:	89 81       	ldd	r24, Y+1	; 0x01
    5838:	9a 81       	ldd	r25, Y+2	; 0x02
    583a:	88 58       	subi	r24, 0x88	; 136
    583c:	9d 4f       	sbci	r25, 0xFD	; 253
    583e:	fc 01       	movw	r30, r24
    5840:	80 81       	ld	r24, Z
    5842:	0e 94 d5 2a 	call	0x55aa	; 0x55aa <uart1_Tx>
    5846:	89 81       	ldd	r24, Y+1	; 0x01
    5848:	9a 81       	ldd	r25, Y+2	; 0x02
    584a:	01 96       	adiw	r24, 0x01	; 1
    584c:	9a 83       	std	Y+2, r25	; 0x02
    584e:	89 83       	std	Y+1, r24	; 0x01
    5850:	89 81       	ldd	r24, Y+1	; 0x01
    5852:	9a 81       	ldd	r25, Y+2	; 0x02
    5854:	81 34       	cpi	r24, 0x41	; 65
    5856:	91 05       	cpc	r25, r1
    5858:	70 f3       	brcs	.-36     	; 0x5836 <send_data1+0x23a>
	PORTB|=0x40;
    585a:	88 e3       	ldi	r24, 0x38	; 56
    585c:	90 e0       	ldi	r25, 0x00	; 0
    585e:	28 e3       	ldi	r18, 0x38	; 56
    5860:	30 e0       	ldi	r19, 0x00	; 0
    5862:	f9 01       	movw	r30, r18
    5864:	20 81       	ld	r18, Z
    5866:	20 64       	ori	r18, 0x40	; 64
    5868:	fc 01       	movw	r30, r24
    586a:	20 83       	st	Z, r18
	break;
    586c:	2b c0       	rjmp	.+86     	; 0x58c4 <send_data1+0x2c8>
	
	case 4:
	send_buffer[9]=0x55;
    586e:	85 e5       	ldi	r24, 0x55	; 85
    5870:	80 93 81 02 	sts	0x0281, r24
	PORTB&=0xBF;
    5874:	88 e3       	ldi	r24, 0x38	; 56
    5876:	90 e0       	ldi	r25, 0x00	; 0
    5878:	28 e3       	ldi	r18, 0x38	; 56
    587a:	30 e0       	ldi	r19, 0x00	; 0
    587c:	f9 01       	movw	r30, r18
    587e:	20 81       	ld	r18, Z
    5880:	2f 7b       	andi	r18, 0xBF	; 191
    5882:	fc 01       	movw	r30, r24
    5884:	20 83       	st	Z, r18
	for(i=0;i<65;i++) uart1_Tx(send_buffer[i]);
    5886:	1a 82       	std	Y+2, r1	; 0x02
    5888:	19 82       	std	Y+1, r1	; 0x01
    588a:	0d c0       	rjmp	.+26     	; 0x58a6 <send_data1+0x2aa>
    588c:	89 81       	ldd	r24, Y+1	; 0x01
    588e:	9a 81       	ldd	r25, Y+2	; 0x02
    5890:	88 58       	subi	r24, 0x88	; 136
    5892:	9d 4f       	sbci	r25, 0xFD	; 253
    5894:	fc 01       	movw	r30, r24
    5896:	80 81       	ld	r24, Z
    5898:	0e 94 d5 2a 	call	0x55aa	; 0x55aa <uart1_Tx>
    589c:	89 81       	ldd	r24, Y+1	; 0x01
    589e:	9a 81       	ldd	r25, Y+2	; 0x02
    58a0:	01 96       	adiw	r24, 0x01	; 1
    58a2:	9a 83       	std	Y+2, r25	; 0x02
    58a4:	89 83       	std	Y+1, r24	; 0x01
    58a6:	89 81       	ldd	r24, Y+1	; 0x01
    58a8:	9a 81       	ldd	r25, Y+2	; 0x02
    58aa:	81 34       	cpi	r24, 0x41	; 65
    58ac:	91 05       	cpc	r25, r1
    58ae:	70 f3       	brcs	.-36     	; 0x588c <send_data1+0x290>
	PORTB|=0x40;
    58b0:	88 e3       	ldi	r24, 0x38	; 56
    58b2:	90 e0       	ldi	r25, 0x00	; 0
    58b4:	28 e3       	ldi	r18, 0x38	; 56
    58b6:	30 e0       	ldi	r19, 0x00	; 0
    58b8:	f9 01       	movw	r30, r18
    58ba:	20 81       	ld	r18, Z
    58bc:	20 64       	ori	r18, 0x40	; 64
    58be:	fc 01       	movw	r30, r24
    58c0:	20 83       	st	Z, r18
	break;
    58c2:	00 00       	nop
	
	default:
	break;
	}
	
}
    58c4:	64 96       	adiw	r28, 0x14	; 20
    58c6:	0f b6       	in	r0, 0x3f	; 63
    58c8:	f8 94       	cli
    58ca:	de bf       	out	0x3e, r29	; 62
    58cc:	0f be       	out	0x3f, r0	; 63
    58ce:	cd bf       	out	0x3d, r28	; 61
    58d0:	cf 91       	pop	r28
    58d2:	df 91       	pop	r29
    58d4:	1f 91       	pop	r17
    58d6:	0f 91       	pop	r16
    58d8:	ff 90       	pop	r15
    58da:	ef 90       	pop	r14
    58dc:	df 90       	pop	r13
    58de:	cf 90       	pop	r12
    58e0:	bf 90       	pop	r11
    58e2:	af 90       	pop	r10
    58e4:	9f 90       	pop	r9
    58e6:	8f 90       	pop	r8
    58e8:	08 95       	ret

000058ea <Reciver_process1>:

void Reciver_process1(void)
{
    58ea:	df 93       	push	r29
    58ec:	cf 93       	push	r28
    58ee:	cd b7       	in	r28, 0x3d	; 61
    58f0:	de b7       	in	r29, 0x3e	; 62
    58f2:	28 97       	sbiw	r28, 0x08	; 8
    58f4:	0f b6       	in	r0, 0x3f	; 63
    58f6:	f8 94       	cli
    58f8:	de bf       	out	0x3e, r29	; 62
    58fa:	0f be       	out	0x3f, r0	; 63
    58fc:	cd bf       	out	0x3d, r28	; 61
 unsigned int i=0,sum=0;
    58fe:	1a 82       	std	Y+2, r1	; 0x02
    5900:	19 82       	std	Y+1, r1	; 0x01
    5902:	1c 82       	std	Y+4, r1	; 0x04
    5904:	1b 82       	std	Y+3, r1	; 0x03
// unsigned int data1=0,data2=0,data3=0,data4=0,data5=0,data6=0,data7=0,data8=0,data9=0,data10=0,data11=0,data12=0;
 unsigned int getT=0,getH=0;
    5906:	1e 82       	std	Y+6, r1	; 0x06
    5908:	1d 82       	std	Y+5, r1	; 0x05
    590a:	18 86       	std	Y+8, r1	; 0x08
    590c:	1f 82       	std	Y+7, r1	; 0x07
 for(i=0;i<62;i++) sum=sum+Receive_buffer[i];
    590e:	1a 82       	std	Y+2, r1	; 0x02
    5910:	19 82       	std	Y+1, r1	; 0x01
    5912:	13 c0       	rjmp	.+38     	; 0x593a <Reciver_process1+0x50>
    5914:	89 81       	ldd	r24, Y+1	; 0x01
    5916:	9a 81       	ldd	r25, Y+2	; 0x02
    5918:	8f 59       	subi	r24, 0x9F	; 159
    591a:	9c 4f       	sbci	r25, 0xFC	; 252
    591c:	fc 01       	movw	r30, r24
    591e:	80 81       	ld	r24, Z
    5920:	88 2f       	mov	r24, r24
    5922:	90 e0       	ldi	r25, 0x00	; 0
    5924:	2b 81       	ldd	r18, Y+3	; 0x03
    5926:	3c 81       	ldd	r19, Y+4	; 0x04
    5928:	82 0f       	add	r24, r18
    592a:	93 1f       	adc	r25, r19
    592c:	9c 83       	std	Y+4, r25	; 0x04
    592e:	8b 83       	std	Y+3, r24	; 0x03
    5930:	89 81       	ldd	r24, Y+1	; 0x01
    5932:	9a 81       	ldd	r25, Y+2	; 0x02
    5934:	01 96       	adiw	r24, 0x01	; 1
    5936:	9a 83       	std	Y+2, r25	; 0x02
    5938:	89 83       	std	Y+1, r24	; 0x01
    593a:	89 81       	ldd	r24, Y+1	; 0x01
    593c:	9a 81       	ldd	r25, Y+2	; 0x02
    593e:	8e 33       	cpi	r24, 0x3E	; 62
    5940:	91 05       	cpc	r25, r1
    5942:	40 f3       	brcs	.-48     	; 0x5914 <Reciver_process1+0x2a>
 if(Receive_buffer[62]==(sum%0x100))
    5944:	80 91 9f 03 	lds	r24, 0x039F
    5948:	28 2f       	mov	r18, r24
    594a:	30 e0       	ldi	r19, 0x00	; 0
    594c:	8b 81       	ldd	r24, Y+3	; 0x03
    594e:	9c 81       	ldd	r25, Y+4	; 0x04
    5950:	90 70       	andi	r25, 0x00	; 0
    5952:	28 17       	cp	r18, r24
    5954:	39 07       	cpc	r19, r25
    5956:	09 f0       	breq	.+2      	; 0x595a <Reciver_process1+0x70>
    5958:	66 c0       	rjmp	.+204    	; 0x5a26 <Reciver_process1+0x13c>
 {
      switch(Receive_buffer[9])
    595a:	80 91 6a 03 	lds	r24, 0x036A
    595e:	88 2f       	mov	r24, r24
    5960:	90 e0       	ldi	r25, 0x00	; 0
    5962:	84 34       	cpi	r24, 0x44	; 68
    5964:	91 05       	cpc	r25, r1
    5966:	09 f4       	brne	.+2      	; 0x596a <Reciver_process1+0x80>
    5968:	59 c0       	rjmp	.+178    	; 0x5a1c <Reciver_process1+0x132>
    596a:	85 34       	cpi	r24, 0x45	; 69
    596c:	91 05       	cpc	r25, r1
    596e:	0c f0       	brlt	.+2      	; 0x5972 <Reciver_process1+0x88>
    5970:	57 c0       	rjmp	.+174    	; 0x5a20 <Reciver_process1+0x136>
    5972:	81 34       	cpi	r24, 0x41	; 65
    5974:	91 05       	cpc	r25, r1
    5976:	09 f0       	breq	.+2      	; 0x597a <Reciver_process1+0x90>
    5978:	55 c0       	rjmp	.+170    	; 0x5a24 <Reciver_process1+0x13a>
     {
         case 0x41:
		 getT=returnT();
    597a:	0e 94 60 15 	call	0x2ac0	; 0x2ac0 <returnT>
    597e:	9e 83       	std	Y+6, r25	; 0x06
    5980:	8d 83       	std	Y+5, r24	; 0x05
		 getH=returnH();
    5982:	0e 94 7f 15 	call	0x2afe	; 0x2afe <returnH>
    5986:	98 87       	std	Y+8, r25	; 0x08
    5988:	8f 83       	std	Y+7, r24	; 0x07
		 Receive_buffer[29]=getT/10000;
    598a:	8d 81       	ldd	r24, Y+5	; 0x05
    598c:	9e 81       	ldd	r25, Y+6	; 0x06
    598e:	20 e1       	ldi	r18, 0x10	; 16
    5990:	37 e2       	ldi	r19, 0x27	; 39
    5992:	b9 01       	movw	r22, r18
    5994:	0e 94 6a 30 	call	0x60d4	; 0x60d4 <__udivmodhi4>
    5998:	9b 01       	movw	r18, r22
    599a:	c9 01       	movw	r24, r18
    599c:	80 93 7e 03 	sts	0x037E, r24
		 Receive_buffer[30]=getT%10000/100;
    59a0:	8d 81       	ldd	r24, Y+5	; 0x05
    59a2:	9e 81       	ldd	r25, Y+6	; 0x06
    59a4:	20 e1       	ldi	r18, 0x10	; 16
    59a6:	37 e2       	ldi	r19, 0x27	; 39
    59a8:	b9 01       	movw	r22, r18
    59aa:	0e 94 6a 30 	call	0x60d4	; 0x60d4 <__udivmodhi4>
    59ae:	24 e6       	ldi	r18, 0x64	; 100
    59b0:	30 e0       	ldi	r19, 0x00	; 0
    59b2:	b9 01       	movw	r22, r18
    59b4:	0e 94 6a 30 	call	0x60d4	; 0x60d4 <__udivmodhi4>
    59b8:	9b 01       	movw	r18, r22
    59ba:	c9 01       	movw	r24, r18
    59bc:	80 93 7f 03 	sts	0x037F, r24
		 Receive_buffer[31]=getT%100;
    59c0:	8d 81       	ldd	r24, Y+5	; 0x05
    59c2:	9e 81       	ldd	r25, Y+6	; 0x06
    59c4:	24 e6       	ldi	r18, 0x64	; 100
    59c6:	30 e0       	ldi	r19, 0x00	; 0
    59c8:	b9 01       	movw	r22, r18
    59ca:	0e 94 6a 30 	call	0x60d4	; 0x60d4 <__udivmodhi4>
    59ce:	80 93 80 03 	sts	0x0380, r24
		 Receive_buffer[32]=getH/10000;
    59d2:	8f 81       	ldd	r24, Y+7	; 0x07
    59d4:	98 85       	ldd	r25, Y+8	; 0x08
    59d6:	20 e1       	ldi	r18, 0x10	; 16
    59d8:	37 e2       	ldi	r19, 0x27	; 39
    59da:	b9 01       	movw	r22, r18
    59dc:	0e 94 6a 30 	call	0x60d4	; 0x60d4 <__udivmodhi4>
    59e0:	9b 01       	movw	r18, r22
    59e2:	c9 01       	movw	r24, r18
    59e4:	80 93 81 03 	sts	0x0381, r24
		 Receive_buffer[33]=getH%10000/100;
    59e8:	8f 81       	ldd	r24, Y+7	; 0x07
    59ea:	98 85       	ldd	r25, Y+8	; 0x08
    59ec:	20 e1       	ldi	r18, 0x10	; 16
    59ee:	37 e2       	ldi	r19, 0x27	; 39
    59f0:	b9 01       	movw	r22, r18
    59f2:	0e 94 6a 30 	call	0x60d4	; 0x60d4 <__udivmodhi4>
    59f6:	24 e6       	ldi	r18, 0x64	; 100
    59f8:	30 e0       	ldi	r19, 0x00	; 0
    59fa:	b9 01       	movw	r22, r18
    59fc:	0e 94 6a 30 	call	0x60d4	; 0x60d4 <__udivmodhi4>
    5a00:	9b 01       	movw	r18, r22
    5a02:	c9 01       	movw	r24, r18
    5a04:	80 93 82 03 	sts	0x0382, r24
		 Receive_buffer[34]=getH%100;
    5a08:	8f 81       	ldd	r24, Y+7	; 0x07
    5a0a:	98 85       	ldd	r25, Y+8	; 0x08
    5a0c:	24 e6       	ldi	r18, 0x64	; 100
    5a0e:	30 e0       	ldi	r19, 0x00	; 0
    5a10:	b9 01       	movw	r22, r18
    5a12:	0e 94 6a 30 	call	0x60d4	; 0x60d4 <__udivmodhi4>
    5a16:	80 93 83 03 	sts	0x0383, r24
/*		 for(i=11;i<43;i++)
		 {
			 getsend(Receive_buffer[i],i);
		 }*/
		 break;
    5a1a:	05 c0       	rjmp	.+10     	; 0x5a26 <Reciver_process1+0x13c>
         case 0x44:break;
    5a1c:	00 00       	nop
    5a1e:	03 c0       	rjmp	.+6      	; 0x5a26 <Reciver_process1+0x13c>
		 case 0x51:break;
    5a20:	00 00       	nop
    5a22:	01 c0       	rjmp	.+2      	; 0x5a26 <Reciver_process1+0x13c>
         case 0x54:break;
         default: break;
    5a24:	00 00       	nop
      }
	}
}
    5a26:	28 96       	adiw	r28, 0x08	; 8
    5a28:	0f b6       	in	r0, 0x3f	; 63
    5a2a:	f8 94       	cli
    5a2c:	de bf       	out	0x3e, r29	; 62
    5a2e:	0f be       	out	0x3f, r0	; 63
    5a30:	cd bf       	out	0x3d, r28	; 61
    5a32:	cf 91       	pop	r28
    5a34:	df 91       	pop	r29
    5a36:	08 95       	ret

00005a38 <__subsf3>:
    5a38:	50 58       	subi	r21, 0x80	; 128

00005a3a <__addsf3>:
    5a3a:	bb 27       	eor	r27, r27
    5a3c:	aa 27       	eor	r26, r26
    5a3e:	0e d0       	rcall	.+28     	; 0x5a5c <__addsf3x>
    5a40:	c6 c1       	rjmp	.+908    	; 0x5dce <__fp_round>
    5a42:	b7 d1       	rcall	.+878    	; 0x5db2 <__fp_pscA>
    5a44:	30 f0       	brcs	.+12     	; 0x5a52 <__addsf3+0x18>
    5a46:	bc d1       	rcall	.+888    	; 0x5dc0 <__fp_pscB>
    5a48:	20 f0       	brcs	.+8      	; 0x5a52 <__addsf3+0x18>
    5a4a:	31 f4       	brne	.+12     	; 0x5a58 <__addsf3+0x1e>
    5a4c:	9f 3f       	cpi	r25, 0xFF	; 255
    5a4e:	11 f4       	brne	.+4      	; 0x5a54 <__addsf3+0x1a>
    5a50:	1e f4       	brtc	.+6      	; 0x5a58 <__addsf3+0x1e>
    5a52:	87 c1       	rjmp	.+782    	; 0x5d62 <__fp_nan>
    5a54:	0e f4       	brtc	.+2      	; 0x5a58 <__addsf3+0x1e>
    5a56:	e0 95       	com	r30
    5a58:	e7 fb       	bst	r30, 7
    5a5a:	7d c1       	rjmp	.+762    	; 0x5d56 <__fp_inf>

00005a5c <__addsf3x>:
    5a5c:	e9 2f       	mov	r30, r25
    5a5e:	c8 d1       	rcall	.+912    	; 0x5df0 <__fp_split3>
    5a60:	80 f3       	brcs	.-32     	; 0x5a42 <__addsf3+0x8>
    5a62:	ba 17       	cp	r27, r26
    5a64:	62 07       	cpc	r22, r18
    5a66:	73 07       	cpc	r23, r19
    5a68:	84 07       	cpc	r24, r20
    5a6a:	95 07       	cpc	r25, r21
    5a6c:	18 f0       	brcs	.+6      	; 0x5a74 <__addsf3x+0x18>
    5a6e:	71 f4       	brne	.+28     	; 0x5a8c <__addsf3x+0x30>
    5a70:	9e f5       	brtc	.+102    	; 0x5ad8 <__addsf3x+0x7c>
    5a72:	e0 c1       	rjmp	.+960    	; 0x5e34 <__fp_zero>
    5a74:	0e f4       	brtc	.+2      	; 0x5a78 <__addsf3x+0x1c>
    5a76:	e0 95       	com	r30
    5a78:	0b 2e       	mov	r0, r27
    5a7a:	ba 2f       	mov	r27, r26
    5a7c:	a0 2d       	mov	r26, r0
    5a7e:	0b 01       	movw	r0, r22
    5a80:	b9 01       	movw	r22, r18
    5a82:	90 01       	movw	r18, r0
    5a84:	0c 01       	movw	r0, r24
    5a86:	ca 01       	movw	r24, r20
    5a88:	a0 01       	movw	r20, r0
    5a8a:	11 24       	eor	r1, r1
    5a8c:	ff 27       	eor	r31, r31
    5a8e:	59 1b       	sub	r21, r25
    5a90:	99 f0       	breq	.+38     	; 0x5ab8 <__addsf3x+0x5c>
    5a92:	59 3f       	cpi	r21, 0xF9	; 249
    5a94:	50 f4       	brcc	.+20     	; 0x5aaa <__addsf3x+0x4e>
    5a96:	50 3e       	cpi	r21, 0xE0	; 224
    5a98:	68 f1       	brcs	.+90     	; 0x5af4 <__addsf3x+0x98>
    5a9a:	1a 16       	cp	r1, r26
    5a9c:	f0 40       	sbci	r31, 0x00	; 0
    5a9e:	a2 2f       	mov	r26, r18
    5aa0:	23 2f       	mov	r18, r19
    5aa2:	34 2f       	mov	r19, r20
    5aa4:	44 27       	eor	r20, r20
    5aa6:	58 5f       	subi	r21, 0xF8	; 248
    5aa8:	f3 cf       	rjmp	.-26     	; 0x5a90 <__addsf3x+0x34>
    5aaa:	46 95       	lsr	r20
    5aac:	37 95       	ror	r19
    5aae:	27 95       	ror	r18
    5ab0:	a7 95       	ror	r26
    5ab2:	f0 40       	sbci	r31, 0x00	; 0
    5ab4:	53 95       	inc	r21
    5ab6:	c9 f7       	brne	.-14     	; 0x5aaa <__addsf3x+0x4e>
    5ab8:	7e f4       	brtc	.+30     	; 0x5ad8 <__addsf3x+0x7c>
    5aba:	1f 16       	cp	r1, r31
    5abc:	ba 0b       	sbc	r27, r26
    5abe:	62 0b       	sbc	r22, r18
    5ac0:	73 0b       	sbc	r23, r19
    5ac2:	84 0b       	sbc	r24, r20
    5ac4:	ba f0       	brmi	.+46     	; 0x5af4 <__addsf3x+0x98>
    5ac6:	91 50       	subi	r25, 0x01	; 1
    5ac8:	a1 f0       	breq	.+40     	; 0x5af2 <__addsf3x+0x96>
    5aca:	ff 0f       	add	r31, r31
    5acc:	bb 1f       	adc	r27, r27
    5ace:	66 1f       	adc	r22, r22
    5ad0:	77 1f       	adc	r23, r23
    5ad2:	88 1f       	adc	r24, r24
    5ad4:	c2 f7       	brpl	.-16     	; 0x5ac6 <__addsf3x+0x6a>
    5ad6:	0e c0       	rjmp	.+28     	; 0x5af4 <__addsf3x+0x98>
    5ad8:	ba 0f       	add	r27, r26
    5ada:	62 1f       	adc	r22, r18
    5adc:	73 1f       	adc	r23, r19
    5ade:	84 1f       	adc	r24, r20
    5ae0:	48 f4       	brcc	.+18     	; 0x5af4 <__addsf3x+0x98>
    5ae2:	87 95       	ror	r24
    5ae4:	77 95       	ror	r23
    5ae6:	67 95       	ror	r22
    5ae8:	b7 95       	ror	r27
    5aea:	f7 95       	ror	r31
    5aec:	9e 3f       	cpi	r25, 0xFE	; 254
    5aee:	08 f0       	brcs	.+2      	; 0x5af2 <__addsf3x+0x96>
    5af0:	b3 cf       	rjmp	.-154    	; 0x5a58 <__addsf3+0x1e>
    5af2:	93 95       	inc	r25
    5af4:	88 0f       	add	r24, r24
    5af6:	08 f0       	brcs	.+2      	; 0x5afa <__addsf3x+0x9e>
    5af8:	99 27       	eor	r25, r25
    5afa:	ee 0f       	add	r30, r30
    5afc:	97 95       	ror	r25
    5afe:	87 95       	ror	r24
    5b00:	08 95       	ret

00005b02 <__cmpsf2>:
    5b02:	05 d1       	rcall	.+522    	; 0x5d0e <__fp_cmp>
    5b04:	08 f4       	brcc	.+2      	; 0x5b08 <__cmpsf2+0x6>
    5b06:	81 e0       	ldi	r24, 0x01	; 1
    5b08:	08 95       	ret

00005b0a <__divsf3>:
    5b0a:	0c d0       	rcall	.+24     	; 0x5b24 <__divsf3x>
    5b0c:	60 c1       	rjmp	.+704    	; 0x5dce <__fp_round>
    5b0e:	58 d1       	rcall	.+688    	; 0x5dc0 <__fp_pscB>
    5b10:	40 f0       	brcs	.+16     	; 0x5b22 <__divsf3+0x18>
    5b12:	4f d1       	rcall	.+670    	; 0x5db2 <__fp_pscA>
    5b14:	30 f0       	brcs	.+12     	; 0x5b22 <__divsf3+0x18>
    5b16:	21 f4       	brne	.+8      	; 0x5b20 <__divsf3+0x16>
    5b18:	5f 3f       	cpi	r21, 0xFF	; 255
    5b1a:	19 f0       	breq	.+6      	; 0x5b22 <__divsf3+0x18>
    5b1c:	1c c1       	rjmp	.+568    	; 0x5d56 <__fp_inf>
    5b1e:	51 11       	cpse	r21, r1
    5b20:	8a c1       	rjmp	.+788    	; 0x5e36 <__fp_szero>
    5b22:	1f c1       	rjmp	.+574    	; 0x5d62 <__fp_nan>

00005b24 <__divsf3x>:
    5b24:	65 d1       	rcall	.+714    	; 0x5df0 <__fp_split3>
    5b26:	98 f3       	brcs	.-26     	; 0x5b0e <__divsf3+0x4>

00005b28 <__divsf3_pse>:
    5b28:	99 23       	and	r25, r25
    5b2a:	c9 f3       	breq	.-14     	; 0x5b1e <__divsf3+0x14>
    5b2c:	55 23       	and	r21, r21
    5b2e:	b1 f3       	breq	.-20     	; 0x5b1c <__divsf3+0x12>
    5b30:	95 1b       	sub	r25, r21
    5b32:	55 0b       	sbc	r21, r21
    5b34:	bb 27       	eor	r27, r27
    5b36:	aa 27       	eor	r26, r26
    5b38:	62 17       	cp	r22, r18
    5b3a:	73 07       	cpc	r23, r19
    5b3c:	84 07       	cpc	r24, r20
    5b3e:	38 f0       	brcs	.+14     	; 0x5b4e <__divsf3_pse+0x26>
    5b40:	9f 5f       	subi	r25, 0xFF	; 255
    5b42:	5f 4f       	sbci	r21, 0xFF	; 255
    5b44:	22 0f       	add	r18, r18
    5b46:	33 1f       	adc	r19, r19
    5b48:	44 1f       	adc	r20, r20
    5b4a:	aa 1f       	adc	r26, r26
    5b4c:	a9 f3       	breq	.-22     	; 0x5b38 <__divsf3_pse+0x10>
    5b4e:	33 d0       	rcall	.+102    	; 0x5bb6 <__divsf3_pse+0x8e>
    5b50:	0e 2e       	mov	r0, r30
    5b52:	3a f0       	brmi	.+14     	; 0x5b62 <__divsf3_pse+0x3a>
    5b54:	e0 e8       	ldi	r30, 0x80	; 128
    5b56:	30 d0       	rcall	.+96     	; 0x5bb8 <__divsf3_pse+0x90>
    5b58:	91 50       	subi	r25, 0x01	; 1
    5b5a:	50 40       	sbci	r21, 0x00	; 0
    5b5c:	e6 95       	lsr	r30
    5b5e:	00 1c       	adc	r0, r0
    5b60:	ca f7       	brpl	.-14     	; 0x5b54 <__divsf3_pse+0x2c>
    5b62:	29 d0       	rcall	.+82     	; 0x5bb6 <__divsf3_pse+0x8e>
    5b64:	fe 2f       	mov	r31, r30
    5b66:	27 d0       	rcall	.+78     	; 0x5bb6 <__divsf3_pse+0x8e>
    5b68:	66 0f       	add	r22, r22
    5b6a:	77 1f       	adc	r23, r23
    5b6c:	88 1f       	adc	r24, r24
    5b6e:	bb 1f       	adc	r27, r27
    5b70:	26 17       	cp	r18, r22
    5b72:	37 07       	cpc	r19, r23
    5b74:	48 07       	cpc	r20, r24
    5b76:	ab 07       	cpc	r26, r27
    5b78:	b0 e8       	ldi	r27, 0x80	; 128
    5b7a:	09 f0       	breq	.+2      	; 0x5b7e <__divsf3_pse+0x56>
    5b7c:	bb 0b       	sbc	r27, r27
    5b7e:	80 2d       	mov	r24, r0
    5b80:	bf 01       	movw	r22, r30
    5b82:	ff 27       	eor	r31, r31
    5b84:	93 58       	subi	r25, 0x83	; 131
    5b86:	5f 4f       	sbci	r21, 0xFF	; 255
    5b88:	2a f0       	brmi	.+10     	; 0x5b94 <__divsf3_pse+0x6c>
    5b8a:	9e 3f       	cpi	r25, 0xFE	; 254
    5b8c:	51 05       	cpc	r21, r1
    5b8e:	68 f0       	brcs	.+26     	; 0x5baa <__divsf3_pse+0x82>
    5b90:	e2 c0       	rjmp	.+452    	; 0x5d56 <__fp_inf>
    5b92:	51 c1       	rjmp	.+674    	; 0x5e36 <__fp_szero>
    5b94:	5f 3f       	cpi	r21, 0xFF	; 255
    5b96:	ec f3       	brlt	.-6      	; 0x5b92 <__divsf3_pse+0x6a>
    5b98:	98 3e       	cpi	r25, 0xE8	; 232
    5b9a:	dc f3       	brlt	.-10     	; 0x5b92 <__divsf3_pse+0x6a>
    5b9c:	86 95       	lsr	r24
    5b9e:	77 95       	ror	r23
    5ba0:	67 95       	ror	r22
    5ba2:	b7 95       	ror	r27
    5ba4:	f7 95       	ror	r31
    5ba6:	9f 5f       	subi	r25, 0xFF	; 255
    5ba8:	c9 f7       	brne	.-14     	; 0x5b9c <__divsf3_pse+0x74>
    5baa:	88 0f       	add	r24, r24
    5bac:	91 1d       	adc	r25, r1
    5bae:	96 95       	lsr	r25
    5bb0:	87 95       	ror	r24
    5bb2:	97 f9       	bld	r25, 7
    5bb4:	08 95       	ret
    5bb6:	e1 e0       	ldi	r30, 0x01	; 1
    5bb8:	66 0f       	add	r22, r22
    5bba:	77 1f       	adc	r23, r23
    5bbc:	88 1f       	adc	r24, r24
    5bbe:	bb 1f       	adc	r27, r27
    5bc0:	62 17       	cp	r22, r18
    5bc2:	73 07       	cpc	r23, r19
    5bc4:	84 07       	cpc	r24, r20
    5bc6:	ba 07       	cpc	r27, r26
    5bc8:	20 f0       	brcs	.+8      	; 0x5bd2 <__divsf3_pse+0xaa>
    5bca:	62 1b       	sub	r22, r18
    5bcc:	73 0b       	sbc	r23, r19
    5bce:	84 0b       	sbc	r24, r20
    5bd0:	ba 0b       	sbc	r27, r26
    5bd2:	ee 1f       	adc	r30, r30
    5bd4:	88 f7       	brcc	.-30     	; 0x5bb8 <__divsf3_pse+0x90>
    5bd6:	e0 95       	com	r30
    5bd8:	08 95       	ret
    5bda:	19 f4       	brne	.+6      	; 0x5be2 <__divsf3_pse+0xba>
    5bdc:	0e f0       	brts	.+2      	; 0x5be0 <__divsf3_pse+0xb8>
    5bde:	bb c0       	rjmp	.+374    	; 0x5d56 <__fp_inf>
    5be0:	29 c1       	rjmp	.+594    	; 0x5e34 <__fp_zero>
    5be2:	bf c0       	rjmp	.+382    	; 0x5d62 <__fp_nan>

00005be4 <exp>:
    5be4:	0d d1       	rcall	.+538    	; 0x5e00 <__fp_splitA>
    5be6:	c8 f3       	brcs	.-14     	; 0x5bda <__divsf3_pse+0xb2>
    5be8:	96 38       	cpi	r25, 0x86	; 134
    5bea:	c0 f7       	brcc	.-16     	; 0x5bdc <__divsf3_pse+0xb4>
    5bec:	07 f8       	bld	r0, 7
    5bee:	0f 92       	push	r0
    5bf0:	e8 94       	clt
    5bf2:	2b e3       	ldi	r18, 0x3B	; 59
    5bf4:	3a ea       	ldi	r19, 0xAA	; 170
    5bf6:	48 eb       	ldi	r20, 0xB8	; 184
    5bf8:	5f e7       	ldi	r21, 0x7F	; 127
    5bfa:	ea d1       	rcall	.+980    	; 0x5fd0 <__mulsf3_pse>
    5bfc:	0f 92       	push	r0
    5bfe:	0f 92       	push	r0
    5c00:	0f 92       	push	r0
    5c02:	4d b7       	in	r20, 0x3d	; 61
    5c04:	5e b7       	in	r21, 0x3e	; 62
    5c06:	0f 92       	push	r0
    5c08:	a2 d1       	rcall	.+836    	; 0x5f4e <modf>
    5c0a:	ec e8       	ldi	r30, 0x8C	; 140
    5c0c:	f0 e0       	ldi	r31, 0x00	; 0
    5c0e:	ac d0       	rcall	.+344    	; 0x5d68 <__fp_powser>
    5c10:	4f 91       	pop	r20
    5c12:	5f 91       	pop	r21
    5c14:	ef 91       	pop	r30
    5c16:	ff 91       	pop	r31
    5c18:	e5 95       	asr	r30
    5c1a:	ee 1f       	adc	r30, r30
    5c1c:	ff 1f       	adc	r31, r31
    5c1e:	49 f0       	breq	.+18     	; 0x5c32 <exp+0x4e>
    5c20:	fe 57       	subi	r31, 0x7E	; 126
    5c22:	e0 68       	ori	r30, 0x80	; 128
    5c24:	44 27       	eor	r20, r20
    5c26:	ee 0f       	add	r30, r30
    5c28:	44 1f       	adc	r20, r20
    5c2a:	fa 95       	dec	r31
    5c2c:	e1 f7       	brne	.-8      	; 0x5c26 <exp+0x42>
    5c2e:	41 95       	neg	r20
    5c30:	55 0b       	sbc	r21, r21
    5c32:	14 d1       	rcall	.+552    	; 0x5e5c <ldexp>
    5c34:	0f 90       	pop	r0
    5c36:	07 fe       	sbrs	r0, 7
    5c38:	08 c1       	rjmp	.+528    	; 0x5e4a <inverse>
    5c3a:	08 95       	ret

00005c3c <__fixunssfsi>:
    5c3c:	e1 d0       	rcall	.+450    	; 0x5e00 <__fp_splitA>
    5c3e:	88 f0       	brcs	.+34     	; 0x5c62 <__fixunssfsi+0x26>
    5c40:	9f 57       	subi	r25, 0x7F	; 127
    5c42:	90 f0       	brcs	.+36     	; 0x5c68 <__fixunssfsi+0x2c>
    5c44:	b9 2f       	mov	r27, r25
    5c46:	99 27       	eor	r25, r25
    5c48:	b7 51       	subi	r27, 0x17	; 23
    5c4a:	a0 f0       	brcs	.+40     	; 0x5c74 <__fixunssfsi+0x38>
    5c4c:	d1 f0       	breq	.+52     	; 0x5c82 <__fixunssfsi+0x46>
    5c4e:	66 0f       	add	r22, r22
    5c50:	77 1f       	adc	r23, r23
    5c52:	88 1f       	adc	r24, r24
    5c54:	99 1f       	adc	r25, r25
    5c56:	1a f0       	brmi	.+6      	; 0x5c5e <__fixunssfsi+0x22>
    5c58:	ba 95       	dec	r27
    5c5a:	c9 f7       	brne	.-14     	; 0x5c4e <__fixunssfsi+0x12>
    5c5c:	12 c0       	rjmp	.+36     	; 0x5c82 <__fixunssfsi+0x46>
    5c5e:	b1 30       	cpi	r27, 0x01	; 1
    5c60:	81 f0       	breq	.+32     	; 0x5c82 <__fixunssfsi+0x46>
    5c62:	e8 d0       	rcall	.+464    	; 0x5e34 <__fp_zero>
    5c64:	b1 e0       	ldi	r27, 0x01	; 1
    5c66:	08 95       	ret
    5c68:	e5 c0       	rjmp	.+458    	; 0x5e34 <__fp_zero>
    5c6a:	67 2f       	mov	r22, r23
    5c6c:	78 2f       	mov	r23, r24
    5c6e:	88 27       	eor	r24, r24
    5c70:	b8 5f       	subi	r27, 0xF8	; 248
    5c72:	39 f0       	breq	.+14     	; 0x5c82 <__fixunssfsi+0x46>
    5c74:	b9 3f       	cpi	r27, 0xF9	; 249
    5c76:	cc f3       	brlt	.-14     	; 0x5c6a <__fixunssfsi+0x2e>
    5c78:	86 95       	lsr	r24
    5c7a:	77 95       	ror	r23
    5c7c:	67 95       	ror	r22
    5c7e:	b3 95       	inc	r27
    5c80:	d9 f7       	brne	.-10     	; 0x5c78 <__fixunssfsi+0x3c>
    5c82:	3e f4       	brtc	.+14     	; 0x5c92 <__fixunssfsi+0x56>
    5c84:	90 95       	com	r25
    5c86:	80 95       	com	r24
    5c88:	70 95       	com	r23
    5c8a:	61 95       	neg	r22
    5c8c:	7f 4f       	sbci	r23, 0xFF	; 255
    5c8e:	8f 4f       	sbci	r24, 0xFF	; 255
    5c90:	9f 4f       	sbci	r25, 0xFF	; 255
    5c92:	08 95       	ret

00005c94 <__floatunsisf>:
    5c94:	e8 94       	clt
    5c96:	09 c0       	rjmp	.+18     	; 0x5caa <__floatsisf+0x12>

00005c98 <__floatsisf>:
    5c98:	97 fb       	bst	r25, 7
    5c9a:	3e f4       	brtc	.+14     	; 0x5caa <__floatsisf+0x12>
    5c9c:	90 95       	com	r25
    5c9e:	80 95       	com	r24
    5ca0:	70 95       	com	r23
    5ca2:	61 95       	neg	r22
    5ca4:	7f 4f       	sbci	r23, 0xFF	; 255
    5ca6:	8f 4f       	sbci	r24, 0xFF	; 255
    5ca8:	9f 4f       	sbci	r25, 0xFF	; 255
    5caa:	99 23       	and	r25, r25
    5cac:	a9 f0       	breq	.+42     	; 0x5cd8 <__floatsisf+0x40>
    5cae:	f9 2f       	mov	r31, r25
    5cb0:	96 e9       	ldi	r25, 0x96	; 150
    5cb2:	bb 27       	eor	r27, r27
    5cb4:	93 95       	inc	r25
    5cb6:	f6 95       	lsr	r31
    5cb8:	87 95       	ror	r24
    5cba:	77 95       	ror	r23
    5cbc:	67 95       	ror	r22
    5cbe:	b7 95       	ror	r27
    5cc0:	f1 11       	cpse	r31, r1
    5cc2:	f8 cf       	rjmp	.-16     	; 0x5cb4 <__floatsisf+0x1c>
    5cc4:	fa f4       	brpl	.+62     	; 0x5d04 <__floatsisf+0x6c>
    5cc6:	bb 0f       	add	r27, r27
    5cc8:	11 f4       	brne	.+4      	; 0x5cce <__floatsisf+0x36>
    5cca:	60 ff       	sbrs	r22, 0
    5ccc:	1b c0       	rjmp	.+54     	; 0x5d04 <__floatsisf+0x6c>
    5cce:	6f 5f       	subi	r22, 0xFF	; 255
    5cd0:	7f 4f       	sbci	r23, 0xFF	; 255
    5cd2:	8f 4f       	sbci	r24, 0xFF	; 255
    5cd4:	9f 4f       	sbci	r25, 0xFF	; 255
    5cd6:	16 c0       	rjmp	.+44     	; 0x5d04 <__floatsisf+0x6c>
    5cd8:	88 23       	and	r24, r24
    5cda:	11 f0       	breq	.+4      	; 0x5ce0 <__floatsisf+0x48>
    5cdc:	96 e9       	ldi	r25, 0x96	; 150
    5cde:	11 c0       	rjmp	.+34     	; 0x5d02 <__floatsisf+0x6a>
    5ce0:	77 23       	and	r23, r23
    5ce2:	21 f0       	breq	.+8      	; 0x5cec <__floatsisf+0x54>
    5ce4:	9e e8       	ldi	r25, 0x8E	; 142
    5ce6:	87 2f       	mov	r24, r23
    5ce8:	76 2f       	mov	r23, r22
    5cea:	05 c0       	rjmp	.+10     	; 0x5cf6 <__floatsisf+0x5e>
    5cec:	66 23       	and	r22, r22
    5cee:	71 f0       	breq	.+28     	; 0x5d0c <__floatsisf+0x74>
    5cf0:	96 e8       	ldi	r25, 0x86	; 134
    5cf2:	86 2f       	mov	r24, r22
    5cf4:	70 e0       	ldi	r23, 0x00	; 0
    5cf6:	60 e0       	ldi	r22, 0x00	; 0
    5cf8:	2a f0       	brmi	.+10     	; 0x5d04 <__floatsisf+0x6c>
    5cfa:	9a 95       	dec	r25
    5cfc:	66 0f       	add	r22, r22
    5cfe:	77 1f       	adc	r23, r23
    5d00:	88 1f       	adc	r24, r24
    5d02:	da f7       	brpl	.-10     	; 0x5cfa <__floatsisf+0x62>
    5d04:	88 0f       	add	r24, r24
    5d06:	96 95       	lsr	r25
    5d08:	87 95       	ror	r24
    5d0a:	97 f9       	bld	r25, 7
    5d0c:	08 95       	ret

00005d0e <__fp_cmp>:
    5d0e:	99 0f       	add	r25, r25
    5d10:	00 08       	sbc	r0, r0
    5d12:	55 0f       	add	r21, r21
    5d14:	aa 0b       	sbc	r26, r26
    5d16:	e0 e8       	ldi	r30, 0x80	; 128
    5d18:	fe ef       	ldi	r31, 0xFE	; 254
    5d1a:	16 16       	cp	r1, r22
    5d1c:	17 06       	cpc	r1, r23
    5d1e:	e8 07       	cpc	r30, r24
    5d20:	f9 07       	cpc	r31, r25
    5d22:	c0 f0       	brcs	.+48     	; 0x5d54 <__fp_cmp+0x46>
    5d24:	12 16       	cp	r1, r18
    5d26:	13 06       	cpc	r1, r19
    5d28:	e4 07       	cpc	r30, r20
    5d2a:	f5 07       	cpc	r31, r21
    5d2c:	98 f0       	brcs	.+38     	; 0x5d54 <__fp_cmp+0x46>
    5d2e:	62 1b       	sub	r22, r18
    5d30:	73 0b       	sbc	r23, r19
    5d32:	84 0b       	sbc	r24, r20
    5d34:	95 0b       	sbc	r25, r21
    5d36:	39 f4       	brne	.+14     	; 0x5d46 <__fp_cmp+0x38>
    5d38:	0a 26       	eor	r0, r26
    5d3a:	61 f0       	breq	.+24     	; 0x5d54 <__fp_cmp+0x46>
    5d3c:	23 2b       	or	r18, r19
    5d3e:	24 2b       	or	r18, r20
    5d40:	25 2b       	or	r18, r21
    5d42:	21 f4       	brne	.+8      	; 0x5d4c <__fp_cmp+0x3e>
    5d44:	08 95       	ret
    5d46:	0a 26       	eor	r0, r26
    5d48:	09 f4       	brne	.+2      	; 0x5d4c <__fp_cmp+0x3e>
    5d4a:	a1 40       	sbci	r26, 0x01	; 1
    5d4c:	a6 95       	lsr	r26
    5d4e:	8f ef       	ldi	r24, 0xFF	; 255
    5d50:	81 1d       	adc	r24, r1
    5d52:	81 1d       	adc	r24, r1
    5d54:	08 95       	ret

00005d56 <__fp_inf>:
    5d56:	97 f9       	bld	r25, 7
    5d58:	9f 67       	ori	r25, 0x7F	; 127
    5d5a:	80 e8       	ldi	r24, 0x80	; 128
    5d5c:	70 e0       	ldi	r23, 0x00	; 0
    5d5e:	60 e0       	ldi	r22, 0x00	; 0
    5d60:	08 95       	ret

00005d62 <__fp_nan>:
    5d62:	9f ef       	ldi	r25, 0xFF	; 255
    5d64:	80 ec       	ldi	r24, 0xC0	; 192
    5d66:	08 95       	ret

00005d68 <__fp_powser>:
    5d68:	df 93       	push	r29
    5d6a:	cf 93       	push	r28
    5d6c:	1f 93       	push	r17
    5d6e:	0f 93       	push	r16
    5d70:	ff 92       	push	r15
    5d72:	ef 92       	push	r14
    5d74:	df 92       	push	r13
    5d76:	7b 01       	movw	r14, r22
    5d78:	8c 01       	movw	r16, r24
    5d7a:	68 94       	set
    5d7c:	05 c0       	rjmp	.+10     	; 0x5d88 <__fp_powser+0x20>
    5d7e:	da 2e       	mov	r13, r26
    5d80:	ef 01       	movw	r28, r30
    5d82:	24 d1       	rcall	.+584    	; 0x5fcc <__mulsf3x>
    5d84:	fe 01       	movw	r30, r28
    5d86:	e8 94       	clt
    5d88:	a5 91       	lpm	r26, Z+
    5d8a:	25 91       	lpm	r18, Z+
    5d8c:	35 91       	lpm	r19, Z+
    5d8e:	45 91       	lpm	r20, Z+
    5d90:	55 91       	lpm	r21, Z+
    5d92:	ae f3       	brts	.-22     	; 0x5d7e <__fp_powser+0x16>
    5d94:	ef 01       	movw	r28, r30
    5d96:	62 de       	rcall	.-828    	; 0x5a5c <__addsf3x>
    5d98:	fe 01       	movw	r30, r28
    5d9a:	97 01       	movw	r18, r14
    5d9c:	a8 01       	movw	r20, r16
    5d9e:	da 94       	dec	r13
    5da0:	79 f7       	brne	.-34     	; 0x5d80 <__fp_powser+0x18>
    5da2:	df 90       	pop	r13
    5da4:	ef 90       	pop	r14
    5da6:	ff 90       	pop	r15
    5da8:	0f 91       	pop	r16
    5daa:	1f 91       	pop	r17
    5dac:	cf 91       	pop	r28
    5dae:	df 91       	pop	r29
    5db0:	08 95       	ret

00005db2 <__fp_pscA>:
    5db2:	00 24       	eor	r0, r0
    5db4:	0a 94       	dec	r0
    5db6:	16 16       	cp	r1, r22
    5db8:	17 06       	cpc	r1, r23
    5dba:	18 06       	cpc	r1, r24
    5dbc:	09 06       	cpc	r0, r25
    5dbe:	08 95       	ret

00005dc0 <__fp_pscB>:
    5dc0:	00 24       	eor	r0, r0
    5dc2:	0a 94       	dec	r0
    5dc4:	12 16       	cp	r1, r18
    5dc6:	13 06       	cpc	r1, r19
    5dc8:	14 06       	cpc	r1, r20
    5dca:	05 06       	cpc	r0, r21
    5dcc:	08 95       	ret

00005dce <__fp_round>:
    5dce:	09 2e       	mov	r0, r25
    5dd0:	03 94       	inc	r0
    5dd2:	00 0c       	add	r0, r0
    5dd4:	11 f4       	brne	.+4      	; 0x5dda <__fp_round+0xc>
    5dd6:	88 23       	and	r24, r24
    5dd8:	52 f0       	brmi	.+20     	; 0x5dee <__fp_round+0x20>
    5dda:	bb 0f       	add	r27, r27
    5ddc:	40 f4       	brcc	.+16     	; 0x5dee <__fp_round+0x20>
    5dde:	bf 2b       	or	r27, r31
    5de0:	11 f4       	brne	.+4      	; 0x5de6 <__fp_round+0x18>
    5de2:	60 ff       	sbrs	r22, 0
    5de4:	04 c0       	rjmp	.+8      	; 0x5dee <__fp_round+0x20>
    5de6:	6f 5f       	subi	r22, 0xFF	; 255
    5de8:	7f 4f       	sbci	r23, 0xFF	; 255
    5dea:	8f 4f       	sbci	r24, 0xFF	; 255
    5dec:	9f 4f       	sbci	r25, 0xFF	; 255
    5dee:	08 95       	ret

00005df0 <__fp_split3>:
    5df0:	57 fd       	sbrc	r21, 7
    5df2:	90 58       	subi	r25, 0x80	; 128
    5df4:	44 0f       	add	r20, r20
    5df6:	55 1f       	adc	r21, r21
    5df8:	59 f0       	breq	.+22     	; 0x5e10 <__fp_splitA+0x10>
    5dfa:	5f 3f       	cpi	r21, 0xFF	; 255
    5dfc:	71 f0       	breq	.+28     	; 0x5e1a <__fp_splitA+0x1a>
    5dfe:	47 95       	ror	r20

00005e00 <__fp_splitA>:
    5e00:	88 0f       	add	r24, r24
    5e02:	97 fb       	bst	r25, 7
    5e04:	99 1f       	adc	r25, r25
    5e06:	61 f0       	breq	.+24     	; 0x5e20 <__fp_splitA+0x20>
    5e08:	9f 3f       	cpi	r25, 0xFF	; 255
    5e0a:	79 f0       	breq	.+30     	; 0x5e2a <__fp_splitA+0x2a>
    5e0c:	87 95       	ror	r24
    5e0e:	08 95       	ret
    5e10:	12 16       	cp	r1, r18
    5e12:	13 06       	cpc	r1, r19
    5e14:	14 06       	cpc	r1, r20
    5e16:	55 1f       	adc	r21, r21
    5e18:	f2 cf       	rjmp	.-28     	; 0x5dfe <__fp_split3+0xe>
    5e1a:	46 95       	lsr	r20
    5e1c:	f1 df       	rcall	.-30     	; 0x5e00 <__fp_splitA>
    5e1e:	08 c0       	rjmp	.+16     	; 0x5e30 <__fp_splitA+0x30>
    5e20:	16 16       	cp	r1, r22
    5e22:	17 06       	cpc	r1, r23
    5e24:	18 06       	cpc	r1, r24
    5e26:	99 1f       	adc	r25, r25
    5e28:	f1 cf       	rjmp	.-30     	; 0x5e0c <__fp_splitA+0xc>
    5e2a:	86 95       	lsr	r24
    5e2c:	71 05       	cpc	r23, r1
    5e2e:	61 05       	cpc	r22, r1
    5e30:	08 94       	sec
    5e32:	08 95       	ret

00005e34 <__fp_zero>:
    5e34:	e8 94       	clt

00005e36 <__fp_szero>:
    5e36:	bb 27       	eor	r27, r27
    5e38:	66 27       	eor	r22, r22
    5e3a:	77 27       	eor	r23, r23
    5e3c:	cb 01       	movw	r24, r22
    5e3e:	97 f9       	bld	r25, 7
    5e40:	08 95       	ret

00005e42 <__gesf2>:
    5e42:	65 df       	rcall	.-310    	; 0x5d0e <__fp_cmp>
    5e44:	08 f4       	brcc	.+2      	; 0x5e48 <__gesf2+0x6>
    5e46:	8f ef       	ldi	r24, 0xFF	; 255
    5e48:	08 95       	ret

00005e4a <inverse>:
    5e4a:	9b 01       	movw	r18, r22
    5e4c:	ac 01       	movw	r20, r24
    5e4e:	60 e0       	ldi	r22, 0x00	; 0
    5e50:	70 e0       	ldi	r23, 0x00	; 0
    5e52:	80 e8       	ldi	r24, 0x80	; 128
    5e54:	9f e3       	ldi	r25, 0x3F	; 63
    5e56:	59 ce       	rjmp	.-846    	; 0x5b0a <__divsf3>
    5e58:	7e cf       	rjmp	.-260    	; 0x5d56 <__fp_inf>
    5e5a:	0f c1       	rjmp	.+542    	; 0x607a <__fp_mpack>

00005e5c <ldexp>:
    5e5c:	d1 df       	rcall	.-94     	; 0x5e00 <__fp_splitA>
    5e5e:	e8 f3       	brcs	.-6      	; 0x5e5a <inverse+0x10>
    5e60:	99 23       	and	r25, r25
    5e62:	d9 f3       	breq	.-10     	; 0x5e5a <inverse+0x10>
    5e64:	94 0f       	add	r25, r20
    5e66:	51 1d       	adc	r21, r1
    5e68:	bb f3       	brvs	.-18     	; 0x5e58 <inverse+0xe>
    5e6a:	91 50       	subi	r25, 0x01	; 1
    5e6c:	50 40       	sbci	r21, 0x00	; 0
    5e6e:	94 f0       	brlt	.+36     	; 0x5e94 <ldexp+0x38>
    5e70:	59 f0       	breq	.+22     	; 0x5e88 <ldexp+0x2c>
    5e72:	88 23       	and	r24, r24
    5e74:	32 f0       	brmi	.+12     	; 0x5e82 <ldexp+0x26>
    5e76:	66 0f       	add	r22, r22
    5e78:	77 1f       	adc	r23, r23
    5e7a:	88 1f       	adc	r24, r24
    5e7c:	91 50       	subi	r25, 0x01	; 1
    5e7e:	50 40       	sbci	r21, 0x00	; 0
    5e80:	c1 f7       	brne	.-16     	; 0x5e72 <ldexp+0x16>
    5e82:	9e 3f       	cpi	r25, 0xFE	; 254
    5e84:	51 05       	cpc	r21, r1
    5e86:	44 f7       	brge	.-48     	; 0x5e58 <inverse+0xe>
    5e88:	88 0f       	add	r24, r24
    5e8a:	91 1d       	adc	r25, r1
    5e8c:	96 95       	lsr	r25
    5e8e:	87 95       	ror	r24
    5e90:	97 f9       	bld	r25, 7
    5e92:	08 95       	ret
    5e94:	5f 3f       	cpi	r21, 0xFF	; 255
    5e96:	ac f0       	brlt	.+42     	; 0x5ec2 <ldexp+0x66>
    5e98:	98 3e       	cpi	r25, 0xE8	; 232
    5e9a:	9c f0       	brlt	.+38     	; 0x5ec2 <ldexp+0x66>
    5e9c:	bb 27       	eor	r27, r27
    5e9e:	86 95       	lsr	r24
    5ea0:	77 95       	ror	r23
    5ea2:	67 95       	ror	r22
    5ea4:	b7 95       	ror	r27
    5ea6:	08 f4       	brcc	.+2      	; 0x5eaa <ldexp+0x4e>
    5ea8:	b1 60       	ori	r27, 0x01	; 1
    5eaa:	93 95       	inc	r25
    5eac:	c1 f7       	brne	.-16     	; 0x5e9e <ldexp+0x42>
    5eae:	bb 0f       	add	r27, r27
    5eb0:	58 f7       	brcc	.-42     	; 0x5e88 <ldexp+0x2c>
    5eb2:	11 f4       	brne	.+4      	; 0x5eb8 <ldexp+0x5c>
    5eb4:	60 ff       	sbrs	r22, 0
    5eb6:	e8 cf       	rjmp	.-48     	; 0x5e88 <ldexp+0x2c>
    5eb8:	6f 5f       	subi	r22, 0xFF	; 255
    5eba:	7f 4f       	sbci	r23, 0xFF	; 255
    5ebc:	8f 4f       	sbci	r24, 0xFF	; 255
    5ebe:	9f 4f       	sbci	r25, 0xFF	; 255
    5ec0:	e3 cf       	rjmp	.-58     	; 0x5e88 <ldexp+0x2c>
    5ec2:	b9 cf       	rjmp	.-142    	; 0x5e36 <__fp_szero>
    5ec4:	0e f0       	brts	.+2      	; 0x5ec8 <ldexp+0x6c>
    5ec6:	d9 c0       	rjmp	.+434    	; 0x607a <__fp_mpack>
    5ec8:	4c cf       	rjmp	.-360    	; 0x5d62 <__fp_nan>
    5eca:	68 94       	set
    5ecc:	44 cf       	rjmp	.-376    	; 0x5d56 <__fp_inf>

00005ece <log>:
    5ece:	98 df       	rcall	.-208    	; 0x5e00 <__fp_splitA>
    5ed0:	c8 f3       	brcs	.-14     	; 0x5ec4 <ldexp+0x68>
    5ed2:	99 23       	and	r25, r25
    5ed4:	d1 f3       	breq	.-12     	; 0x5eca <ldexp+0x6e>
    5ed6:	c6 f3       	brts	.-16     	; 0x5ec8 <ldexp+0x6c>
    5ed8:	df 93       	push	r29
    5eda:	cf 93       	push	r28
    5edc:	1f 93       	push	r17
    5ede:	0f 93       	push	r16
    5ee0:	ff 92       	push	r15
    5ee2:	c9 2f       	mov	r28, r25
    5ee4:	dd 27       	eor	r29, r29
    5ee6:	88 23       	and	r24, r24
    5ee8:	2a f0       	brmi	.+10     	; 0x5ef4 <log+0x26>
    5eea:	21 97       	sbiw	r28, 0x01	; 1
    5eec:	66 0f       	add	r22, r22
    5eee:	77 1f       	adc	r23, r23
    5ef0:	88 1f       	adc	r24, r24
    5ef2:	da f7       	brpl	.-10     	; 0x5eea <log+0x1c>
    5ef4:	20 e0       	ldi	r18, 0x00	; 0
    5ef6:	30 e0       	ldi	r19, 0x00	; 0
    5ef8:	40 e8       	ldi	r20, 0x80	; 128
    5efa:	5f eb       	ldi	r21, 0xBF	; 191
    5efc:	9f e3       	ldi	r25, 0x3F	; 63
    5efe:	88 39       	cpi	r24, 0x98	; 152
    5f00:	20 f0       	brcs	.+8      	; 0x5f0a <log+0x3c>
    5f02:	80 3e       	cpi	r24, 0xE0	; 224
    5f04:	30 f0       	brcs	.+12     	; 0x5f12 <log+0x44>
    5f06:	21 96       	adiw	r28, 0x01	; 1
    5f08:	8f 77       	andi	r24, 0x7F	; 127
    5f0a:	97 dd       	rcall	.-1234   	; 0x5a3a <__addsf3>
    5f0c:	e4 eb       	ldi	r30, 0xB4	; 180
    5f0e:	f0 e0       	ldi	r31, 0x00	; 0
    5f10:	03 c0       	rjmp	.+6      	; 0x5f18 <log+0x4a>
    5f12:	93 dd       	rcall	.-1242   	; 0x5a3a <__addsf3>
    5f14:	e1 ee       	ldi	r30, 0xE1	; 225
    5f16:	f0 e0       	ldi	r31, 0x00	; 0
    5f18:	27 df       	rcall	.-434    	; 0x5d68 <__fp_powser>
    5f1a:	8b 01       	movw	r16, r22
    5f1c:	be 01       	movw	r22, r28
    5f1e:	ec 01       	movw	r28, r24
    5f20:	fb 2e       	mov	r15, r27
    5f22:	6f 57       	subi	r22, 0x7F	; 127
    5f24:	71 09       	sbc	r23, r1
    5f26:	75 95       	asr	r23
    5f28:	77 1f       	adc	r23, r23
    5f2a:	88 0b       	sbc	r24, r24
    5f2c:	99 0b       	sbc	r25, r25
    5f2e:	b4 de       	rcall	.-664    	; 0x5c98 <__floatsisf>
    5f30:	28 e1       	ldi	r18, 0x18	; 24
    5f32:	32 e7       	ldi	r19, 0x72	; 114
    5f34:	41 e3       	ldi	r20, 0x31	; 49
    5f36:	5f e3       	ldi	r21, 0x3F	; 63
    5f38:	49 d0       	rcall	.+146    	; 0x5fcc <__mulsf3x>
    5f3a:	af 2d       	mov	r26, r15
    5f3c:	98 01       	movw	r18, r16
    5f3e:	ae 01       	movw	r20, r28
    5f40:	ff 90       	pop	r15
    5f42:	0f 91       	pop	r16
    5f44:	1f 91       	pop	r17
    5f46:	cf 91       	pop	r28
    5f48:	df 91       	pop	r29
    5f4a:	88 dd       	rcall	.-1264   	; 0x5a5c <__addsf3x>
    5f4c:	40 cf       	rjmp	.-384    	; 0x5dce <__fp_round>

00005f4e <modf>:
    5f4e:	fa 01       	movw	r30, r20
    5f50:	dc 01       	movw	r26, r24
    5f52:	aa 0f       	add	r26, r26
    5f54:	bb 1f       	adc	r27, r27
    5f56:	9b 01       	movw	r18, r22
    5f58:	ac 01       	movw	r20, r24
    5f5a:	bf 57       	subi	r27, 0x7F	; 127
    5f5c:	28 f4       	brcc	.+10     	; 0x5f68 <modf+0x1a>
    5f5e:	22 27       	eor	r18, r18
    5f60:	33 27       	eor	r19, r19
    5f62:	44 27       	eor	r20, r20
    5f64:	50 78       	andi	r21, 0x80	; 128
    5f66:	1f c0       	rjmp	.+62     	; 0x5fa6 <modf+0x58>
    5f68:	b7 51       	subi	r27, 0x17	; 23
    5f6a:	88 f4       	brcc	.+34     	; 0x5f8e <modf+0x40>
    5f6c:	ab 2f       	mov	r26, r27
    5f6e:	00 24       	eor	r0, r0
    5f70:	46 95       	lsr	r20
    5f72:	37 95       	ror	r19
    5f74:	27 95       	ror	r18
    5f76:	01 1c       	adc	r0, r1
    5f78:	a3 95       	inc	r26
    5f7a:	d2 f3       	brmi	.-12     	; 0x5f70 <modf+0x22>
    5f7c:	00 20       	and	r0, r0
    5f7e:	69 f0       	breq	.+26     	; 0x5f9a <modf+0x4c>
    5f80:	22 0f       	add	r18, r18
    5f82:	33 1f       	adc	r19, r19
    5f84:	44 1f       	adc	r20, r20
    5f86:	b3 95       	inc	r27
    5f88:	da f3       	brmi	.-10     	; 0x5f80 <modf+0x32>
    5f8a:	0d d0       	rcall	.+26     	; 0x5fa6 <modf+0x58>
    5f8c:	55 cd       	rjmp	.-1366   	; 0x5a38 <__subsf3>
    5f8e:	61 30       	cpi	r22, 0x01	; 1
    5f90:	71 05       	cpc	r23, r1
    5f92:	a0 e8       	ldi	r26, 0x80	; 128
    5f94:	8a 07       	cpc	r24, r26
    5f96:	b9 46       	sbci	r27, 0x69	; 105
    5f98:	30 f4       	brcc	.+12     	; 0x5fa6 <modf+0x58>
    5f9a:	9b 01       	movw	r18, r22
    5f9c:	ac 01       	movw	r20, r24
    5f9e:	66 27       	eor	r22, r22
    5fa0:	77 27       	eor	r23, r23
    5fa2:	88 27       	eor	r24, r24
    5fa4:	90 78       	andi	r25, 0x80	; 128
    5fa6:	30 96       	adiw	r30, 0x00	; 0
    5fa8:	21 f0       	breq	.+8      	; 0x5fb2 <modf+0x64>
    5faa:	20 83       	st	Z, r18
    5fac:	31 83       	std	Z+1, r19	; 0x01
    5fae:	42 83       	std	Z+2, r20	; 0x02
    5fb0:	53 83       	std	Z+3, r21	; 0x03
    5fb2:	08 95       	ret

00005fb4 <__mulsf3>:
    5fb4:	0b d0       	rcall	.+22     	; 0x5fcc <__mulsf3x>
    5fb6:	0b cf       	rjmp	.-490    	; 0x5dce <__fp_round>
    5fb8:	fc de       	rcall	.-520    	; 0x5db2 <__fp_pscA>
    5fba:	28 f0       	brcs	.+10     	; 0x5fc6 <__mulsf3+0x12>
    5fbc:	01 df       	rcall	.-510    	; 0x5dc0 <__fp_pscB>
    5fbe:	18 f0       	brcs	.+6      	; 0x5fc6 <__mulsf3+0x12>
    5fc0:	95 23       	and	r25, r21
    5fc2:	09 f0       	breq	.+2      	; 0x5fc6 <__mulsf3+0x12>
    5fc4:	c8 ce       	rjmp	.-624    	; 0x5d56 <__fp_inf>
    5fc6:	cd ce       	rjmp	.-614    	; 0x5d62 <__fp_nan>
    5fc8:	11 24       	eor	r1, r1
    5fca:	35 cf       	rjmp	.-406    	; 0x5e36 <__fp_szero>

00005fcc <__mulsf3x>:
    5fcc:	11 df       	rcall	.-478    	; 0x5df0 <__fp_split3>
    5fce:	a0 f3       	brcs	.-24     	; 0x5fb8 <__mulsf3+0x4>

00005fd0 <__mulsf3_pse>:
    5fd0:	95 9f       	mul	r25, r21
    5fd2:	d1 f3       	breq	.-12     	; 0x5fc8 <__mulsf3+0x14>
    5fd4:	95 0f       	add	r25, r21
    5fd6:	50 e0       	ldi	r21, 0x00	; 0
    5fd8:	55 1f       	adc	r21, r21
    5fda:	62 9f       	mul	r22, r18
    5fdc:	f0 01       	movw	r30, r0
    5fde:	72 9f       	mul	r23, r18
    5fe0:	bb 27       	eor	r27, r27
    5fe2:	f0 0d       	add	r31, r0
    5fe4:	b1 1d       	adc	r27, r1
    5fe6:	63 9f       	mul	r22, r19
    5fe8:	aa 27       	eor	r26, r26
    5fea:	f0 0d       	add	r31, r0
    5fec:	b1 1d       	adc	r27, r1
    5fee:	aa 1f       	adc	r26, r26
    5ff0:	64 9f       	mul	r22, r20
    5ff2:	66 27       	eor	r22, r22
    5ff4:	b0 0d       	add	r27, r0
    5ff6:	a1 1d       	adc	r26, r1
    5ff8:	66 1f       	adc	r22, r22
    5ffa:	82 9f       	mul	r24, r18
    5ffc:	22 27       	eor	r18, r18
    5ffe:	b0 0d       	add	r27, r0
    6000:	a1 1d       	adc	r26, r1
    6002:	62 1f       	adc	r22, r18
    6004:	73 9f       	mul	r23, r19
    6006:	b0 0d       	add	r27, r0
    6008:	a1 1d       	adc	r26, r1
    600a:	62 1f       	adc	r22, r18
    600c:	83 9f       	mul	r24, r19
    600e:	a0 0d       	add	r26, r0
    6010:	61 1d       	adc	r22, r1
    6012:	22 1f       	adc	r18, r18
    6014:	74 9f       	mul	r23, r20
    6016:	33 27       	eor	r19, r19
    6018:	a0 0d       	add	r26, r0
    601a:	61 1d       	adc	r22, r1
    601c:	23 1f       	adc	r18, r19
    601e:	84 9f       	mul	r24, r20
    6020:	60 0d       	add	r22, r0
    6022:	21 1d       	adc	r18, r1
    6024:	82 2f       	mov	r24, r18
    6026:	76 2f       	mov	r23, r22
    6028:	6a 2f       	mov	r22, r26
    602a:	11 24       	eor	r1, r1
    602c:	9f 57       	subi	r25, 0x7F	; 127
    602e:	50 40       	sbci	r21, 0x00	; 0
    6030:	8a f0       	brmi	.+34     	; 0x6054 <__mulsf3_pse+0x84>
    6032:	e1 f0       	breq	.+56     	; 0x606c <__mulsf3_pse+0x9c>
    6034:	88 23       	and	r24, r24
    6036:	4a f0       	brmi	.+18     	; 0x604a <__mulsf3_pse+0x7a>
    6038:	ee 0f       	add	r30, r30
    603a:	ff 1f       	adc	r31, r31
    603c:	bb 1f       	adc	r27, r27
    603e:	66 1f       	adc	r22, r22
    6040:	77 1f       	adc	r23, r23
    6042:	88 1f       	adc	r24, r24
    6044:	91 50       	subi	r25, 0x01	; 1
    6046:	50 40       	sbci	r21, 0x00	; 0
    6048:	a9 f7       	brne	.-22     	; 0x6034 <__mulsf3_pse+0x64>
    604a:	9e 3f       	cpi	r25, 0xFE	; 254
    604c:	51 05       	cpc	r21, r1
    604e:	70 f0       	brcs	.+28     	; 0x606c <__mulsf3_pse+0x9c>
    6050:	82 ce       	rjmp	.-764    	; 0x5d56 <__fp_inf>
    6052:	f1 ce       	rjmp	.-542    	; 0x5e36 <__fp_szero>
    6054:	5f 3f       	cpi	r21, 0xFF	; 255
    6056:	ec f3       	brlt	.-6      	; 0x6052 <__mulsf3_pse+0x82>
    6058:	98 3e       	cpi	r25, 0xE8	; 232
    605a:	dc f3       	brlt	.-10     	; 0x6052 <__mulsf3_pse+0x82>
    605c:	86 95       	lsr	r24
    605e:	77 95       	ror	r23
    6060:	67 95       	ror	r22
    6062:	b7 95       	ror	r27
    6064:	f7 95       	ror	r31
    6066:	e7 95       	ror	r30
    6068:	9f 5f       	subi	r25, 0xFF	; 255
    606a:	c1 f7       	brne	.-16     	; 0x605c <__mulsf3_pse+0x8c>
    606c:	fe 2b       	or	r31, r30
    606e:	88 0f       	add	r24, r24
    6070:	91 1d       	adc	r25, r1
    6072:	96 95       	lsr	r25
    6074:	87 95       	ror	r24
    6076:	97 f9       	bld	r25, 7
    6078:	08 95       	ret

0000607a <__fp_mpack>:
    607a:	9f 3f       	cpi	r25, 0xFF	; 255
    607c:	31 f0       	breq	.+12     	; 0x608a <__fp_mpack_finite+0xc>

0000607e <__fp_mpack_finite>:
    607e:	91 50       	subi	r25, 0x01	; 1
    6080:	20 f4       	brcc	.+8      	; 0x608a <__fp_mpack_finite+0xc>
    6082:	87 95       	ror	r24
    6084:	77 95       	ror	r23
    6086:	67 95       	ror	r22
    6088:	b7 95       	ror	r27
    608a:	88 0f       	add	r24, r24
    608c:	91 1d       	adc	r25, r1
    608e:	96 95       	lsr	r25
    6090:	87 95       	ror	r24
    6092:	97 f9       	bld	r25, 7
    6094:	08 95       	ret

00006096 <__mulsi3>:
    6096:	62 9f       	mul	r22, r18
    6098:	d0 01       	movw	r26, r0
    609a:	73 9f       	mul	r23, r19
    609c:	f0 01       	movw	r30, r0
    609e:	82 9f       	mul	r24, r18
    60a0:	e0 0d       	add	r30, r0
    60a2:	f1 1d       	adc	r31, r1
    60a4:	64 9f       	mul	r22, r20
    60a6:	e0 0d       	add	r30, r0
    60a8:	f1 1d       	adc	r31, r1
    60aa:	92 9f       	mul	r25, r18
    60ac:	f0 0d       	add	r31, r0
    60ae:	83 9f       	mul	r24, r19
    60b0:	f0 0d       	add	r31, r0
    60b2:	74 9f       	mul	r23, r20
    60b4:	f0 0d       	add	r31, r0
    60b6:	65 9f       	mul	r22, r21
    60b8:	f0 0d       	add	r31, r0
    60ba:	99 27       	eor	r25, r25
    60bc:	72 9f       	mul	r23, r18
    60be:	b0 0d       	add	r27, r0
    60c0:	e1 1d       	adc	r30, r1
    60c2:	f9 1f       	adc	r31, r25
    60c4:	63 9f       	mul	r22, r19
    60c6:	b0 0d       	add	r27, r0
    60c8:	e1 1d       	adc	r30, r1
    60ca:	f9 1f       	adc	r31, r25
    60cc:	bd 01       	movw	r22, r26
    60ce:	cf 01       	movw	r24, r30
    60d0:	11 24       	eor	r1, r1
    60d2:	08 95       	ret

000060d4 <__udivmodhi4>:
    60d4:	aa 1b       	sub	r26, r26
    60d6:	bb 1b       	sub	r27, r27
    60d8:	51 e1       	ldi	r21, 0x11	; 17
    60da:	07 c0       	rjmp	.+14     	; 0x60ea <__udivmodhi4_ep>

000060dc <__udivmodhi4_loop>:
    60dc:	aa 1f       	adc	r26, r26
    60de:	bb 1f       	adc	r27, r27
    60e0:	a6 17       	cp	r26, r22
    60e2:	b7 07       	cpc	r27, r23
    60e4:	10 f0       	brcs	.+4      	; 0x60ea <__udivmodhi4_ep>
    60e6:	a6 1b       	sub	r26, r22
    60e8:	b7 0b       	sbc	r27, r23

000060ea <__udivmodhi4_ep>:
    60ea:	88 1f       	adc	r24, r24
    60ec:	99 1f       	adc	r25, r25
    60ee:	5a 95       	dec	r21
    60f0:	a9 f7       	brne	.-22     	; 0x60dc <__udivmodhi4_loop>
    60f2:	80 95       	com	r24
    60f4:	90 95       	com	r25
    60f6:	bc 01       	movw	r22, r24
    60f8:	cd 01       	movw	r24, r26
    60fa:	08 95       	ret

000060fc <__divmodhi4>:
    60fc:	97 fb       	bst	r25, 7
    60fe:	09 2e       	mov	r0, r25
    6100:	07 26       	eor	r0, r23
    6102:	0a d0       	rcall	.+20     	; 0x6118 <__divmodhi4_neg1>
    6104:	77 fd       	sbrc	r23, 7
    6106:	04 d0       	rcall	.+8      	; 0x6110 <__divmodhi4_neg2>
    6108:	e5 df       	rcall	.-54     	; 0x60d4 <__udivmodhi4>
    610a:	06 d0       	rcall	.+12     	; 0x6118 <__divmodhi4_neg1>
    610c:	00 20       	and	r0, r0
    610e:	1a f4       	brpl	.+6      	; 0x6116 <__divmodhi4_exit>

00006110 <__divmodhi4_neg2>:
    6110:	70 95       	com	r23
    6112:	61 95       	neg	r22
    6114:	7f 4f       	sbci	r23, 0xFF	; 255

00006116 <__divmodhi4_exit>:
    6116:	08 95       	ret

00006118 <__divmodhi4_neg1>:
    6118:	f6 f7       	brtc	.-4      	; 0x6116 <__divmodhi4_exit>
    611a:	90 95       	com	r25
    611c:	81 95       	neg	r24
    611e:	9f 4f       	sbci	r25, 0xFF	; 255
    6120:	08 95       	ret

00006122 <__udivmodsi4>:
    6122:	a1 e2       	ldi	r26, 0x21	; 33
    6124:	1a 2e       	mov	r1, r26
    6126:	aa 1b       	sub	r26, r26
    6128:	bb 1b       	sub	r27, r27
    612a:	fd 01       	movw	r30, r26
    612c:	0d c0       	rjmp	.+26     	; 0x6148 <__udivmodsi4_ep>

0000612e <__udivmodsi4_loop>:
    612e:	aa 1f       	adc	r26, r26
    6130:	bb 1f       	adc	r27, r27
    6132:	ee 1f       	adc	r30, r30
    6134:	ff 1f       	adc	r31, r31
    6136:	a2 17       	cp	r26, r18
    6138:	b3 07       	cpc	r27, r19
    613a:	e4 07       	cpc	r30, r20
    613c:	f5 07       	cpc	r31, r21
    613e:	20 f0       	brcs	.+8      	; 0x6148 <__udivmodsi4_ep>
    6140:	a2 1b       	sub	r26, r18
    6142:	b3 0b       	sbc	r27, r19
    6144:	e4 0b       	sbc	r30, r20
    6146:	f5 0b       	sbc	r31, r21

00006148 <__udivmodsi4_ep>:
    6148:	66 1f       	adc	r22, r22
    614a:	77 1f       	adc	r23, r23
    614c:	88 1f       	adc	r24, r24
    614e:	99 1f       	adc	r25, r25
    6150:	1a 94       	dec	r1
    6152:	69 f7       	brne	.-38     	; 0x612e <__udivmodsi4_loop>
    6154:	60 95       	com	r22
    6156:	70 95       	com	r23
    6158:	80 95       	com	r24
    615a:	90 95       	com	r25
    615c:	9b 01       	movw	r18, r22
    615e:	ac 01       	movw	r20, r24
    6160:	bd 01       	movw	r22, r26
    6162:	cf 01       	movw	r24, r30
    6164:	08 95       	ret

00006166 <_exit>:
    6166:	f8 94       	cli

00006168 <__stop_program>:
    6168:	ff cf       	rjmp	.-2      	; 0x6168 <__stop_program>
